BL51 BANKED LINKER/LOCATER V6.22                                                        10/09/2015  15:13:05  PAGE 1


BL51 BANKED LINKER/LOCATER V6.22, INVOKED BY:
C:\KEIL_V5\C51\BIN\BL51.EXE .\it.obj, startup.obj, .\main.obj, .\bsp_init.obj, .\aip1944.obj, .\display.obj, .\buzzer.ob
>> j, .\ir.obj, .\humidity.obj, .\dust.obj, .\motor.obj, .\system.obj, .\key.obj, .\fifo.obj, .\protocol.obj, .\uart.obj
>> , .\fsm.obj, .\state_test.obj, .\state_startup.obj, .\state_standby.obj, .\state_clockSetting.obj, .\state_echeck.obj
>> , .\state_timerSetting.obj, .\state_timerFnSetting.obj, .\state_timerLookup.obj, .\state_work.obj TO YTN-E608-WIFI-64
>> 32 RAMSIZE (256) DISABLEWARNING (16, 15, 13) CODE (0X0000-0X7FFF) XDATA (0X0000-0X02FF)




PROGRAM RECURSIONS REMOVED FROM CALL TREE
=========================================
+--> ?CO?STATE_STANDBY
|  | ?PR?_KEYACTIONDEAL?STATE_STANDBY
|  | ?CO?STATE_WORK
<--+ ?PR?_TIMETICK?STATE_WORK



MEMORY MODEL: LARGE WITH FLOATING POINT ARITHMETIC


INPUT MODULES INCLUDED:
  .\it.obj (IT)
  startup.obj (?C_STARTUP)
  .\main.obj (MAIN)
  .\bsp_init.obj (BSP_INIT)
  .\aip1944.obj (AIP1944)
  .\display.obj (DISPLAY)
  .\buzzer.obj (BUZZER)
  .\ir.obj (IR)
  .\humidity.obj (HUMIDITY)
  .\dust.obj (DUST)
  .\motor.obj (MOTOR)
  .\system.obj (SYSTEM)
  .\key.obj (KEY)
  .\fifo.obj (FIFO)
  .\protocol.obj (PROTOCOL)
  .\uart.obj (UART)
  .\fsm.obj (FSM)
  .\state_test.obj (STATE_TEST)
  .\state_startup.obj (STATE_STARTUP)
  .\state_standby.obj (STATE_STANDBY)
  .\state_clockSetting.obj (STATE_CLOCKSETTING)
  .\state_echeck.obj (STATE_ECHECK)
  .\state_timerSetting.obj (STATE_TIMERSETTING)
  .\state_timerFnSetting.obj (STATE_TIMERFNSETTING)
  .\state_timerLookup.obj (STATE_TIMERLOOKUP)
  .\state_work.obj (STATE_WORK)
  C:\KEIL_V5\C51\LIB\C51FPL.LIB (?C?FPMUL)
  C:\KEIL_V5\C51\LIB\C51FPL.LIB (?C?FCAST)
  C:\KEIL_V5\C51\LIB\C51FPL.LIB (?C?CASTF)
  C:\KEIL_V5\C51\LIB\C51FPL.LIB (?C?FPGETOPN)
  C:\KEIL_V5\C51\LIB\C51L.LIB (?C_INIT)
  C:\KEIL_V5\C51\LIB\C51L.LIB (?C?CLDPTR)
  C:\KEIL_V5\C51\LIB\C51L.LIB (?C?CLDOPTR)
  C:\KEIL_V5\C51\LIB\C51L.LIB (?C?CSTPTR)
  C:\KEIL_V5\C51\LIB\C51L.LIB (?C?CSTOPTR)
BL51 BANKED LINKER/LOCATER V6.22                                                      10/09/2015  15:13:05  PAGE 2


  C:\KEIL_V5\C51\LIB\C51L.LIB (?C?UIDIV)
  C:\KEIL_V5\C51\LIB\C51L.LIB (?C?ILDOPTR)
  C:\KEIL_V5\C51\LIB\C51L.LIB (?C?ULDIV)
  C:\KEIL_V5\C51\LIB\C51L.LIB (?C?LNEG)
  C:\KEIL_V5\C51\LIB\C51L.LIB (?C?ULCMP)
  C:\KEIL_V5\C51\LIB\C51L.LIB (?C?LSTXDATA)
  C:\KEIL_V5\C51\LIB\C51L.LIB (?C?OFFXADD)
  C:\KEIL_V5\C51\LIB\C51L.LIB (?C?ICALL)


LINK MAP OF MODULE:  YTN-E608-WIFI-6432 (IT)


            TYPE    BASE      LENGTH    RELOCATION   SEGMENT NAME
            -----------------------------------------------------

            * * * * * * *   D A T A   M E M O R Y   * * * * * * *
            REG     0000H     0008H     ABSOLUTE     "REG BANK 0"
            IDATA   0008H     000BH     UNIT         ?ID?IT
            IDATA   0013H     0003H     UNIT         ?ID?MAIN
            IDATA   0016H     0003H     UNIT         ?ID?HUMIDITY
                    0019H     0007H                  *** GAP ***
            BIT     0020H.0   0000H.7   UNIT         _BIT_GROUP_
            BIT     0020H.7   0000H.6   UNIT         ?BI?SYSTEM
            BIT     0021H.5   0000H.3   UNIT         ?BI?DISPLAY
            BIT     0022H.0   0000H.3   UNIT         ?BI?MOTOR
            BIT     0022H.3   0000H.2   UNIT         ?BI?DUST
            BIT     0022H.5   0000H.2   UNIT         ?BI?UART
            BIT     0022H.7   0000H.1   UNIT         ?BI?BUZZER
            BIT     0023H.0   0000H.1   UNIT         ?BI?IR
            BIT     0023H.1   0000H.1   UNIT         ?BI?HUMIDITY
            BIT     0023H.2   0000H.1   UNIT         ?BI?KEY
            BIT     0023H.3   0000H.1   UNIT         ?BI?PROTOCOL
            BIT     0023H.4   0000H.1   UNIT         ?BI?STATE_ECHECK
            BIT     0023H.5   0000H.1   UNIT         ?BI?STATE_WORK
                    0023H.6   0000H.2                *** GAP ***
            IDATA   0024H     0001H     UNIT         ?STACK

            * * * * * * *  X D A T A   M E M O R Y  * * * * * * *
            XDATA   0000H     00D8H     UNIT         ?XD?UART
            XDATA   00D8H     0076H     UNIT         ?XD?SYSTEM
            XDATA   014EH     0042H     UNIT         ?XD?DISPLAY
            XDATA   0190H     0017H     UNIT         _XDATA_GROUP_
            XDATA   01A7H     0015H     UNIT         ?XD?DUST
            XDATA   01BCH     0011H     UNIT         ?XD?HUMIDITY
            XDATA   01CDH     0008H     UNIT         ?XD?MOTOR
            XDATA   01D5H     0006H     UNIT         ?XD?STATE_WORK
            XDATA   01DBH     0004H     UNIT         ?XD?IT
            XDATA   01DFH     0004H     UNIT         ?XD?BUZZER
            XDATA   01E3H     0004H     UNIT         ?XD?KEY
            XDATA   01E7H     0004H     UNIT         ?XD?PROTOCOL
            XDATA   01EBH     0002H     UNIT         ?XD?IR
            XDATA   01EDH     0002H     UNIT         ?XD?FSM
            XDATA   01EFH     0002H     UNIT         ?XD?STATE_STANDBY
            XDATA   01F1H     0001H     UNIT         ?XD?AIP1944
            XDATA   01F2H     0001H     UNIT         ?XD?STATE_CLOCKSETTING
            XDATA   01F3H     0001H     UNIT         ?XD?STATE_TIMERSETTING
BL51 BANKED LINKER/LOCATER V6.22                                                      10/09/2015  15:13:05  PAGE 3


            XDATA   01F4H     0001H     UNIT         ?XD?STATE_TIMERLOOKUP

            * * * * * * *   C O D E   M E M O R Y   * * * * * * *
            CODE    0000H     0003H     ABSOLUTE     
            CODE    0003H     0018H     UNIT         ?PR?TIMER1_INIT?BSP_INIT
            CODE    001BH     0003H     ABSOLUTE     
            CODE    001EH     0005H     UNIT         ?PR?CMD_GET_SYS_STA_DEAL?PROTOCOL
            CODE    0023H     0003H     ABSOLUTE     
            CODE    0026H     0044H     UNIT         ?PR?UART_SENDSTARTUP?UART
            CODE    006AH     0001H     UNIT         ?PR?CMD_DUMMY_DEAL?PROTOCOL
            CODE    006BH     0003H     ABSOLUTE     
            CODE    006EH     0034H     UNIT         ?PR?_DISPLAY_SPLEVEL?DISPLAY
            CODE    00A2H     0001H     UNIT         ?PR?TASK_DONOTHING?FSM
            CODE    00A3H     0003H     ABSOLUTE     
            CODE    00A6H     000DH     UNIT         ?PR?BIT_INIT?BSP_INIT
            CODE    00B3H     0003H     ABSOLUTE     
            CODE    00B6H     0AE7H     UNIT         ?CO?HUMIDITY
            CODE    0B9DH     0416H     UNIT         ?PR?_PROTOCOL_STARESP?PROTOCOL
            CODE    0FB3H     03D7H     UNIT         ?C?LIB_CODE
            CODE    138AH     03BAH     UNIT         ?PR?_TIMETICK?STATE_WORK
            CODE    1744H     02BDH     UNIT         ?PR?_DISPLAYCONTROL?STATE_WORK
            CODE    1A01H     01BDH     UNIT         ?PR?_KEYACTIONDEAL?STATE_TIMERSETTING
            CODE    1BBEH     01ABH     UNIT         ?PR?CMD_GET_DEVICE_INFO_DEAL?PROTOCOL
            CODE    1D69H     01A5H     UNIT         ?PR?MOTOR_CTR?MOTOR
            CODE    1F0EH     01A1H     UNIT         ?PR?PROTOCOL_TASK?PROTOCOL
            CODE    20AFH     019BH     UNIT         ?PR?INT_BIT?IT
            CODE    224AH     016EH     UNIT         ?PR?_IRDATADEAL?STATE_WORK
            CODE    23B8H     015FH     UNIT         ?PR?CMD_GET_PM_DATAS_DEAL?PROTOCOL
            CODE    2517H     0142H     UNIT         ?PR?_DISPLAYCONTROL?STATE_TIMERSETTING
            CODE    2659H     0120H     UNIT         ?PR?_DISPLAYCONTROL?STATE_TIMERLOOKUP
            CODE    2779H     0117H     UNIT         ?CO?DISPLAY
            CODE    2890H     010BH     UNIT         ?PR?_TIMETICK?STATE_STANDBY
            CODE    299BH     0108H     UNIT         ?PR?_IRDATADEAL?STATE_STANDBY
            CODE    2AA3H     0107H     UNIT         ?PR?_DISPLAYCONTROL?STATE_STANDBY
            CODE    2BAAH     0104H     UNIT         ?PR?INT_WT?IT
            CODE    2CAEH     0102H     UNIT         ?PR?_DISPLAY_DUSTDATA?DISPLAY
            CODE    2DB0H     00FEH     UNIT         ?PR?_DISPLAY_SHOWNUMINRTCAREA?DISPLAY
            CODE    2EAEH     00FEH     UNIT         ?PR?_HUMIDITY_AD2H?HUMIDITY
            CODE    2FACH     00FAH     UNIT         ?PR?_DISPLAYCONTROL?STATE_TEST
            CODE    30A6H     00FAH     UNIT         ?PR?_KEYACTIONDEAL?STATE_WORK
            CODE    31A0H     00EEH     UNIT         ?PR?SYS_UPDATETIMERONINDEX?SYSTEM
            CODE    328EH     00E7H     UNIT         ?PR?_KEYACTIONDEAL?STATE_STANDBY
            CODE    3375H     00E3H     UNIT         ?PR?PROTOCOL_RESETWIFIMODE?PROTOCOL
            CODE    3458H     00D1H     UNIT         ?PR?MAIN?MAIN
            CODE    3529H     00CEH     UNIT         ?PR?_DISPLAY_SHOWRT?DISPLAY
            CODE    35F7H     00CCH     UNIT         ?PR?KEY_ACTIONDETECT?KEY
            CODE    36C3H     00BAH     UNIT         ?PR?DUST_LEVELUPDATE?DUST
            CODE    377DH     00B2H     UNIT         ?PR?DISPLAY_LEDDRIVE?DISPLAY
            CODE    382FH     00ADH     UNIT         ?PR?DUST_DATAUPDATE?DUST
            CODE    38DCH     00ADH     UNIT         ?PR?CMD_GET_ENE_DATAS_DEAL?PROTOCOL
            CODE    3989H     00ACH     UNIT         ?PR?INT_USI1_RX?IT
            CODE    3A35H     00A3H     UNIT         ?PR?PROTOCOL_ENTERATMODE?PROTOCOL
            CODE    3AD8H     00A0H     UNIT         ?PR?HUMIDITY_GETCURRENTH?HUMIDITY
            CODE    3B78H     009AH     UNIT         ?C_C51STARTUP
            CODE    3C12H     008FH     UNIT         ?PR?INT_USI1_TX?IT
            CODE    3CA1H     0089H     UNIT         ?PR?HUMIDITY_GETCURRENTT?HUMIDITY
            CODE    3D2AH     007EH     UNIT         ?PR?_KEYACTIONDEAL?STATE_CLOCKSETTING
BL51 BANKED LINKER/LOCATER V6.22                                                      10/09/2015  15:13:05  PAGE 4


            CODE    3DA8H     007AH     UNIT         ?PR?CMD_TIMER_CTR_DEAL?PROTOCOL
            CODE    3E22H     0075H     UNIT         ?PR?_HUMIDITY_GETH?HUMIDITY
            CODE    3E97H     0064H     UNIT         ?PR?_MOTORCTR?STATE_WORK
            CODE    3EFBH     0061H     UNIT         ?PR?_ENQUEUE?FIFO
            CODE    3F5CH     005FH     UNIT         ?PR?_DISPLAY_SHOWTEMPERATURE?DISPLAY
            CODE    3FBBH     005FH     UNIT         ?PR?_DISPLAY_SHOWHUMIDITY?DISPLAY
            CODE    401AH     005DH     UNIT         ?PR?_DEQUEUE?FIFO
            CODE    4077H     0053H     UNIT         ?PR?SYS_LOADCTR?SYSTEM
            CODE    40CAH     0053H     UNIT         ?PR?KEY_READ?KEY
            CODE    411DH     0052H     UNIT         ?PR?_STATE_TRANSITIONTO?FSM
            CODE    416FH     0051H     UNIT         ?PR?PORT_INIT?BSP_INIT
            CODE    41C0H     0050H     UNIT         ?PR?_AIP1944_WRITEDISPDATAS?AIP1944
            CODE    4210H     004FH     UNIT         ?PR?_ENTEREVENTDEAL?STATE_WORK
            CODE    425FH     004BH     UNIT         ?PR?DUST_GETRTLEVEL?DUST
            CODE    42AAH     004BH     UNIT         ?CO?PROTOCOL
            CODE    42F5H     004AH     UNIT         ?PR?_DISPLAY_CIRCLERUN?DISPLAY
            CODE    433FH     0046H     UNIT         ?PR?CMD_FAN_CTR_DEAL?PROTOCOL
            CODE    4385H     0043H     UNIT         ?PR?BUZZ_CTR?BUZZER
            CODE    43C8H     0043H     UNIT         ?PR?CMD_RT_SET_DEAL?PROTOCOL
            CODE    440BH     0041H     UNIT         ?PR?_TASKEXE?STATE_WORK
            CODE    444CH     003EH     UNIT         ?PR?_DISPLAY_DUSTLEVEL?DISPLAY
            CODE    448AH     003CH     UNIT         ?PR?_KEYACTIONDEAL?STATE_ECHECK
            CODE    44C6H     003AH     UNIT         ?PR?_KEYACTIONDEAL?STATE_TIMERLOOKUP
            CODE    4500H     0039H     UNIT         ?PR?_QUEUEISFULL?FIFO
            CODE    4539H     0034H     UNIT         ?PR?UART_MEMORYINIT?UART
            CODE    456DH     0034H     UNIT         ?PR?_DISPLAYCONTROL?STATE_TIMERFNSETTING
            CODE    45A1H     0033H     UNIT         ?PR?DISPLAY_CTR?DISPLAY
            CODE    45D4H     0030H     UNIT         ?PR?INITALL?MAIN
            CODE    4604H     002EH     UNIT         ?PR?BSP_INIT?BSP_INIT
            CODE    4632H     002EH     UNIT         ?PR?SYS_ENTERSTOPMODE?SYSTEM
            CODE    4660H     002DH     UNIT         ?PR?_ENTEREVENTDEAL?STATE_STANDBY
            CODE    468DH     002DH     UNIT         ?PR?GETNEXTACTIVETIMERINDEX?STATE_TIMERLOOKUP
            CODE    46BAH     002CH     UNIT         ?PR?_DISPLAYCONTROL?STATE_CLOCKSETTING
            CODE    46E6H     002BH     UNIT         ?PR?CMD_POWER_CTR_DEAL?PROTOCOL
            CODE    4711H     002BH     UNIT         ?PR?_DISPLAYCONTROL?STATE_ECHECK
            CODE    473CH     0024H     UNIT         ?C_INITSEG
            CODE    4760H     0020H     UNIT         ?PR?DISPLAY_SETLINE?DISPLAY
            CODE    4780H     001FH     UNIT         ?PR?_KEYACTIONDEAL?STATE_TIMERFNSETTING
            CODE    479FH     001EH     UNIT         ?CO?SYSTEM
            CODE    47BDH     001DH     UNIT         ?PR?_MOTOR_RUN?MOTOR
            CODE    47DAH     001DH     UNIT         ?PR?CMD_AION_CTR_DEAL?PROTOCOL
            CODE    47F7H     001DH     UNIT         ?PR?CMD_UV_CTR_DEAL?PROTOCOL
            CODE    4814H     001BH     UNIT         ?PR?_BUZZ_SET?BUZZER
            CODE    482FH     001BH     UNIT         ?PR?CMD_MEM_SET_DEAL?PROTOCOL
            CODE    484AH     001BH     UNIT         ?CO?FSM
            CODE    4865H     001BH     UNIT         ?CO?STATE_TEST
            CODE    4880H     001BH     UNIT         ?CO?STATE_STARTUP
            CODE    489BH     001BH     UNIT         ?CO?STATE_STANDBY
            CODE    48B6H     001BH     UNIT         ?CO?STATE_CLOCKSETTING
            CODE    48D1H     001BH     UNIT         ?CO?STATE_ECHECK
            CODE    48ECH     001BH     UNIT         ?CO?STATE_TIMERSETTING
            CODE    4907H     001BH     UNIT         ?CO?STATE_TIMERFNSETTING
            CODE    4922H     001BH     UNIT         ?PR?_ENTEREVENTDEAL?STATE_TIMERLOOKUP
            CODE    493DH     001BH     UNIT         ?CO?STATE_TIMERLOOKUP
            CODE    4958H     001BH     UNIT         ?CO?STATE_WORK
            CODE    4973H     001AH     UNIT         ?PR?_AIP1944_WRITEBYTE?AIP1944
            CODE    498DH     001AH     UNIT         ?PR?_QUEUELEN?FIFO
BL51 BANKED LINKER/LOCATER V6.22                                                      10/09/2015  15:13:05  PAGE 5


            CODE    49A7H     0019H     UNIT         ?PR?CMD_WIFI_STA_CHANGE_DEAL?PROTOCOL
            CODE    49C0H     0018H     UNIT         ?PR?_TIMETICK?STATE_STARTUP
            CODE    49D8H     0018H     UNIT         ?PR?_TIMETICK?STATE_CLOCKSETTING
            CODE    49F0H     0018H     UNIT         ?PR?_TIMETICK?STATE_ECHECK
            CODE    4A08H     0018H     UNIT         ?PR?_TIMETICK?STATE_TIMERSETTING
            CODE    4A20H     0018H     UNIT         ?PR?_TIMETICK?STATE_TIMERFNSETTING
            CODE    4A38H     0018H     UNIT         ?PR?_TIMETICK?STATE_TIMERLOOKUP
            CODE    4A50H     0016H     UNIT         ?PR?UART_INIT?BSP_INIT
            CODE    4A66H     0016H     UNIT         ?PR?_UTILS_GETADVALUE?HUMIDITY
            CODE    4A7CH     0016H     UNIT         ?PR?CMD_FIX_CTR_DEAL?PROTOCOL
            CODE    4A92H     0016H     UNIT         ?PR?CMD_CLEAN_CTR_DEAL?PROTOCOL
            CODE    4AA8H     0015H     UNIT         ?PR?_QUEUEISEMPTY?FIFO
            CODE    4ABDH     0014H     UNIT         ?PR?_DISPLAY_SETALL?DISPLAY
            CODE    4AD1H     0014H     UNIT         ?PR?_HUMIDITY_AD2T?HUMIDITY
            CODE    4AE5H     0014H     UNIT         ?PR?DUST_DEVICEINIT?DUST
            CODE    4AF9H     0013H     UNIT         ?PR?INT_TIMER0?IT
            CODE    4B0CH     0012H     UNIT         ?PR?_BUZ_ONOFF?BSP_INIT
            CODE    4B1EH     0012H     UNIT         ?PR?BUZZ_DEVICEINIT?BUZZER
            CODE    4B30H     0010H     UNIT         ?PR?HUMIDITY_DEVICEINIT?HUMIDITY
            CODE    4B40H     0010H     UNIT         ?PR?HOURDEC?STATE_CLOCKSETTING
            CODE    4B50H     0010H     UNIT         ?PR?MINDEC?STATE_CLOCKSETTING
            CODE    4B60H     000FH     UNIT         ?PR?_ADC_START?BSP_INIT
            CODE    4B6FH     000FH     UNIT         ?PR?HOURINC?STATE_CLOCKSETTING
            CODE    4B7EH     000FH     UNIT         ?PR?MININC?STATE_CLOCKSETTING
            CODE    4B8DH     000EH     UNIT         ?PR?_INITQUEUE?FIFO
            CODE    4B9BH     000EH     UNIT         ?PR?CMD_REST_DEAL?PROTOCOL
            CODE    4BA9H     000EH     UNIT         ?PR?_ENTEREVENTDEAL?STATE_STARTUP
            CODE    4BB7H     000DH     UNIT         ?PR?TIMER0_INIT?BSP_INIT
            CODE    4BC4H     000DH     UNIT         ?PR?WT_INIT?BSP_INIT
            CODE    4BD1H     000CH     UNIT         ?PR?_ENTEREVENTDEAL?STATE_TIMERSETTING
            CODE    4BDDH     000AH     UNIT         ?PR?MOTOR_STOP?MOTOR
            CODE    4BE7H     000AH     UNIT         ?PR?_DISPLAYCONTROL?STATE_STARTUP
            CODE    4BF1H     000AH     UNIT         ?PR?_ENTEREVENTDEAL?STATE_CLOCKSETTING
            CODE    4BFBH     0009H     UNIT         ?PR?WDT_INIT?BSP_INIT
            CODE    4C04H     0009H     UNIT         ?PR?UART_RXDATSDEAL?UART
            CODE    4C0DH     0008H     UNIT         ?PR?LCD_INIT?BSP_INIT
            CODE    4C15H     0008H     UNIT         ?PR?PROTOCOL_INIT?PROTOCOL
            CODE    4C1DH     0008H     UNIT         ?PR?_ENTEREVENTDEAL?STATE_ECHECK
            CODE    4C25H     0007H     UNIT         ?PR?ADC_INIT?BSP_INIT
            CODE    4C2CH     0007H     UNIT         ?PR?BUZ_INIT?BSP_INIT
            CODE    4C33H     0007H     UNIT         ?PR?CLOCK_INIT?BSP_INIT
            CODE    4C3AH     0006H     UNIT         ?PR?_ENTEREVENTDEAL?STATE_TIMERFNSETTING
            CODE    4C40H     0004H     UNIT         ?PR?WDT_CLEAR?BSP_INIT
            CODE    4C44H     0003H     UNIT         ?PR?_MOTORCTR?STATE_STARTUP
            CODE    4C47H     0003H     UNIT         ?PR?_MOTORCTR?STATE_STANDBY
            CODE    4C4AH     0003H     UNIT         ?PR?_MOTORCTR?STATE_CLOCKSETTING
            CODE    4C4DH     0003H     UNIT         ?PR?_MOTORCTR?STATE_ECHECK
            CODE    4C50H     0003H     UNIT         ?PR?_MOTORCTR?STATE_TIMERSETTING
            CODE    4C53H     0003H     UNIT         ?PR?_MOTORCTR?STATE_TIMERFNSETTING
            CODE    4C56H     0003H     UNIT         ?PR?_MOTORCTR?STATE_TIMERLOOKUP
            CODE    4C59H     0001H     UNIT         ?PR?_KEYACTIONDEAL?STATE_TEST
            CODE    4C5AH     0001H     UNIT         ?PR?_TASKEXE?STATE_TEST
            CODE    4C5BH     0001H     UNIT         ?PR?_TIMETICK?STATE_TEST
            CODE    4C5CH     0001H     UNIT         ?PR?_MOTORCTR?STATE_TEST
            CODE    4C5DH     0001H     UNIT         ?PR?_IRDATADEAL?STATE_TEST
            CODE    4C5EH     0001H     UNIT         ?PR?_RXDATADEAL?STATE_TEST
            CODE    4C5FH     0001H     UNIT         ?PR?_ENTEREVENTDEAL?STATE_TEST
BL51 BANKED LINKER/LOCATER V6.22                                                      10/09/2015  15:13:05  PAGE 6


            CODE    4C60H     0001H     UNIT         ?PR?_EXITEVENTDEAL?STATE_TEST
            CODE    4C61H     0001H     UNIT         ?PR?_KEYACTIONDEAL?STATE_STARTUP
            CODE    4C62H     0001H     UNIT         ?PR?_TASKEXE?STATE_STARTUP
            CODE    4C63H     0001H     UNIT         ?PR?_IRDATADEAL?STATE_STARTUP
            CODE    4C64H     0001H     UNIT         ?PR?_RXDATADEAL?STATE_STARTUP
            CODE    4C65H     0001H     UNIT         ?PR?_EXITEVENTDEAL?STATE_STARTUP
            CODE    4C66H     0001H     UNIT         ?PR?_TASKEXE?STATE_STANDBY
            CODE    4C67H     0001H     UNIT         ?PR?_RXDATADEAL?STATE_STANDBY
            CODE    4C68H     0001H     UNIT         ?PR?_EXITEVENTDEAL?STATE_STANDBY
            CODE    4C69H     0001H     UNIT         ?PR?_TASKEXE?STATE_CLOCKSETTING
            CODE    4C6AH     0001H     UNIT         ?PR?_IRDATADEAL?STATE_CLOCKSETTING
            CODE    4C6BH     0001H     UNIT         ?PR?_RXDATADEAL?STATE_CLOCKSETTING
            CODE    4C6CH     0001H     UNIT         ?PR?_EXITEVENTDEAL?STATE_CLOCKSETTING
            CODE    4C6DH     0001H     UNIT         ?PR?_TASKEXE?STATE_ECHECK
            CODE    4C6EH     0001H     UNIT         ?PR?_IRDATADEAL?STATE_ECHECK
            CODE    4C6FH     0001H     UNIT         ?PR?_RXDATADEAL?STATE_ECHECK
            CODE    4C70H     0001H     UNIT         ?PR?_EXITEVENTDEAL?STATE_ECHECK
            CODE    4C71H     0001H     UNIT         ?PR?_TASKEXE?STATE_TIMERSETTING
            CODE    4C72H     0001H     UNIT         ?PR?_IRDATADEAL?STATE_TIMERSETTING
            CODE    4C73H     0001H     UNIT         ?PR?_RXDATADEAL?STATE_TIMERSETTING
            CODE    4C74H     0001H     UNIT         ?PR?_EXITEVENTDEAL?STATE_TIMERSETTING
            CODE    4C75H     0001H     UNIT         ?PR?_TASKEXE?STATE_TIMERFNSETTING
            CODE    4C76H     0001H     UNIT         ?PR?_IRDATADEAL?STATE_TIMERFNSETTING
            CODE    4C77H     0001H     UNIT         ?PR?_RXDATADEAL?STATE_TIMERFNSETTING
            CODE    4C78H     0001H     UNIT         ?PR?_EXITEVENTDEAL?STATE_TIMERFNSETTING
            CODE    4C79H     0001H     UNIT         ?PR?_TASKEXE?STATE_TIMERLOOKUP
            CODE    4C7AH     0001H     UNIT         ?PR?_IRDATADEAL?STATE_TIMERLOOKUP
            CODE    4C7BH     0001H     UNIT         ?PR?_RXDATADEAL?STATE_TIMERLOOKUP
            CODE    4C7CH     0001H     UNIT         ?PR?_EXITEVENTDEAL?STATE_TIMERLOOKUP
            CODE    4C7DH     0001H     UNIT         ?PR?_RXDATADEAL?STATE_WORK
            CODE    4C7EH     0001H     UNIT         ?PR?_EXITEVENTDEAL?STATE_WORK



OVERLAY MAP OF MODULE:   YTN-E608-WIFI-6432 (IT)


SEGMENT                                             BIT_GROUP          XDATA_GROUP
  +--> CALLED SEGMENT                            START    LENGTH     START    LENGTH
------------------------------------------------------------------------------------
?PR?INT_WT?IT                                    -----    -----      -----    -----
  +--> ?PR?INITALL?MAIN

?PR?INITALL?MAIN                                 -----    -----      -----    -----
  +--> ?PR?BSP_INIT?BSP_INIT
  +--> ?PR?BUZZ_DEVICEINIT?BUZZER
  +--> ?PR?UART_MEMORYINIT?UART
  +--> ?PR?PROTOCOL_INIT?PROTOCOL
  +--> ?PR?HUMIDITY_DEVICEINIT?HUMIDITY
  +--> ?PR?DUST_DEVICEINIT?DUST
  +--> ?CO?STATE_STARTUP
  +--> ?PR?_STATE_TRANSITIONTO?FSM
  +--> ?PR?_BUZZ_SET?BUZZER

?PR?BSP_INIT?BSP_INIT                            -----    -----      -----    -----
  +--> ?PR?PORT_INIT?BSP_INIT
  +--> ?PR?CLOCK_INIT?BSP_INIT
BL51 BANKED LINKER/LOCATER V6.22                                                      10/09/2015  15:13:05  PAGE 7


  +--> ?PR?WT_INIT?BSP_INIT
  +--> ?PR?ADC_INIT?BSP_INIT
  +--> ?PR?BIT_INIT?BSP_INIT
  +--> ?PR?BUZ_INIT?BSP_INIT
  +--> ?PR?LCD_INIT?BSP_INIT
  +--> ?PR?TIMER0_INIT?BSP_INIT
  +--> ?PR?TIMER1_INIT?BSP_INIT
  +--> ?PR?UART_INIT?BSP_INIT

?PR?UART_MEMORYINIT?UART                         -----    -----      -----    -----
  +--> ?PR?_INITQUEUE?FIFO

?PR?HUMIDITY_DEVICEINIT?HUMIDITY                 -----    -----      -----    -----
  +--> ?PR?_UTILS_GETADVALUE?HUMIDITY
  +--> ?PR?_HUMIDITY_AD2T?HUMIDITY
  +--> ?PR?_HUMIDITY_AD2H?HUMIDITY

?PR?_HUMIDITY_AD2T?HUMIDITY                      -----    -----      -----    -----
  +--> ?CO?HUMIDITY

?PR?_HUMIDITY_AD2H?HUMIDITY                      -----    -----      0198H    0003H
  +--> ?PR?_HUMIDITY_GETH?HUMIDITY

?PR?_HUMIDITY_GETH?HUMIDITY                      -----    -----      019BH    0003H
  +--> ?CO?HUMIDITY

?CO?STATE_STARTUP                                -----    -----      -----    -----
  +--> ?PR?_KEYACTIONDEAL?STATE_STARTUP
  +--> ?PR?_DISPLAYCONTROL?STATE_STARTUP
  +--> ?PR?_TASKEXE?STATE_STARTUP
  +--> ?PR?_TIMETICK?STATE_STARTUP
  +--> ?PR?_MOTORCTR?STATE_STARTUP
  +--> ?PR?_IRDATADEAL?STATE_STARTUP
  +--> ?PR?_RXDATADEAL?STATE_STARTUP
  +--> ?PR?_ENTEREVENTDEAL?STATE_STARTUP
  +--> ?PR?_EXITEVENTDEAL?STATE_STARTUP

?PR?_DISPLAYCONTROL?STATE_STARTUP                -----    -----      -----    -----
  +--> ?PR?_DISPLAY_SETALL?DISPLAY

?PR?_TIMETICK?STATE_STARTUP                      -----    -----      -----    -----
  +--> ?CO?STATE_STANDBY
  +--> ?PR?_STATE_TRANSITIONTO?FSM

?CO?STATE_STANDBY                                -----    -----      -----    -----
  +--> ?PR?_KEYACTIONDEAL?STATE_STANDBY
  +--> ?PR?_DISPLAYCONTROL?STATE_STANDBY
  +--> ?PR?_TASKEXE?STATE_STANDBY
  +--> ?PR?_TIMETICK?STATE_STANDBY
  +--> ?PR?_MOTORCTR?STATE_STANDBY
  +--> ?PR?_IRDATADEAL?STATE_STANDBY
  +--> ?PR?_RXDATADEAL?STATE_STANDBY
  +--> ?PR?_ENTEREVENTDEAL?STATE_STANDBY
  +--> ?PR?_EXITEVENTDEAL?STATE_STANDBY

?PR?_KEYACTIONDEAL?STATE_STANDBY                 -----    -----      -----    -----
  +--> ?PR?_BUZZ_SET?BUZZER
BL51 BANKED LINKER/LOCATER V6.22                                                      10/09/2015  15:13:05  PAGE 8


  +--> ?CO?STATE_WORK
  +--> ?CO?STATE_ECHECK
  +--> ?CO?STATE_TIMERLOOKUP
  +--> ?CO?STATE_CLOCKSETTING
  +--> ?CO?STATE_TIMERSETTING
  +--> ?CO?STATE_TIMERFNSETTING
  +--> ?PR?_STATE_TRANSITIONTO?FSM
  +--> ?PR?PROTOCOL_ENTERATMODE?PROTOCOL

?CO?STATE_WORK                                   -----    -----      -----    -----
  +--> ?PR?_KEYACTIONDEAL?STATE_WORK
  +--> ?PR?_DISPLAYCONTROL?STATE_WORK
  +--> ?PR?_TASKEXE?STATE_WORK
  +--> ?PR?_TIMETICK?STATE_WORK
  +--> ?PR?_MOTORCTR?STATE_WORK
  +--> ?PR?_IRDATADEAL?STATE_WORK
  +--> ?PR?_RXDATADEAL?STATE_WORK
  +--> ?PR?_ENTEREVENTDEAL?STATE_WORK
  +--> ?PR?_EXITEVENTDEAL?STATE_WORK

?PR?_KEYACTIONDEAL?STATE_WORK                    -----    -----      -----    -----
  +--> ?PR?_STATE_TRANSITIONTO?FSM
  +--> ?PR?_BUZZ_SET?BUZZER

?PR?_STATE_TRANSITIONTO?FSM                      0020H.4  0000H.2    019CH    0002H

?PR?_DISPLAYCONTROL?STATE_WORK                   -----    -----      -----    -----
  +--> ?PR?_DISPLAY_SPLEVEL?DISPLAY
  +--> ?PR?DISPLAY_SETLINE?DISPLAY
  +--> ?PR?_DISPLAY_DUSTDATA?DISPLAY
  +--> ?PR?_DISPLAY_DUSTLEVEL?DISPLAY
  +--> ?PR?_DISPLAY_SHOWTEMPERATURE?DISPLAY
  +--> ?PR?_DISPLAY_SHOWHUMIDITY?DISPLAY
  +--> ?PR?_DISPLAY_SHOWRT?DISPLAY
  +--> ?PR?_DISPLAY_CIRCLERUN?DISPLAY
  +--> ?CO?SYSTEM

?PR?_DISPLAY_DUSTDATA?DISPLAY                    -----    -----      019BH    0003H
  +--> ?CO?DISPLAY

?PR?_DISPLAY_SHOWTEMPERATURE?DISPLAY             -----    -----      -----    -----
  +--> ?CO?DISPLAY

?PR?_DISPLAY_SHOWHUMIDITY?DISPLAY                -----    -----      -----    -----
  +--> ?CO?DISPLAY

?PR?_DISPLAY_SHOWRT?DISPLAY                      0020H.5  0000H.2    -----    -----
  +--> ?CO?DISPLAY

?PR?_TIMETICK?STATE_WORK                         -----    -----      019BH    0001H
  +--> ?PR?_STATE_TRANSITIONTO?FSM
  +--> ?PR?_BUZZ_SET?BUZZER
  +--> ?CO?SYSTEM

?PR?_MOTORCTR?STATE_WORK                         -----    -----      -----    -----
  +--> ?PR?MOTOR_STOP?MOTOR
  +--> ?PR?_MOTOR_RUN?MOTOR
BL51 BANKED LINKER/LOCATER V6.22                                                      10/09/2015  15:13:05  PAGE 9



?PR?_IRDATADEAL?STATE_WORK                       -----    -----      -----    -----
  +--> ?PR?_BUZZ_SET?BUZZER
  +--> ?PR?_STATE_TRANSITIONTO?FSM

?PR?_ENTEREVENTDEAL?STATE_WORK                   -----    -----      -----    -----
  +--> ?PR?DUST_DEVICEINIT?DUST

?CO?STATE_ECHECK                                 -----    -----      -----    -----
  +--> ?PR?_KEYACTIONDEAL?STATE_ECHECK
  +--> ?PR?_DISPLAYCONTROL?STATE_ECHECK
  +--> ?PR?_TASKEXE?STATE_ECHECK
  +--> ?PR?_TIMETICK?STATE_ECHECK
  +--> ?PR?_MOTORCTR?STATE_ECHECK
  +--> ?PR?_IRDATADEAL?STATE_ECHECK
  +--> ?PR?_RXDATADEAL?STATE_ECHECK
  +--> ?PR?_ENTEREVENTDEAL?STATE_ECHECK
  +--> ?PR?_EXITEVENTDEAL?STATE_ECHECK

?PR?_KEYACTIONDEAL?STATE_ECHECK                  -----    -----      -----    -----
  +--> ?PR?_BUZZ_SET?BUZZER

?PR?_DISPLAYCONTROL?STATE_ECHECK                 -----    -----      -----    -----
  +--> ?PR?_DISPLAY_SHOWNUMINRTCAREA?DISPLAY

?PR?_DISPLAY_SHOWNUMINRTCAREA?DISPLAY            -----    -----      019BH    0003H
  +--> ?CO?DISPLAY

?PR?_TIMETICK?STATE_ECHECK                       -----    -----      -----    -----
  +--> ?PR?_STATE_TRANSITIONTO?FSM

?PR?_MOTORCTR?STATE_ECHECK                       -----    -----      -----    -----
  +--> ?PR?MOTOR_STOP?MOTOR

?CO?STATE_TIMERLOOKUP                            -----    -----      -----    -----
  +--> ?PR?_KEYACTIONDEAL?STATE_TIMERLOOKUP
  +--> ?PR?_DISPLAYCONTROL?STATE_TIMERLOOKUP
  +--> ?PR?_TASKEXE?STATE_TIMERLOOKUP
  +--> ?PR?_TIMETICK?STATE_TIMERLOOKUP
  +--> ?PR?_MOTORCTR?STATE_TIMERLOOKUP
  +--> ?PR?_IRDATADEAL?STATE_TIMERLOOKUP
  +--> ?PR?_RXDATADEAL?STATE_TIMERLOOKUP
  +--> ?PR?_ENTEREVENTDEAL?STATE_TIMERLOOKUP
  +--> ?PR?_EXITEVENTDEAL?STATE_TIMERLOOKUP

?PR?_KEYACTIONDEAL?STATE_TIMERLOOKUP             -----    -----      -----    -----
  +--> ?PR?GETNEXTACTIVETIMERINDEX?STATE_TIM...
  +--> ?PR?_BUZZ_SET?BUZZER

?PR?GETNEXTACTIVETIMERINDEX?STATE_TIM...         -----    -----      -----    -----
  +--> ?CO?SYSTEM

?PR?_DISPLAYCONTROL?STATE_TIMERLOOKUP            -----    -----      -----    -----
  +--> ?PR?_DISPLAY_SHOWNUMINRTCAREA?DISPLAY
  +--> ?CO?SYSTEM
  +--> ?PR?_DISPLAY_SHOWRT?DISPLAY

BL51 BANKED LINKER/LOCATER V6.22                                                      10/09/2015  15:13:05  PAGE 10


?PR?_TIMETICK?STATE_TIMERLOOKUP                  -----    -----      -----    -----
  +--> ?PR?_STATE_TRANSITIONTO?FSM

?PR?_MOTORCTR?STATE_TIMERLOOKUP                  -----    -----      -----    -----
  +--> ?PR?MOTOR_STOP?MOTOR

?PR?_ENTEREVENTDEAL?STATE_TIMERLOOKUP            -----    -----      -----    -----
  +--> ?PR?GETNEXTACTIVETIMERINDEX?STATE_TIM...

?CO?STATE_CLOCKSETTING                           -----    -----      -----    -----
  +--> ?PR?_KEYACTIONDEAL?STATE_CLOCKSETTING
  +--> ?PR?_DISPLAYCONTROL?STATE_CLOCKSETTING
  +--> ?PR?_TASKEXE?STATE_CLOCKSETTING
  +--> ?PR?_TIMETICK?STATE_CLOCKSETTING
  +--> ?PR?_MOTORCTR?STATE_CLOCKSETTING
  +--> ?PR?_IRDATADEAL?STATE_CLOCKSETTING
  +--> ?PR?_RXDATADEAL?STATE_CLOCKSETTING
  +--> ?PR?_ENTEREVENTDEAL?STATE_CLOCKSETTING
  +--> ?PR?_EXITEVENTDEAL?STATE_CLOCKSETTING

?PR?_KEYACTIONDEAL?STATE_CLOCKSETTING            -----    -----      -----    -----
  +--> ?PR?HOURINC?STATE_CLOCKSETTING
  +--> ?PR?MININC?STATE_CLOCKSETTING
  +--> ?PR?HOURDEC?STATE_CLOCKSETTING
  +--> ?PR?MINDEC?STATE_CLOCKSETTING
  +--> ?PR?_BUZZ_SET?BUZZER

?PR?_DISPLAYCONTROL?STATE_CLOCKSETTING           -----    -----      -----    -----
  +--> ?PR?_DISPLAY_SHOWRT?DISPLAY

?PR?_TIMETICK?STATE_CLOCKSETTING                 -----    -----      -----    -----
  +--> ?PR?_STATE_TRANSITIONTO?FSM

?PR?_MOTORCTR?STATE_CLOCKSETTING                 -----    -----      -----    -----
  +--> ?PR?MOTOR_STOP?MOTOR

?CO?STATE_TIMERSETTING                           -----    -----      -----    -----
  +--> ?PR?_KEYACTIONDEAL?STATE_TIMERSETTING
  +--> ?PR?_DISPLAYCONTROL?STATE_TIMERSETTING
  +--> ?PR?_TASKEXE?STATE_TIMERSETTING
  +--> ?PR?_TIMETICK?STATE_TIMERSETTING
  +--> ?PR?_MOTORCTR?STATE_TIMERSETTING
  +--> ?PR?_IRDATADEAL?STATE_TIMERSETTING
  +--> ?PR?_RXDATADEAL?STATE_TIMERSETTING
  +--> ?PR?_ENTEREVENTDEAL?STATE_TIMERSETTING
  +--> ?PR?_EXITEVENTDEAL?STATE_TIMERSETTING

?PR?_KEYACTIONDEAL?STATE_TIMERSETTING            0020H.4  0000H.1    019BH    0003H
  +--> ?CO?SYSTEM
  +--> ?PR?_BUZZ_SET?BUZZER

?PR?_DISPLAYCONTROL?STATE_TIMERSETTING           0020H.4  0000H.1    -----    -----
  +--> ?PR?_DISPLAY_SHOWNUMINRTCAREA?DISPLAY
  +--> ?CO?SYSTEM
  +--> ?PR?_DISPLAY_SHOWRT?DISPLAY

?PR?_TIMETICK?STATE_TIMERSETTING                 -----    -----      -----    -----
BL51 BANKED LINKER/LOCATER V6.22                                                      10/09/2015  15:13:05  PAGE 11


  +--> ?PR?_STATE_TRANSITIONTO?FSM

?PR?_MOTORCTR?STATE_TIMERSETTING                 -----    -----      -----    -----
  +--> ?PR?MOTOR_STOP?MOTOR

?CO?STATE_TIMERFNSETTING                         -----    -----      -----    -----
  +--> ?PR?_KEYACTIONDEAL?STATE_TIMERFNSETTING
  +--> ?PR?_DISPLAYCONTROL?STATE_TIMERFNSETTING
  +--> ?PR?_TASKEXE?STATE_TIMERFNSETTING
  +--> ?PR?_TIMETICK?STATE_TIMERFNSETTING
  +--> ?PR?_MOTORCTR?STATE_TIMERFNSETTING
  +--> ?PR?_IRDATADEAL?STATE_TIMERFNSETTING
  +--> ?PR?_RXDATADEAL?STATE_TIMERFNSETTING
  +--> ?PR?_ENTEREVENTDEAL?STATE_TIMERFNSETTING
  +--> ?PR?_EXITEVENTDEAL?STATE_TIMERFNSETTING

?PR?_KEYACTIONDEAL?STATE_TIMERFNSETTING          -----    -----      -----    -----
  +--> ?PR?_BUZZ_SET?BUZZER

?PR?_TIMETICK?STATE_TIMERFNSETTING               -----    -----      -----    -----
  +--> ?PR?_STATE_TRANSITIONTO?FSM

?PR?_MOTORCTR?STATE_TIMERFNSETTING               -----    -----      -----    -----
  +--> ?PR?MOTOR_STOP?MOTOR

?PR?PROTOCOL_ENTERATMODE?PROTOCOL                -----    -----      -----    -----
  +--> ?PR?_ENQUEUE?FIFO
  +--> ?PR?UART_SENDSTARTUP?UART

?PR?_ENQUEUE?FIFO                                -----    -----      01A0H    0004H
  +--> ?PR?_QUEUEISFULL?FIFO

?PR?_QUEUEISFULL?FIFO                            -----    -----      01A4H    0003H

?PR?UART_SENDSTARTUP?UART                        -----    -----      -----    -----
  +--> ?PR?_QUEUELEN?FIFO
  +--> ?PR?_DEQUEUE?FIFO

?PR?_DEQUEUE?FIFO                                -----    -----      01A0H    0004H
  +--> ?PR?_QUEUEISEMPTY?FIFO

?PR?_DISPLAYCONTROL?STATE_STANDBY                -----    -----      -----    -----
  +--> ?PR?_DISPLAY_DUSTDATA?DISPLAY
  +--> ?PR?_DISPLAY_SHOWRT?DISPLAY

?PR?_TIMETICK?STATE_STANDBY                      -----    -----      -----    -----
  +--> ?PR?PROTOCOL_RESETWIFIMODE?PROTOCOL
  +--> ?CO?SYSTEM
  +--> ?PR?_BUZZ_SET?BUZZER
  +--> ?CO?STATE_WORK
  +--> ?PR?_STATE_TRANSITIONTO?FSM

?PR?PROTOCOL_RESETWIFIMODE?PROTOCOL              -----    -----      -----    -----
  +--> ?PR?_ENQUEUE?FIFO
  +--> ?PR?UART_SENDSTARTUP?UART

?PR?_MOTORCTR?STATE_STANDBY                      -----    -----      -----    -----
BL51 BANKED LINKER/LOCATER V6.22                                                      10/09/2015  15:13:05  PAGE 12


  +--> ?PR?MOTOR_STOP?MOTOR

?PR?_IRDATADEAL?STATE_STANDBY                    -----    -----      -----    -----
  +--> ?PR?_BUZZ_SET?BUZZER
  +--> ?CO?STATE_WORK
  +--> ?PR?_STATE_TRANSITIONTO?FSM

?PR?_ENTEREVENTDEAL?STATE_STANDBY                -----    -----      -----    -----
  +--> ?PR?SYS_UPDATETIMERONINDEX?SYSTEM

?PR?SYS_UPDATETIMERONINDEX?SYSTEM                -----    -----      019BH    0005H
  +--> ?CO?SYSTEM

?PR?_MOTORCTR?STATE_STARTUP                      -----    -----      -----    -----
  +--> ?PR?MOTOR_STOP?MOTOR

*** NEW ROOT ***************************************************

?PR?INT_BIT?IT                                   -----    -----      -----    -----
  +--> ?PR?DISPLAY_LEDDRIVE?DISPLAY

?PR?DISPLAY_LEDDRIVE?DISPLAY                     0020H.4  0000H.1    -----    -----

*** NEW ROOT ***************************************************

?C_C51STARTUP                                    -----    -----      -----    -----
  +--> ?PR?MAIN?MAIN
  +--> ?C_INITSEG

?PR?MAIN?MAIN                                    -----    -----      -----    -----
  +--> ?PR?INITALL?MAIN
  +--> ?PR?UART_RXDATSDEAL?UART
  +--> ?PR?_UTILS_GETADVALUE?HUMIDITY
  +--> ?PR?KEY_ACTIONDETECT?KEY
  +--> ?PR?DISPLAY_LEDDRIVE?DISPLAY
  +--> ?PR?BUZZ_CTR?BUZZER
  +--> ?PR?DUST_DATAUPDATE?DUST
  +--> ?PR?MOTOR_CTR?MOTOR
  +--> ?PR?SYS_LOADCTR?SYSTEM
  +--> ?PR?SYS_ENTERSTOPMODE?SYSTEM
  +--> ?PR?DISPLAY_CTR?DISPLAY
  +--> ?PR?HUMIDITY_GETCURRENTT?HUMIDITY
  +--> ?PR?HUMIDITY_GETCURRENTH?HUMIDITY
  +--> ?PR?DUST_LEVELUPDATE?DUST

?PR?UART_RXDATSDEAL?UART                         -----    -----      -----    -----
  +--> ?PR?PROTOCOL_TASK?PROTOCOL

?PR?PROTOCOL_TASK?PROTOCOL                       -----    -----      0197H    0004H
  +--> ?PR?CMD_DUMMY_DEAL?PROTOCOL
  +--> ?CO?PROTOCOL

?CO?PROTOCOL                                     -----    -----      -----    -----
  +--> ?PR?CMD_GET_SYS_STA_DEAL?PROTOCOL
  +--> ?PR?CMD_POWER_CTR_DEAL?PROTOCOL
  +--> ?PR?CMD_FAN_CTR_DEAL?PROTOCOL
  +--> ?PR?CMD_FIX_CTR_DEAL?PROTOCOL
BL51 BANKED LINKER/LOCATER V6.22                                                      10/09/2015  15:13:05  PAGE 13


  +--> ?PR?CMD_CLEAN_CTR_DEAL?PROTOCOL
  +--> ?PR?CMD_AION_CTR_DEAL?PROTOCOL
  +--> ?PR?CMD_UV_CTR_DEAL?PROTOCOL
  +--> ?PR?CMD_TIMER_CTR_DEAL?PROTOCOL
  +--> ?PR?CMD_GET_PM_DATAS_DEAL?PROTOCOL
  +--> ?PR?CMD_GET_ENE_DATAS_DEAL?PROTOCOL
  +--> ?PR?CMD_RT_SET_DEAL?PROTOCOL
  +--> ?PR?CMD_MEM_SET_DEAL?PROTOCOL
  +--> ?PR?CMD_REST_DEAL?PROTOCOL
  +--> ?PR?CMD_GET_DEVICE_INFO_DEAL?PROTOCOL
  +--> ?PR?CMD_WIFI_STA_CHANGE_DEAL?PROTOCOL

?PR?CMD_GET_SYS_STA_DEAL?PROTOCOL                -----    -----      -----    -----
  +--> ?PR?_PROTOCOL_STARESP?PROTOCOL

?PR?_PROTOCOL_STARESP?PROTOCOL                   -----    -----      019BH    0002H
  +--> ?PR?_ENQUEUE?FIFO
  +--> ?PR?UART_SENDSTARTUP?UART

?PR?CMD_POWER_CTR_DEAL?PROTOCOL                  -----    -----      -----    -----
  +--> ?CO?STATE_WORK
  +--> ?CO?STATE_STANDBY
  +--> ?PR?_STATE_TRANSITIONTO?FSM
  +--> ?PR?_BUZZ_SET?BUZZER
  +--> ?PR?_PROTOCOL_STARESP?PROTOCOL

?PR?CMD_FAN_CTR_DEAL?PROTOCOL                    -----    -----      -----    -----
  +--> ?PR?_BUZZ_SET?BUZZER
  +--> ?PR?_PROTOCOL_STARESP?PROTOCOL

?PR?CMD_FIX_CTR_DEAL?PROTOCOL                    -----    -----      -----    -----
  +--> ?PR?_BUZZ_SET?BUZZER
  +--> ?PR?_PROTOCOL_STARESP?PROTOCOL

?PR?CMD_CLEAN_CTR_DEAL?PROTOCOL                  -----    -----      -----    -----
  +--> ?PR?_BUZZ_SET?BUZZER
  +--> ?PR?_PROTOCOL_STARESP?PROTOCOL

?PR?CMD_AION_CTR_DEAL?PROTOCOL                   -----    -----      -----    -----
  +--> ?PR?_BUZZ_SET?BUZZER
  +--> ?PR?_PROTOCOL_STARESP?PROTOCOL

?PR?CMD_UV_CTR_DEAL?PROTOCOL                     -----    -----      -----    -----
  +--> ?PR?_BUZZ_SET?BUZZER
  +--> ?PR?_PROTOCOL_STARESP?PROTOCOL

?PR?CMD_TIMER_CTR_DEAL?PROTOCOL                  -----    -----      -----    -----
  +--> ?PR?SYS_UPDATETIMERONINDEX?SYSTEM
  +--> ?PR?_BUZZ_SET?BUZZER
  +--> ?PR?_PROTOCOL_STARESP?PROTOCOL

?PR?CMD_GET_PM_DATAS_DEAL?PROTOCOL               -----    -----      019BH    0005H
  +--> ?PR?_ENQUEUE?FIFO
  +--> ?PR?_BUZZ_SET?BUZZER
  +--> ?PR?UART_SENDSTARTUP?UART

?PR?CMD_GET_ENE_DATAS_DEAL?PROTOCOL              -----    -----      019BH    0002H
BL51 BANKED LINKER/LOCATER V6.22                                                      10/09/2015  15:13:05  PAGE 14


  +--> ?PR?_ENQUEUE?FIFO
  +--> ?PR?_BUZZ_SET?BUZZER
  +--> ?PR?UART_SENDSTARTUP?UART

?PR?CMD_RT_SET_DEAL?PROTOCOL                     -----    -----      -----    -----
  +--> ?PR?_BUZZ_SET?BUZZER
  +--> ?PR?_PROTOCOL_STARESP?PROTOCOL

?PR?CMD_MEM_SET_DEAL?PROTOCOL                    -----    -----      -----    -----
  +--> ?CO?STATE_STANDBY
  +--> ?PR?_STATE_TRANSITIONTO?FSM
  +--> ?PR?_BUZZ_SET?BUZZER
  +--> ?PR?_PROTOCOL_STARESP?PROTOCOL

?PR?CMD_REST_DEAL?PROTOCOL                       -----    -----      -----    -----
  +--> ?PR?_BUZZ_SET?BUZZER
  +--> ?PR?_PROTOCOL_STARESP?PROTOCOL

?PR?CMD_GET_DEVICE_INFO_DEAL?PROTOCOL            -----    -----      019BH    0001H
  +--> ?PR?_ENQUEUE?FIFO
  +--> ?PR?UART_SENDSTARTUP?UART

?PR?KEY_ACTIONDETECT?KEY                         -----    -----      0197H    0001H
  +--> ?PR?KEY_READ?KEY

?PR?DUST_DATAUPDATE?DUST                         -----    -----      -----    -----
  +--> ?PR?DUST_GETRTLEVEL?DUST

?PR?MOTOR_CTR?MOTOR                              -----    -----      0197H    0006H

?PR?DISPLAY_CTR?DISPLAY                          -----    -----      -----    -----
  +--> ?PR?_DISPLAY_SETALL?DISPLAY
  +--> ?PR?_AIP1944_WRITEDISPDATAS?AIP1944

?PR?_AIP1944_WRITEDISPDATAS?AIP1944              -----    -----      0197H    0005H
  +--> ?PR?_AIP1944_WRITEBYTE?AIP1944

?PR?HUMIDITY_GETCURRENTT?HUMIDITY                -----    -----      -----    -----
  +--> ?PR?_UTILS_GETADVALUE?HUMIDITY
  +--> ?PR?_HUMIDITY_AD2T?HUMIDITY

?PR?HUMIDITY_GETCURRENTH?HUMIDITY                -----    -----      0197H    0001H
  +--> ?PR?_HUMIDITY_AD2H?HUMIDITY

?PR?DUST_LEVELUPDATE?DUST                        -----    -----      -----    -----
  +--> ?PR?DUST_GETRTLEVEL?DUST

?C_INITSEG                                       -----    -----      -----    -----
  +--> ?CO?FSM

?CO?FSM                                          -----    -----      -----    -----
  +--> ?PR?TASK_DONOTHING?FSM



SYMBOL TABLE OF MODULE:  YTN-E608-WIFI-6432 (IT)

BL51 BANKED LINKER/LOCATER V6.22                                                      10/09/2015  15:13:05  PAGE 15


  VALUE           TYPE          NAME
  ----------------------------------

  -------         MODULE        IT
  C:0000H         SYMBOL        _ICE_DUMMY_
  D:0080H         PUBLIC        P0
  C:4AF9H         PUBLIC        INT_Timer0
  D:0088H         PUBLIC        P1
  D:0090H         PUBLIC        P2
  D:0098H         PUBLIC        P3
  D:00A0H         PUBLIC        P4
  D:00B0H         PUBLIC        P5
  D:008DH         PUBLIC        WDTCR
  D:00A8H         PUBLIC        IE
  D:00B2H         PUBLIC        T0CR
  C:3989H         PUBLIC        INT_USI1_Rx
  C:3C12H         PUBLIC        INT_USI1_Tx
  C:20AFH         PUBLIC        INT_BIT
  D:0087H         PUBLIC        PCON
  B:0090H.2       PUBLIC        P22
  B:0090H.3       PUBLIC        P23
  D:00F5H         PUBLIC        USI1DR
  D:00ABH         PUBLIC        IE3
  X:01DDH         PUBLIC        SysTick_4ms
  X:01DEH         SYMBOL        pgCntH
  I:0011H         PUBLIC        SquGen_Cnt
  D:00B3H         PUBLIC        T0CNT
  I:0012H         SYMBOL        IR_Flags
  D:00EAH         PUBLIC        USI1CR2
  C:2BAAH         PUBLIC        INT_WT
  -------         PROC          INT_USI1_RX
  -------         DO            
  D:0007H         SYMBOL        len
  -------         ENDDO         
  C:3989H         LINE#         7
  C:39A6H         LINE#         12
  C:39ACH         LINE#         15
  C:39C7H         LINE#         16
  C:39EEH         LINE#         19
  C:3A12H         LINE#         20
  C:3A18H         LINE#         21
  C:3A18H         LINE#         22
  C:3A1AH         LINE#         23
  C:3A1AH         LINE#         24
  -------         ENDPROC       INT_USI1_RX
  -------         PROC          INT_USI1_TX
  C:3C12H         LINE#         26
  C:3C2FH         LINE#         31
  C:3C4AH         LINE#         32
  C:3C71H         LINE#         35
  C:3C81H         LINE#         36
  C:3C81H         LINE#         37
  C:3C83H         LINE#         38
  C:3C86H         LINE#         39
  C:3C86H         LINE#         40
  -------         ENDPROC       INT_USI1_TX
  -------         PROC          INT_TIMER0
BL51 BANKED LINKER/LOCATER V6.22                                                      10/09/2015  15:13:05  PAGE 16


  C:4AF9H         LINE#         43
  C:4AFFH         LINE#         46
  C:4B05H         LINE#         47
  -------         ENDPROC       INT_TIMER0
  -------         PROC          INT_WT
  -------         DO            
  X:01DBH         SYMBOL        rt_05sCnt
  X:01DCH         SYMBOL        clearMemoryDataCnt
  -------         ENDDO         
  C:2BAAH         LINE#         51
  C:2BC7H         LINE#         58
  C:2BDCH         LINE#         59
  C:2BDFH         LINE#         60
  C:2BE4H         LINE#         62
  C:2BEEH         LINE#         63
  C:2BEEH         LINE#         64
  C:2BF0H         LINE#         65
  C:2BF2H         LINE#         66
  C:2C01H         LINE#         67
  C:2C01H         LINE#         68
  C:2C03H         LINE#         69
  C:2C03H         LINE#         71
  C:2C05H         LINE#         74
  C:2C07H         LINE#         77
  C:2C0DH         LINE#         78
  C:2C13H         LINE#         79
  C:2C13H         LINE#         80
  C:2C15H         LINE#         82
  C:2C1BH         LINE#         84
  C:2C21H         LINE#         85
  C:2C26H         LINE#         86
  C:2C26H         LINE#         87
  C:2C28H         LINE#         89
  C:2C2AH         LINE#         91
  C:2C30H         LINE#         92
  C:2C35H         LINE#         93
  C:2C35H         LINE#         94
  C:2C37H         LINE#         96
  C:2C3DH         LINE#         97
  C:2C42H         LINE#         98
  C:2C42H         LINE#         99
  C:2C44H         LINE#         100
  C:2C44H         LINE#         101
  C:2C44H         LINE#         102
  C:2C44H         LINE#         103
  C:2C44H         LINE#         106
  C:2C47H         LINE#         108
  C:2C4CH         LINE#         109
  C:2C4CH         LINE#         111
  C:2C4FH         LINE#         112
  C:2C53H         LINE#         113
  C:2C57H         LINE#         115
  C:2C5AH         LINE#         116
  C:2C5DH         LINE#         117
  C:2C60H         LINE#         119
  C:2C63H         LINE#         120
  C:2C66H         LINE#         121
BL51 BANKED LINKER/LOCATER V6.22                                                      10/09/2015  15:13:05  PAGE 17


  C:2C69H         LINE#         122
  C:2C6CH         LINE#         123
  C:2C6FH         LINE#         124
  C:2C72H         LINE#         128
  C:2C78H         LINE#         129
  C:2C7EH         LINE#         130
  C:2C7EH         LINE#         131
  C:2C81H         LINE#         132
  C:2C83H         LINE#         133
  C:2C83H         LINE#         134
  C:2C85H         LINE#         136
  C:2C85H         LINE#         137
  C:2C8BH         LINE#         138
  C:2C8BH         LINE#         139
  C:2C8EH         LINE#         140
  C:2C8EH         LINE#         142
  C:2C93H         LINE#         143
  C:2C93H         LINE#         144
  -------         ENDPROC       INT_WT
  -------         PROC          INT_BIT
  -------         DO            
  I:0008H         SYMBOL        t_128usCnt
  I:0009H         SYMBOL        rx_mode
  I:000AH         SYMBOL        rxCount
  I:000CH         SYMBOL        dataCount
  I:000DH         SYMBOL        rxData
  I:000FH         SYMBOL        Dust_SignalLowHoldCnt
  -------         ENDDO         
  C:20AFH         LINE#         171
  C:20CCH         LINE#         184
  C:20D1H         LINE#         185
  C:20D1H         LINE#         186
  C:20D7H         LINE#         187
  C:20DAH         LINE#         189
  C:20E3H         LINE#         190
  C:20E3H         LINE#         191
  C:20E6H         LINE#         192
  C:20E9H         LINE#         195
  C:20EFH         LINE#         196
  C:20EFH         LINE#         198
  C:20FEH         LINE#         199
  C:20FEH         LINE#         200
  C:2101H         LINE#         201
  C:2105H         LINE#         202
  C:210BH         LINE#         203
  C:2112H         LINE#         204
  C:2112H         LINE#         205
  C:2114H         LINE#         207
  C:2119H         LINE#         208
  C:2119H         LINE#         209
  C:2126H         LINE#         211
  C:2132H         LINE#         212
  C:2132H         LINE#         213
  C:2138H         LINE#         214
  C:2138H         LINE#         215
  C:213FH         LINE#         217
  C:2141H         LINE#         219
BL51 BANKED LINKER/LOCATER V6.22                                                      10/09/2015  15:13:05  PAGE 18


  C:2147H         LINE#         220
  C:2147H         LINE#         221
  C:2154H         LINE#         223
  C:2158H         LINE#         224
  C:215EH         LINE#         225
  C:2161H         LINE#         227
  C:2163H         LINE#         228
  C:2163H         LINE#         229
  C:2165H         LINE#         231
  C:216BH         LINE#         232
  C:216BH         LINE#         233
  C:2177H         LINE#         234
  C:2177H         LINE#         235
  C:217AH         LINE#         236
  C:2180H         LINE#         237
  C:2183H         LINE#         238
  C:2183H         LINE#         239
  C:2183H         LINE#         240
  C:2183H         LINE#         242
  C:218AH         LINE#         243
  C:218AH         LINE#         244
  C:2192H         LINE#         246
  C:219EH         LINE#         247
  C:219EH         LINE#         248
  C:21A3H         LINE#         249
  C:21A9H         LINE#         250
  C:21ADH         LINE#         251
  C:21B2H         LINE#         252
  C:21B2H         LINE#         253
  C:21B2H         LINE#         256
  C:21B5H         LINE#         257
  C:21BBH         LINE#         258
  C:21BBH         LINE#         259
  C:21BDH         LINE#         260
  C:21BFH         LINE#         261
  C:21C1H         LINE#         262
  C:21C9H         LINE#         263
  C:21C9H         LINE#         264
  C:21CBH         LINE#         265
  C:21CDH         LINE#         266
  C:21D1H         LINE#         267
  C:21D1H         LINE#         268
  C:21D3H         LINE#         269
  C:21D3H         LINE#         270
  C:21D3H         LINE#         273
  C:21D8H         LINE#         274
  C:21D8H         LINE#         275
  C:21E2H         LINE#         276
  C:21E2H         LINE#         277
  C:21EAH         LINE#         278
  C:21ECH         LINE#         279
  C:21ECH         LINE#         280
  C:21F3H         LINE#         281
  C:21F5H         LINE#         283
  C:21F5H         LINE#         284
  C:21FDH         LINE#         285
  C:21FDH         LINE#         290
BL51 BANKED LINKER/LOCATER V6.22                                                      10/09/2015  15:13:05  PAGE 19


  C:2200H         LINE#         291
  C:2206H         LINE#         292
  C:2206H         LINE#         293
  C:2208H         LINE#         295
  C:220EH         LINE#         297
  C:2213H         LINE#         299
  C:2219H         LINE#         300
  C:2219H         LINE#         301
  C:221CH         LINE#         302
  C:221FH         LINE#         303
  C:221FH         LINE#         304
  C:2221H         LINE#         305
  C:2221H         LINE#         306
  C:2221H         LINE#         307
  C:2221H         LINE#         309
  C:2224H         LINE#         310
  C:2224H         LINE#         311
  C:222CH         LINE#         312
  C:222CH         LINE#         313
  C:222FH         LINE#         314
  C:222FH         LINE#         315
  C:222FH         LINE#         316
  -------         ENDPROC       INT_BIT
  -------         ENDMOD        IT

  -------         MODULE        ?C_STARTUP
  C:3B78H         SEGMENT       ?C_C51STARTUP
  I:0024H         SEGMENT       ?STACK
  C:0000H         PUBLIC        ?C_STARTUP
  D:00E0H         SYMBOL        ACC
  D:00F0H         SYMBOL        B
  D:0083H         SYMBOL        DPH
  D:0082H         SYMBOL        DPL
  N:0000H         SYMBOL        IBPSTACK
  N:0100H         SYMBOL        IBPSTACKTOP
  N:0100H         SYMBOL        IDATALEN
  C:3B7BH         SYMBOL        IDATALOOP
  N:0000H         SYMBOL        PBPSTACK
  N:0000H         SYMBOL        PBPSTACKTOP
  N:0000H         SYMBOL        PDATALEN
  N:0000H         SYMBOL        PDATASTART
  N:0000H         SYMBOL        PPAGE
  N:0000H         SYMBOL        PPAGEENABLE
  D:00A0H         SYMBOL        PPAGE_SFR
  D:0081H         SYMBOL        SP
  C:3B78H         SYMBOL        STARTUP1
  N:0000H         SYMBOL        XBPSTACK
  N:0000H         SYMBOL        XBPSTACKTOP
  N:02E5H         SYMBOL        XDATALEN
  C:3B86H         SYMBOL        XDATALOOP
  N:001BH         SYMBOL        XDATASTART
  C:0000H         LINE#         94
  C:3B78H         LINE#         101
  C:3B7AH         LINE#         102
  C:3B7BH         LINE#         103
  C:3B7CH         LINE#         104
  C:3B7EH         LINE#         108
BL51 BANKED LINKER/LOCATER V6.22                                                      10/09/2015  15:13:05  PAGE 20


  C:3B81H         LINE#         109
  C:3B83H         LINE#         111
  C:3B85H         LINE#         115
  C:3B86H         LINE#         116
  C:3B87H         LINE#         117
  C:3B88H         LINE#         118
  C:3B8AH         LINE#         119
  C:3B8CH         LINE#         153
  C:3B8FH         LINE#         157
  -------         ENDMOD        ?C_STARTUP

  -------         MODULE        MAIN
  C:0000H         SYMBOL        _ICE_DUMMY_
  D:008DH         PUBLIC        WDTCR
  D:00A8H         PUBLIC        IE
  C:3458H         PUBLIC        main
  C:45D4H         PUBLIC        initAll
  -------         PROC          INITALL
  C:45D4H         LINE#         3
  C:45D4H         LINE#         4
  C:45D4H         LINE#         5
  C:45D7H         LINE#         6
  C:45DAH         LINE#         7
  C:45DDH         LINE#         8
  C:45E0H         LINE#         9
  C:45E3H         LINE#         10
  C:45E6H         LINE#         12
  C:45ECH         LINE#         14
  C:45F7H         LINE#         17
  C:4600H         LINE#         19
  C:4603H         LINE#         20
  -------         ENDPROC       INITALL
  -------         PROC          MAIN
  -------         DO            
  I:0013H         SYMBOL        taskIndex
  I:0014H         SYMBOL        taskIndexExt
  I:0015H         SYMBOL        HSampleT_Cnt
  -------         ENDDO         
  C:3458H         LINE#         22
  C:3458H         LINE#         23
  C:3458H         LINE#         29
  C:345BH         LINE#         31
  C:345BH         LINE#         32
  C:345BH         LINE#         33
  C:345EH         LINE#         35
  C:3461H         LINE#         37
  C:3469H         LINE#         38
  C:3469H         LINE#         39
  C:3470H         LINE#         40
  C:3470H         LINE#         41
  C:3479H         LINE#         42
  C:347DH         LINE#         43
  C:347DH         LINE#         44
  C:347DH         LINE#         46
  C:3483H         LINE#         47
  C:3483H         LINE#         48
  C:3485H         LINE#         50
BL51 BANKED LINKER/LOCATER V6.22                                                      10/09/2015  15:13:05  PAGE 21


  C:3488H         LINE#         51
  C:3488H         LINE#         52
  C:348AH         LINE#         54
  C:34A4H         LINE#         55
  C:34A4H         LINE#         57
  C:34A7H         LINE#         58
  C:34A9H         LINE#         60
  C:34ABH         LINE#         62
  C:34BFH         LINE#         63
  C:34BFH         LINE#         64
  C:34BFH         LINE#         65
  C:34C2H         LINE#         66
  C:34C7H         LINE#         67
  C:34C9H         LINE#         68
  C:34C9H         LINE#         69
  C:34CCH         LINE#         70
  C:34CEH         LINE#         71
  C:34CEH         LINE#         72
  C:34D1H         LINE#         73
  C:34D3H         LINE#         74
  C:34D3H         LINE#         75
  C:34D6H         LINE#         76
  C:34D8H         LINE#         77
  C:34D8H         LINE#         78
  C:34DBH         LINE#         79
  C:34DEH         LINE#         80
  C:34DEH         LINE#         81
  C:34E2H         LINE#         83
  C:34E2H         LINE#         84
  C:34E2H         LINE#         86
  C:34EDH         LINE#         87
  C:34EDH         LINE#         88
  C:34EFH         LINE#         90
  C:34F2H         LINE#         92
  C:34F5H         LINE#         93
  C:34F8H         LINE#         94
  C:34FBH         LINE#         96
  C:3515H         LINE#         98
  C:351BH         LINE#         99
  C:351BH         LINE#         100
  C:351EH         LINE#         101
  C:351EH         LINE#         103
  C:3524H         LINE#         104
  C:3524H         LINE#         105
  C:3526H         LINE#         106
  C:3526H         LINE#         107
  C:3526H         LINE#         108
  C:3526H         LINE#         109
  -------         ENDPROC       MAIN
  -------         ENDMOD        MAIN

  -------         MODULE        BSP_INIT
  C:0000H         SYMBOL        _ICE_DUMMY_
  D:0080H         PUBLIC        P0
  D:0088H         PUBLIC        P1
  D:0090H         PUBLIC        P2
  D:0098H         PUBLIC        P3
BL51 BANKED LINKER/LOCATER V6.22                                                      10/09/2015  15:13:05  PAGE 22


  D:00A0H         PUBLIC        P4
  D:00B0H         PUBLIC        P5
  D:008DH         PUBLIC        WDTCR
  C:4BFBH         SYMBOL        WDT_init
  D:008EH         PUBLIC        WDTDR
  D:00DEH         PUBLIC        P0DB
  D:0097H         PUBLIC        BUZCR
  C:4C2CH         SYMBOL        BUZ_init
  D:008FH         PUBLIC        BUZDR
  D:00D8H         PUBLIC        LVRCR
  D:00A8H         PUBLIC        IE
  D:0091H         PUBLIC        P0OD
  D:0092H         PUBLIC        P1OD
  D:0093H         PUBLIC        P2OD
  D:0094H         PUBLIC        P4OD
  D:00A1H         PUBLIC        P0IO
  D:00B2H         PUBLIC        T0CR
  D:00B1H         PUBLIC        P1IO
  D:00B4H         PUBLIC        T0DR
  D:00B9H         PUBLIC        P2IO
  D:00C1H         PUBLIC        P3IO
  D:00C9H         PUBLIC        P4IO
  D:00D1H         PUBLIC        P5IO
  C:4C33H         SYMBOL        clock_init
  D:00BDH         PUBLIC        T1ADRH
  D:00ACH         PUBLIC        P0PU
  D:009DH         PUBLIC        ADCCRH
  D:00BFH         PUBLIC        T1BDRH
  D:00ADH         PUBLIC        P1PU
  D:00AEH         PUBLIC        P2PU
  D:00AFH         PUBLIC        P3PU
  D:00F3H         PUBLIC        USI1BD
  D:00BCH         PUBLIC        T1ADRL
  D:00A3H         PUBLIC        P4PU
  D:009CH         PUBLIC        ADCCRL
  D:00BEH         PUBLIC        T1BDRL
  D:0095H         PUBLIC        P5PU
  D:008AH         PUBLIC        SCCR
  C:4B0CH         SYMBOL        _BUZ_OnOff
  D:009BH         PUBLIC        LCDCCR
  D:009AH         PUBLIC        LCDCRH
  D:00D3H         PUBLIC        P0FSRH
  D:0099H         PUBLIC        LCDCRL
  D:00D5H         PUBLIC        P1FSRH
  D:00D7H         PUBLIC        P2FSRH
  D:00D2H         PUBLIC        P0FSRL
  D:00D4H         PUBLIC        P1FSRL
  D:00D6H         PUBLIC        P2FSRL
  D:00DFH         PUBLIC        P15DB
  D:00AAH         PUBLIC        IE2
  D:00ABH         PUBLIC        IE3
  D:0096H         PUBLIC        WTCR
  C:4BC4H         SYMBOL        WT_init
  D:0089H         PUBLIC        WTDR
  C:4BB7H         SYMBOL        Timer0_init
  C:0003H         SYMBOL        Timer1_init
  C:4A50H         SYMBOL        UART_init
BL51 BANKED LINKER/LOCATER V6.22                                                      10/09/2015  15:13:05  PAGE 23


  C:4C40H         SYMBOL        WDT_clear
  C:4B60H         SYMBOL        _ADC_start
  C:4604H         PUBLIC        BSP_Init
  C:416FH         SYMBOL        port_init
  C:4C25H         SYMBOL        ADC_init
  D:00BBH         PUBLIC        T1CRH
  D:00BAH         PUBLIC        T1CRL
  C:4C0DH         SYMBOL        LCD_init
  D:00E9H         PUBLIC        USI1CR1
  D:00EAH         PUBLIC        USI1CR2
  D:00EBH         PUBLIC        USI1CR3
  D:00EEH         PUBLIC        P3FSR
  D:00EFH         PUBLIC        P4FSR
  D:00FFH         PUBLIC        P5FSR
  D:008BH         PUBLIC        BITCR
  C:00A6H         SYMBOL        BIT_init
  D:00C8H         PUBLIC        OSCCR
  -------         PROC          ADC_INIT
  C:4C25H         LINE#         4
  C:4C25H         LINE#         5
  C:4C25H         LINE#         7
  C:4C28H         LINE#         8
  C:4C2BH         LINE#         9
  -------         ENDPROC       ADC_INIT
  -------         PROC          _ADC_START
  D:0007H         SYMBOL        ch
  C:4B60H         LINE#         11
  C:4B60H         LINE#         12
  C:4B60H         LINE#         14
  C:4B6BH         LINE#         15
  C:4B6EH         LINE#         16
  -------         ENDPROC       _ADC_START
  -------         PROC          BIT_INIT
  C:00A6H         LINE#         18
  C:00A6H         LINE#         19
  C:00A6H         LINE#         21
  C:00A9H         LINE#         22
  C:00ACH         LINE#         23
  C:00AFH         LINE#         24
  C:00B2H         LINE#         25
  -------         ENDPROC       BIT_INIT
  -------         PROC          _BUZ_ONOFF
  D:0007H         SYMBOL        On
  C:4B0CH         LINE#         27
  C:4B0CH         LINE#         28
  C:4B0CH         LINE#         30
  C:4B1DH         LINE#         31
  -------         ENDPROC       _BUZ_ONOFF
  -------         PROC          BUZ_INIT
  C:4C2CH         LINE#         33
  C:4C2CH         LINE#         34
  C:4C2CH         LINE#         37
  C:4C2FH         LINE#         38
  C:4C32H         LINE#         39
  -------         ENDPROC       BUZ_INIT
  -------         PROC          LCD_INIT
  C:4C0DH         LINE#         41
BL51 BANKED LINKER/LOCATER V6.22                                                      10/09/2015  15:13:05  PAGE 24


  C:4C0DH         LINE#         42
  C:4C0DH         LINE#         45
  C:4C10H         LINE#         46
  C:4C12H         LINE#         47
  C:4C14H         LINE#         48
  -------         ENDPROC       LCD_INIT
  -------         PROC          TIMER0_INIT
  C:4BB7H         LINE#         50
  C:4BB7H         LINE#         51
  C:4BB7H         LINE#         54
  C:4BBAH         LINE#         55
  C:4BBDH         LINE#         56
  C:4BC0H         LINE#         57
  C:4BC3H         LINE#         58
  -------         ENDPROC       TIMER0_INIT
  -------         PROC          TIMER1_INIT
  C:0003H         LINE#         60
  C:0003H         LINE#         61
  C:0003H         LINE#         65
  C:0006H         LINE#         66
  C:0009H         LINE#         67
  C:000CH         LINE#         70
  C:000FH         LINE#         71
  C:0011H         LINE#         72
  C:0014H         LINE#         73
  C:0017H         LINE#         74
  C:001AH         LINE#         75
  -------         ENDPROC       TIMER1_INIT
  -------         PROC          UART_INIT
  C:4A50H         LINE#         77
  C:4A50H         LINE#         78
  C:4A50H         LINE#         81
  C:4A53H         LINE#         82
  C:4A56H         LINE#         83
  C:4A59H         LINE#         84
  C:4A5CH         LINE#         85
  C:4A5FH         LINE#         86
  C:4A62H         LINE#         87
  C:4A65H         LINE#         88
  -------         ENDPROC       UART_INIT
  -------         PROC          WDT_CLEAR
  C:4C40H         LINE#         90
  C:4C40H         LINE#         91
  C:4C40H         LINE#         92
  C:4C43H         LINE#         93
  -------         ENDPROC       WDT_CLEAR
  -------         PROC          WDT_INIT
  C:4BFBH         LINE#         95
  C:4BFBH         LINE#         96
  C:4BFBH         LINE#         98
  C:4BFEH         LINE#         99
  C:4C01H         LINE#         101
  -------         ENDPROC       WDT_INIT
  -------         PROC          WT_INIT
  C:4BC4H         LINE#         104
  C:4BC4H         LINE#         105
  C:4BC4H         LINE#         107
BL51 BANKED LINKER/LOCATER V6.22                                                      10/09/2015  15:13:05  PAGE 25


  C:4BC7H         LINE#         108
  C:4BCAH         LINE#         109
  C:4BCDH         LINE#         110
  C:4BD0H         LINE#         111
  -------         ENDPROC       WT_INIT
  -------         PROC          CLOCK_INIT
  C:4C33H         LINE#         113
  C:4C33H         LINE#         114
  C:4C33H         LINE#         116
  C:4C36H         LINE#         117
  C:4C39H         LINE#         118
  -------         ENDPROC       CLOCK_INIT
  -------         PROC          PORT_INIT
  C:416FH         LINE#         120
  C:416FH         LINE#         121
  C:416FH         LINE#         158
  C:4172H         LINE#         159
  C:4175H         LINE#         160
  C:4178H         LINE#         161
  C:417AH         LINE#         162
  C:417CH         LINE#         164
  C:417FH         LINE#         165
  C:4181H         LINE#         166
  C:4183H         LINE#         167
  C:4185H         LINE#         168
  C:4187H         LINE#         170
  C:418AH         LINE#         171
  C:418DH         LINE#         172
  C:418FH         LINE#         173
  C:4191H         LINE#         175
  C:4194H         LINE#         176
  C:4196H         LINE#         177
  C:4198H         LINE#         179
  C:419BH         LINE#         180
  C:419EH         LINE#         181
  C:41A0H         LINE#         182
  C:41A2H         LINE#         184
  C:41A5H         LINE#         185
  C:41A7H         LINE#         186
  C:41A9H         LINE#         189
  C:41ABH         LINE#         190
  C:41AEH         LINE#         191
  C:41B0H         LINE#         192
  C:41B3H         LINE#         193
  C:41B5H         LINE#         194
  C:41B8H         LINE#         195
  C:41BAH         LINE#         196
  C:41BCH         LINE#         197
  C:41BFH         LINE#         198
  -------         ENDPROC       PORT_INIT
  -------         PROC          BSP_INIT
  C:4604H         LINE#         200
  C:4604H         LINE#         201
  C:4604H         LINE#         202
  C:4607H         LINE#         204
  C:460AH         LINE#         205
  C:460DH         LINE#         206
BL51 BANKED LINKER/LOCATER V6.22                                                      10/09/2015  15:13:05  PAGE 26


  C:4610H         LINE#         207
  C:4613H         LINE#         208
  C:4613H         LINE#         209
  C:4613H         LINE#         210
  C:4618H         LINE#         211
  C:4618H         LINE#         212
  C:461BH         LINE#         213
  C:461DH         LINE#         215
  C:461DH         LINE#         216
  C:461DH         LINE#         217
  C:461DH         LINE#         218
  C:461DH         LINE#         220
  C:4620H         LINE#         221
  C:4623H         LINE#         222
  C:4626H         LINE#         223
  C:4629H         LINE#         224
  C:462CH         LINE#         225
  C:462FH         LINE#         226
  -------         ENDPROC       BSP_INIT
  -------         ENDMOD        BSP_INIT

  -------         MODULE        AIP1944
  C:0000H         SYMBOL        _ICE_DUMMY_
  C:4973H         PUBLIC        _AIP1944_WriteByte
  B:00A0H.0       PUBLIC        P40
  B:00A0H.1       PUBLIC        P41
  B:00A0H.2       PUBLIC        P42
  C:41C0H         PUBLIC        _Aip1944_WriteDispDatas
  X:01F1H         PUBLIC        Aip1944_BrightnessLevel
  -------         PROC          _AIP1944_WRITEBYTE
  D:0007H         SYMBOL        _byte
  -------         DO            
  D:0006H         SYMBOL        i
  -------         ENDDO         
  C:4973H         LINE#         36
  C:4973H         LINE#         37
  C:4973H         LINE#         40
  C:4975H         LINE#         41
  C:4975H         LINE#         42
  C:4979H         LINE#         43
  C:4979H         LINE#         44
  C:497BH         LINE#         45
  C:497DH         LINE#         47
  C:497DH         LINE#         48
  C:497FH         LINE#         49
  C:497FH         LINE#         51
  C:4981H         LINE#         53
  C:4985H         LINE#         55
  C:4987H         LINE#         56
  C:498CH         LINE#         57
  -------         ENDPROC       _AIP1944_WRITEBYTE
  -------         PROC          _AIP1944_WRITEDISPDATAS
  X:0197H         SYMBOL        dats
  D:0005H         SYMBOL        len
  X:019BH         SYMBOL        addr
  -------         DO            
  D:0004H         SYMBOL        i
BL51 BANKED LINKER/LOCATER V6.22                                                      10/09/2015  15:13:05  PAGE 27


  -------         ENDDO         
  C:41C0H         LINE#         59
  C:41CBH         LINE#         60
  C:41CBH         LINE#         63
  C:41CDH         LINE#         64
  C:41D2H         LINE#         65
  C:41D4H         LINE#         66
  C:41D6H         LINE#         67
  C:41E0H         LINE#         68
  C:41E7H         LINE#         69
  C:41E7H         LINE#         70
  C:41FEH         LINE#         71
  C:4201H         LINE#         72
  C:4203H         LINE#         74
  C:4205H         LINE#         75
  C:420DH         LINE#         76
  C:420FH         LINE#         77
  -------         ENDPROC       _AIP1944_WRITEDISPDATAS
  -------         ENDMOD        AIP1944

  -------         MODULE        DISPLAY
  C:0000H         SYMBOL        _ICE_DUMMY_
  D:0090H         PUBLIC        P2
  D:0098H         PUBLIC        P3
  C:4ABDH         PUBLIC        _Display_SetAll
  C:3529H         PUBLIC        _Display_ShowRT
  C:2805H         PUBLIC        PM_COM10_E_nums
  C:284EH         PUBLIC        RT_COM_H1_E_nums
  C:2819H         PUBLIC        PM_COM1_E1_nums
  C:2823H         PUBLIC        PM_COM1_E2_nums
  C:27A1H         PUBLIC        H_COM10_nums
  C:2885H         PUBLIC        RT_COM_M1_E_nums
  C:27DDH         PUBLIC        PM_COM100_nums
  C:282DH         PUBLIC        RT_COM_H10_nums
  D:00B9H         PUBLIC        P2IO
  C:2859H         PUBLIC        RT_COM_M10_nums
  C:2779H         PUBLIC        T_COM10_nums
  D:00C1H         PUBLIC        P3IO
  B:0021H.6       PUBLIC        Display_IsLowLight
  X:0150H         PUBLIC        Display_Datas
  C:2DB0H         PUBLIC        _Display_ShowNumInRTCArea
  C:27BFH         PUBLIC        H_COM1_EXT_nums
  C:3FBBH         PUBLIC        _Display_ShowHumidity
  C:280FH         PUBLIC        PM_COM1_nums
  C:2838H         PUBLIC        RT_COM_H10_E_nums
  C:2797H         PUBLIC        T_COM1_EXT_nums
  C:27C9H         PUBLIC        PM_COM1000_nums
  C:42F5H         PUBLIC        _Display_CircleRun
  C:377DH         PUBLIC        Display_LedDrive
  C:444CH         PUBLIC        _Display_DustLevel
  C:2CAEH         PUBLIC        _Display_DustData
  C:27B5H         PUBLIC        H_COM1_nums
  C:27ABH         PUBLIC        H_COM10_EXT_nums
  C:27FBH         PUBLIC        PM_COM10_nums
  C:45A1H         PUBLIC        Display_Ctr
  C:2843H         PUBLIC        RT_COM_H1_nums
  B:0021H.7       PUBLIC        Display_FlashOn
BL51 BANKED LINKER/LOCATER V6.22                                                      10/09/2015  15:13:05  PAGE 28


  C:287AH         PUBLIC        RT_COM_M1_nums
  C:27D3H         PUBLIC        PM_COM1000_E_nums
  C:278DH         PUBLIC        T_COM1_nums
  C:27E7H         PUBLIC        PM_COM100_E1_nums
  C:27F1H         PUBLIC        PM_COM100_E2_nums
  C:2783H         PUBLIC        T_COM10_EXT_nums
  C:2864H         PUBLIC        RT_COM_M10_E1_nums
  C:286FH         PUBLIC        RT_COM_M10_E2_nums
  C:4760H         PUBLIC        Display_SetLine
  C:3F5CH         PUBLIC        _Display_ShowTemperature
  X:018FH         PUBLIC        Display_LedsEn
  C:006EH         PUBLIC        _Display_SpLevel
  -------         PROC          _DISPLAY_SETALL
  D:0007H         SYMBOL        sta
  -------         DO            
  D:0006H         SYMBOL        i
  -------         ENDDO         
  C:4ABDH         LINE#         11
  C:4ABDH         LINE#         12
  C:4ABDH         LINE#         15
  C:4ABFH         LINE#         16
  C:4ABFH         LINE#         17
  C:4ACBH         LINE#         18
  C:4AD0H         LINE#         19
  -------         ENDPROC       _DISPLAY_SETALL
  -------         PROC          DISPLAY_SETLINE
  C:4760H         LINE#         22
  C:4760H         LINE#         23
  C:4760H         LINE#         24
  C:4766H         LINE#         25
  C:4768H         LINE#         26
  C:476AH         LINE#         28
  C:476EH         LINE#         29
  C:4770H         LINE#         30
  C:4772H         LINE#         32
  C:4779H         LINE#         33
  C:477DH         LINE#         34
  C:477FH         LINE#         35
  -------         ENDPROC       DISPLAY_SETLINE
  -------         PROC          _DISPLAY_CIRCLERUN
  D:0007H         SYMBOL        sp
  -------         DO            
  X:014EH         SYMBOL        cnt
  B:0021H.5       SYMBOL        disIndex
  -------         ENDDO         
  C:42F5H         LINE#         37
  C:42F5H         LINE#         38
  C:42F5H         LINE#         41
  C:42FBH         LINE#         42
  C:4300H         LINE#         43
  C:4300H         LINE#         44
  C:4302H         LINE#         46
  C:4304H         LINE#         47
  C:4304H         LINE#         49
  C:430BH         LINE#         51
  C:430EH         LINE#         52
  C:430EH         LINE#         53
BL51 BANKED LINKER/LOCATER V6.22                                                      10/09/2015  15:13:05  PAGE 29


  C:4315H         LINE#         54
  C:431CH         LINE#         55
  C:4323H         LINE#         56
  C:4324H         LINE#         58
  C:4324H         LINE#         59
  C:4330H         LINE#         60
  C:4337H         LINE#         61
  C:433EH         LINE#         62
  C:433EH         LINE#         88
  -------         ENDPROC       _DISPLAY_CIRCLERUN
  -------         PROC          _DISPLAY_DUSTLEVEL
  D:0007H         SYMBOL        level
  C:444CH         LINE#         90
  C:444CH         LINE#         91
  C:444CH         LINE#         92
  C:445FH         LINE#         93
  C:445FH         LINE#         94
  C:445FH         LINE#         95
  C:4466H         LINE#         96
  C:4466H         LINE#         97
  C:446DH         LINE#         98
  C:446DH         LINE#         99
  C:4474H         LINE#         100
  C:4474H         LINE#         101
  C:447BH         LINE#         102
  C:447BH         LINE#         103
  C:4482H         LINE#         104
  C:4482H         LINE#         105
  C:4489H         LINE#         106
  C:4489H         LINE#         107
  C:4489H         LINE#         108
  C:4489H         LINE#         109
  C:4489H         LINE#         110
  -------         ENDPROC       _DISPLAY_DUSTLEVEL
  -------         PROC          _DISPLAY_SPLEVEL
  D:0007H         SYMBOL        level
  C:006EH         LINE#         112
  C:006EH         LINE#         113
  C:006EH         LINE#         114
  C:007EH         LINE#         115
  C:007EH         LINE#         116
  C:007EH         LINE#         117
  C:0085H         LINE#         118
  C:0085H         LINE#         119
  C:008CH         LINE#         120
  C:008CH         LINE#         121
  C:0093H         LINE#         122
  C:0093H         LINE#         123
  C:009AH         LINE#         124
  C:009AH         LINE#         125
  C:00A1H         LINE#         126
  C:00A1H         LINE#         127
  C:00A1H         LINE#         128
  C:00A1H         LINE#         129
  C:00A1H         LINE#         130
  -------         ENDPROC       _DISPLAY_SPLEVEL
  -------         PROC          _DISPLAY_SHOWTEMPERATURE
BL51 BANKED LINKER/LOCATER V6.22                                                      10/09/2015  15:13:05  PAGE 30


  D:0007H         SYMBOL        t
  -------         DO            
  D:0005H         SYMBOL        v10
  D:0004H         SYMBOL        v1
  -------         ENDDO         
  C:3F5CH         LINE#         225
  C:3F5CH         LINE#         226
  C:3F5CH         LINE#         230
  C:3F62H         LINE#         231
  C:3F62H         LINE#         232
  C:3F64H         LINE#         233
  C:3F64H         LINE#         235
  C:3F6AH         LINE#         236
  C:3F71H         LINE#         238
  C:3F74H         LINE#         239
  C:3F74H         LINE#         240
  C:3F85H         LINE#         241
  C:3F98H         LINE#         242
  C:3F98H         LINE#         243
  C:3FA9H         LINE#         244
  C:3FBAH         LINE#         245
  -------         ENDPROC       _DISPLAY_SHOWTEMPERATURE
  -------         PROC          _DISPLAY_SHOWHUMIDITY
  D:0007H         SYMBOL        h
  -------         DO            
  D:0005H         SYMBOL        v10
  D:0004H         SYMBOL        v1
  -------         ENDDO         
  C:3FBBH         LINE#         328
  C:3FBBH         LINE#         329
  C:3FBBH         LINE#         333
  C:3FC1H         LINE#         334
  C:3FC1H         LINE#         335
  C:3FC3H         LINE#         336
  C:3FC3H         LINE#         338
  C:3FC9H         LINE#         339
  C:3FD0H         LINE#         341
  C:3FD3H         LINE#         342
  C:3FD3H         LINE#         343
  C:3FE4H         LINE#         344
  C:3FF7H         LINE#         345
  C:3FF7H         LINE#         346
  C:4008H         LINE#         347
  C:4019H         LINE#         348
  -------         ENDPROC       _DISPLAY_SHOWHUMIDITY
  -------         PROC          _DISPLAY_DUSTDATA
  D:0002H         SYMBOL        pm
  -------         DO            
  X:019BH         SYMBOL        v1000
  X:019CH         SYMBOL        v100
  X:019DH         SYMBOL        v10
  D:0003H         SYMBOL        v1
  -------         ENDDO         
  C:2CAEH         LINE#         553
  C:2CB2H         LINE#         554
  C:2CB2H         LINE#         560
  C:2CBBH         LINE#         561
BL51 BANKED LINKER/LOCATER V6.22                                                      10/09/2015  15:13:05  PAGE 31


  C:2CBBH         LINE#         562
  C:2CBFH         LINE#         563
  C:2CBFH         LINE#         565
  C:2CCFH         LINE#         566
  C:2CE4H         LINE#         567
  C:2CF9H         LINE#         568
  C:2D06H         LINE#         571
  C:2D1BH         LINE#         572
  C:2D2DH         LINE#         574
  C:2D3BH         LINE#         575
  C:2D4CH         LINE#         576
  C:2D61H         LINE#         578
  C:2D6FH         LINE#         579
  C:2D81H         LINE#         582
  C:2D8BH         LINE#         583
  C:2D9CH         LINE#         584
  C:2DAFH         LINE#         585
  -------         ENDPROC       _DISPLAY_DUSTDATA
  -------         PROC          _DISPLAY_SHOWRT
  D:0007H         SYMBOL        h
  D:0005H         SYMBOL        m
  B:0020H.5       SYMBOL        hFlashEn
  B:0020H.6       SYMBOL        mFlashEn
  -------         DO            
  D:0001H         SYMBOL        h10
  D:0006H         SYMBOL        h1
  D:0004H         SYMBOL        m10
  D:0003H         SYMBOL        m1
  -------         ENDDO         
  C:3529H         LINE#         787
  C:3529H         LINE#         788
  C:3529H         LINE#         795
  C:352FH         LINE#         796
  C:3536H         LINE#         797
  C:353CH         LINE#         798
  C:3543H         LINE#         800
  C:3549H         LINE#         801
  C:3549H         LINE#         802
  C:354BH         LINE#         803
  C:354DH         LINE#         804
  C:354DH         LINE#         806
  C:3553H         LINE#         807
  C:3553H         LINE#         808
  C:3555H         LINE#         809
  C:3557H         LINE#         810
  C:3557H         LINE#         811
  C:355DH         LINE#         812
  C:355DH         LINE#         813
  C:356EH         LINE#         814
  C:357FH         LINE#         816
  C:3590H         LINE#         817
  C:35A1H         LINE#         818
  C:35A1H         LINE#         821
  C:35A7H         LINE#         822
  C:35A7H         LINE#         823
  C:35B8H         LINE#         824
  C:35C9H         LINE#         825
BL51 BANKED LINKER/LOCATER V6.22                                                      10/09/2015  15:13:05  PAGE 32


  C:35DBH         LINE#         827
  C:35E5H         LINE#         828
  C:35F6H         LINE#         829
  C:35F6H         LINE#         830
  -------         ENDPROC       _DISPLAY_SHOWRT
  -------         PROC          _DISPLAY_SHOWNUMINRTCAREA
  D:0002H         SYMBOL        num
  -------         DO            
  X:019BH         SYMBOL        v1000
  X:019CH         SYMBOL        v100
  X:019DH         SYMBOL        v10
  D:0001H         SYMBOL        v1
  -------         ENDDO         
  C:2DB0H         LINE#         833
  C:2DB4H         LINE#         834
  C:2DB4H         LINE#         840
  C:2DC0H         LINE#         841
  C:2DD5H         LINE#         842
  C:2DEAH         LINE#         843
  C:2DF7H         LINE#         846
  C:2E00H         LINE#         847
  C:2E00H         LINE#         848
  C:2E06H         LINE#         849
  C:2E08H         LINE#         850
  C:2E0AH         LINE#         851
  C:2E0BH         LINE#         852
  C:2E0BH         LINE#         855
  C:2E20H         LINE#         856
  C:2E31H         LINE#         858
  C:2E46H         LINE#         859
  C:2E57H         LINE#         861
  C:2E6CH         LINE#         862
  C:2E7DH         LINE#         863
  C:2E92H         LINE#         865
  C:2E9CH         LINE#         866
  C:2EADH         LINE#         867
  -------         ENDPROC       _DISPLAY_SHOWNUMINRTCAREA
  -------         PROC          DISPLAY_LEDDRIVE
  B:0020H.4       SYMBOL        comChangeEn
  -------         DO            
  X:014FH         SYMBOL        scanCnt
  -------         ENDDO         
  C:377DH         LINE#         889
  C:377DH         LINE#         890
  C:377DH         LINE#         893
  C:3780H         LINE#         894
  C:3780H         LINE#         895
  C:3786H         LINE#         896
  C:3786H         LINE#         898
  C:378CH         LINE#         899
  C:3792H         LINE#         900
  C:379DH         LINE#         901
  C:379DH         LINE#         902
  C:379DH         LINE#         903
  C:37A4H         LINE#         904
  C:37A4H         LINE#         905
  C:37A7H         LINE#         906
BL51 BANKED LINKER/LOCATER V6.22                                                      10/09/2015  15:13:05  PAGE 33


  C:37A9H         LINE#         908
  C:37A9H         LINE#         909
  C:37ACH         LINE#         910
  C:37ACH         LINE#         911
  C:37B3H         LINE#         912
  C:37B3H         LINE#         913
  C:37B6H         LINE#         914
  C:37B8H         LINE#         916
  C:37B8H         LINE#         917
  C:37BBH         LINE#         918
  C:37BBH         LINE#         920
  C:37C1H         LINE#         921
  C:37C2H         LINE#         922
  C:37C2H         LINE#         923
  C:37C9H         LINE#         924
  C:37C9H         LINE#         925
  C:37CCH         LINE#         926
  C:37CEH         LINE#         928
  C:37CEH         LINE#         929
  C:37D1H         LINE#         930
  C:37D1H         LINE#         931
  C:37D8H         LINE#         932
  C:37D8H         LINE#         933
  C:37DBH         LINE#         934
  C:37DDH         LINE#         936
  C:37DDH         LINE#         937
  C:37E0H         LINE#         938
  C:37E0H         LINE#         939
  C:37E6H         LINE#         940
  C:37E7H         LINE#         941
  C:37E7H         LINE#         942
  C:37E7H         LINE#         943
  C:37EEH         LINE#         944
  C:37EEH         LINE#         945
  C:37F1H         LINE#         946
  C:37F3H         LINE#         948
  C:37F3H         LINE#         949
  C:37F6H         LINE#         950
  C:37F6H         LINE#         952
  C:37FDH         LINE#         953
  C:37FDH         LINE#         954
  C:3800H         LINE#         955
  C:3802H         LINE#         957
  C:3802H         LINE#         958
  C:3805H         LINE#         959
  C:3805H         LINE#         961
  C:380CH         LINE#         962
  C:380CH         LINE#         963
  C:380FH         LINE#         964
  C:3811H         LINE#         966
  C:3811H         LINE#         967
  C:3814H         LINE#         968
  C:3814H         LINE#         970
  C:381BH         LINE#         971
  C:381BH         LINE#         972
  C:381EH         LINE#         973
  C:3820H         LINE#         975
BL51 BANKED LINKER/LOCATER V6.22                                                      10/09/2015  15:13:05  PAGE 34


  C:3820H         LINE#         976
  C:3823H         LINE#         977
  C:3823H         LINE#         978
  C:3829H         LINE#         980
  C:382EH         LINE#         981
  C:382EH         LINE#         982
  C:382EH         LINE#         983
  -------         ENDPROC       DISPLAY_LEDDRIVE
  -------         PROC          DISPLAY_CTR
  C:45A1H         LINE#         986
  C:45A1H         LINE#         987
  C:45A1H         LINE#         988
  C:45A6H         LINE#         989
  C:45ABH         LINE#         991
  C:45C4H         LINE#         993
  -------         ENDPROC       DISPLAY_CTR
  -------         ENDMOD        DISPLAY

  -------         MODULE        BUZZER
  C:0000H         SYMBOL        _ICE_DUMMY_
  D:0097H         PUBLIC        BUZCR
  X:01DFH         SYMBOL        Buzz_times
  C:4385H         PUBLIC        Buzz_Ctr
  C:4814H         PUBLIC        _Buzz_Set
  B:0022H.7       SYMBOL        Buzz_En
  X:01E0H         SYMBOL        Buzz_off
  X:01E1H         SYMBOL        Buzz_cnt
  X:01E2H         SYMBOL        Buzz_on
  C:4B1EH         PUBLIC        Buzz_DeviceInit
  -------         PROC          BUZZ_DEVICEINIT
  C:4B1EH         LINE#         11
  C:4B1EH         LINE#         12
  C:4B1EH         LINE#         13
  C:4B20H         LINE#         15
  C:4B25H         LINE#         16
  C:4B29H         LINE#         17
  C:4B2DH         LINE#         19
  C:4B2FH         LINE#         20
  -------         ENDPROC       BUZZ_DEVICEINIT
  -------         PROC          _BUZZ_SET
  D:0007H         SYMBOL        times
  D:0005H         SYMBOL        on
  D:0003H         SYMBOL        off
  C:4814H         LINE#         22
  C:4814H         LINE#         23
  C:4814H         LINE#         24
  C:4819H         LINE#         25
  C:4819H         LINE#         26
  C:481CH         LINE#         27
  C:481CH         LINE#         29
  C:4821H         LINE#         30
  C:4826H         LINE#         31
  C:482BH         LINE#         33
  C:482EH         LINE#         34
  -------         ENDPROC       _BUZZ_SET
  -------         PROC          BUZZ_CTR
  C:4385H         LINE#         36
BL51 BANKED LINKER/LOCATER V6.22                                                      10/09/2015  15:13:05  PAGE 35


  C:4385H         LINE#         37
  C:4385H         LINE#         38
  C:438BH         LINE#         39
  C:438BH         LINE#         40
  C:4391H         LINE#         42
  C:439DH         LINE#         43
  C:439DH         LINE#         44
  C:43A0H         LINE#         45
  C:43A0H         LINE#         46
  C:43A3H         LINE#         47
  C:43A3H         LINE#         49
  C:43A5H         LINE#         50
  C:43A6H         LINE#         51
  C:43B0H         LINE#         52
  C:43B0H         LINE#         53
  C:43B3H         LINE#         54
  C:43B3H         LINE#         55
  C:43B6H         LINE#         56
  C:43B6H         LINE#         57
  C:43B8H         LINE#         58
  C:43B9H         LINE#         60
  C:43B9H         LINE#         61
  C:43BFH         LINE#         62
  C:43C4H         LINE#         63
  C:43C4H         LINE#         64
  C:43C5H         LINE#         66
  C:43C5H         LINE#         67
  C:43C7H         LINE#         68
  C:43C7H         LINE#         69
  -------         ENDPROC       BUZZ_CTR
  -------         ENDMOD        BUZZER

  -------         MODULE        IR
  C:0000H         SYMBOL        _ICE_DUMMY_
  B:0023H.0       PUBLIC        IR_Changed
  X:01EBH         PUBLIC        IR_Code
  -------         ENDMOD        IR

  -------         MODULE        HUMIDITY
  C:0000H         SYMBOL        _ICE_DUMMY_
  C:097DH         SYMBOL        H_Table38
  C:0758H         SYMBOL        H_Table29
  C:09BAH         SYMBOL        H_Table39
  C:3AD8H         PUBLIC        Humidity_GetCurrentH
  C:3CA1H         PUBLIC        Humidity_GetCurrentT
  C:3E27H         SYMBOL        _Humidity_GetH
  C:01A0H         SYMBOL        H_table45
  C:4B30H         PUBLIC        Humidity_DeviceInit
  C:0B28H         SYMBOL        H_tables
  D:009FH         PUBLIC        ADCDRH
  D:009CH         PUBLIC        ADCCRL
  C:4A66H         PUBLIC        _Utils_GetAdValue
  C:00B6H         SYMBOL        T_table
  I:0016H         PUBLIC        Humidity_AdHBuf
  C:01DDH         SYMBOL        H_Table6
  C:021AH         SYMBOL        H_Table7
  C:0257H         SYMBOL        H_Table8
BL51 BANKED LINKER/LOCATER V6.22                                                      10/09/2015  15:13:05  PAGE 36


  C:0294H         SYMBOL        H_Table9
  C:2EAEH         SYMBOL        _Humidity_Ad2H
  C:4AD1H         SYMBOL        _Humidity_Ad2T
  I:0017H         PUBLIC        Humidity_CurrentH
  C:0163H         SYMBOL        H_table5
  I:0018H         PUBLIC        Humidity_CurrentT
  C:02D1H         SYMBOL        H_Table10
  C:0533H         SYMBOL        H_Table20
  C:030EH         SYMBOL        H_Table11
  C:0795H         SYMBOL        H_Table30
  C:0570H         SYMBOL        H_Table21
  C:034BH         SYMBOL        H_Table12
  C:09F7H         SYMBOL        H_Table40
  C:07D2H         SYMBOL        H_Table31
  C:05ADH         SYMBOL        H_Table22
  C:0388H         SYMBOL        H_Table13
  C:0A34H         SYMBOL        H_Table41
  C:080FH         SYMBOL        H_Table32
  C:05EAH         SYMBOL        H_Table23
  C:03C5H         SYMBOL        H_Table14
  C:0A71H         SYMBOL        H_Table42
  C:084CH         SYMBOL        H_Table33
  C:0627H         SYMBOL        H_Table24
  C:0402H         SYMBOL        H_Table15
  C:0AAEH         SYMBOL        H_Table43
  C:0889H         SYMBOL        H_Table34
  C:0664H         SYMBOL        H_Table25
  C:043FH         SYMBOL        H_Table16
  C:0AEBH         SYMBOL        H_Table44
  C:08C6H         SYMBOL        H_Table35
  C:06A1H         SYMBOL        H_Table26
  C:047CH         SYMBOL        H_Table17
  C:0903H         SYMBOL        H_Table36
  C:06DEH         SYMBOL        H_Table27
  C:04B9H         SYMBOL        H_Table18
  C:0940H         SYMBOL        H_Table37
  C:071BH         SYMBOL        H_Table28
  C:04F6H         SYMBOL        H_Table19
  -------         PROC          _UTILS_GETADVALUE
  D:0007H         SYMBOL        ch
  C:4A66H         LINE#         3082
  C:4A66H         LINE#         3083
  C:4A66H         LINE#         3086
  C:4A71H         LINE#         3087
  C:4A74H         LINE#         3089
  C:4A79H         LINE#         3094
  C:4A7BH         LINE#         3095
  -------         ENDPROC       _UTILS_GETADVALUE
  -------         PROC          _HUMIDITY_AD2T
  D:0007H         SYMBOL        adValue
  C:4AD1H         LINE#         3099
  C:4AD1H         LINE#         3100
  C:4AD1H         LINE#         3101
  C:4AD7H         LINE#         3102
  C:4AD7H         LINE#         3103
  C:4ADBH         LINE#         3104
  C:4ADCH         LINE#         3106
BL51 BANKED LINKER/LOCATER V6.22                                                      10/09/2015  15:13:05  PAGE 37


  C:4ADCH         LINE#         3107
  C:4AE4H         LINE#         3108
  C:4AE4H         LINE#         3109
  -------         ENDPROC       _HUMIDITY_AD2T
  -------         PROC          HUMIDITY_GETCURRENTT
  -------         DO            
  X:01BCH         SYMBOL        adSum
  X:01BEH         SYMBOL        adMax
  X:01BFH         SYMBOL        adMin
  X:01C0H         SYMBOL        sampleCnt
  D:0007H         SYMBOL        adValue
  -------         ENDDO         
  C:3CA1H         LINE#         3111
  C:3CA1H         LINE#         3112
  C:3CA1H         LINE#         3120
  C:3CA6H         LINE#         3122
  C:3CB0H         LINE#         3123
  C:3CB0H         LINE#         3124
  C:3CB2H         LINE#         3125
  C:3CB2H         LINE#         3127
  C:3CBCH         LINE#         3128
  C:3CBCH         LINE#         3129
  C:3CBEH         LINE#         3130
  C:3CBEH         LINE#         3132
  C:3CCBH         LINE#         3133
  C:3CD1H         LINE#         3134
  C:3CD7H         LINE#         3135
  C:3CD7H         LINE#         3136
  C:3CFCH         LINE#         3137
  C:3D15H         LINE#         3139
  C:3D18H         LINE#         3141
  C:3D1DH         LINE#         3143
  C:3D23H         LINE#         3144
  C:3D25H         LINE#         3145
  C:3D29H         LINE#         3146
  C:3D29H         LINE#         3147
  -------         ENDPROC       HUMIDITY_GETCURRENTT
  -------         PROC          L?0044
  -------         ENDPROC       L?0044
  -------         PROC          _HUMIDITY_GETH
  D:0007H         SYMBOL        adH
  D:0005H         SYMBOL        adT
  -------         DO            
  X:019BH         SYMBOL        table
  D:0006H         SYMBOL        i
  -------         ENDDO         
  C:3E27H         LINE#         3149
  C:3E27H         LINE#         3150
  C:3E27H         LINE#         3154
  C:3E2BH         LINE#         3155
  C:3E2BH         LINE#         3156
  C:3E39H         LINE#         3157
  C:3E3BH         LINE#         3158
  C:3E3FH         LINE#         3159
  C:3E3FH         LINE#         3160
  C:3E4DH         LINE#         3161
  C:3E4FH         LINE#         3163
BL51 BANKED LINKER/LOCATER V6.22                                                      10/09/2015  15:13:05  PAGE 38


  C:3E4FH         LINE#         3164
  C:3E72H         LINE#         3165
  C:3E72H         LINE#         3167
  C:3E74H         LINE#         3168
  C:3E74H         LINE#         3169
  C:3E8DH         LINE#         3170
  C:3E8DH         LINE#         3171
  C:3E8DH         LINE#         3172
  C:3E8DH         LINE#         3173
  C:3E92H         LINE#         3175
  C:3E96H         LINE#         3176
  -------         ENDPROC       _HUMIDITY_GETH
  -------         PROC          _HUMIDITY_AD2H
  X:0198H         SYMBOL        adH
  -------         DO            
  X:0199H         SYMBOL        h1
  X:019AH         SYMBOL        h2
  -------         ENDDO         
  C:2EAEH         LINE#         3178
  C:2EB3H         LINE#         3179
  C:2EB3H         LINE#         3183
  C:2EBEH         LINE#         3184
  C:2EBEH         LINE#         3185
  C:2EC2H         LINE#         3186
  C:2EC5H         LINE#         3187
  C:2ECDH         LINE#         3188
  C:2ECDH         LINE#         3189
  C:2ED4H         LINE#         3190
  C:2ED7H         LINE#         3191
  C:2EE1H         LINE#         3192
  C:2EE1H         LINE#         3193
  C:2EEBH         LINE#         3194
  C:2EF5H         LINE#         3197
  C:2F34H         LINE#         3198
  C:2F36H         LINE#         3199
  C:2F45H         LINE#         3200
  C:2F45H         LINE#         3201
  C:2F4FH         LINE#         3202
  C:2F5EH         LINE#         3205
  C:2F9FH         LINE#         3206
  C:2FA0H         LINE#         3208
  C:2FA0H         LINE#         3209
  C:2FABH         LINE#         3210
  C:2FABH         LINE#         3211
  -------         ENDPROC       _HUMIDITY_AD2H
  -------         PROC          HUMIDITY_GETCURRENTH
  -------         DO            
  X:01C1H         SYMBOL        adSum
  X:01C3H         SYMBOL        sampleCnt
  X:01C4H         SYMBOL        circleIndex
  X:01C5H         SYMBOL        circleBuf
  B:0023H.1       SYMBOL        circleEnable
  D:0004H         SYMBOL        i
  D:0006H         SYMBOL        sumExt
  X:0197H         SYMBOL        ad
  -------         ENDDO         
  C:3AD8H         LINE#         3214
BL51 BANKED LINKER/LOCATER V6.22                                                      10/09/2015  15:13:05  PAGE 39


  C:3AD8H         LINE#         3215
  C:3AD8H         LINE#         3227
  C:3AE9H         LINE#         3228
  C:3AEFH         LINE#         3229
  C:3AF8H         LINE#         3230
  C:3AF8H         LINE#         3231
  C:3B0EH         LINE#         3233
  C:3B14H         LINE#         3234
  C:3B1AH         LINE#         3235
  C:3B1AH         LINE#         3236
  C:3B1CH         LINE#         3237
  C:3B1EH         LINE#         3238
  C:3B1EH         LINE#         3239
  C:3B33H         LINE#         3241
  C:3B36H         LINE#         3242
  C:3B36H         LINE#         3243
  C:3B39H         LINE#         3244
  C:3B3AH         LINE#         3245
  C:3B3AH         LINE#         3246
  C:3B4AH         LINE#         3247
  C:3B4FH         LINE#         3248
  C:3B59H         LINE#         3249
  C:3B5DH         LINE#         3250
  C:3B5FH         LINE#         3252
  C:3B5FH         LINE#         3253
  C:3B64H         LINE#         3254
  C:3B64H         LINE#         3255
  C:3B6CH         LINE#         3257
  C:3B71H         LINE#         3258
  C:3B77H         LINE#         3259
  C:3B77H         LINE#         3260
  -------         ENDPROC       HUMIDITY_GETCURRENTH
  -------         PROC          HUMIDITY_DEVICEINIT
  C:4B30H         LINE#         3262
  C:4B30H         LINE#         3263
  C:4B30H         LINE#         3264
  C:4B38H         LINE#         3265
  -------         ENDPROC       HUMIDITY_DEVICEINIT
  -------         ENDMOD        HUMIDITY

  -------         MODULE        DUST
  C:0000H         SYMBOL        _ICE_DUMMY_
  X:01B3H         PUBLIC        Dust_Data
  C:425FH         SYMBOL        Dust_getRtLevel
  X:01B5H         PUBLIC        Dust_RTData
  B:0022H.3       PUBLIC        Dust_IsReady
  X:01B7H         PUBLIC        Dust_LevelForFan
  X:01B8H         SYMBOL        Dust_levelPre
  X:01B9H         SYMBOL        Dust_readyCountdown
  C:36C3H         PUBLIC        Dust_LevelUpdate
  C:382FH         PUBLIC        Dust_DataUpdate
  C:4AE5H         PUBLIC        Dust_DeviceInit
  B:0022H.4       PUBLIC        Dust_DataValid
  X:01BBH         PUBLIC        Dust_Level
  -------         PROC          DUST_DEVICEINIT
  C:4AE5H         LINE#         21
  C:4AE5H         LINE#         22
BL51 BANKED LINKER/LOCATER V6.22                                                      10/09/2015  15:13:05  PAGE 40


  C:4AE5H         LINE#         23
  C:4AEFH         LINE#         24
  C:4AF1H         LINE#         25
  C:4AF8H         LINE#         26
  -------         ENDPROC       DUST_DEVICEINIT
  -------         PROC          DUST_GETRTLEVEL
  -------         DO            
  D:0007H         SYMBOL        level
  -------         ENDDO         
  C:425FH         LINE#         29
  C:425FH         LINE#         30
  C:425FH         LINE#         33
  C:426FH         LINE#         34
  C:426FH         LINE#         35
  C:4271H         LINE#         36
  C:4273H         LINE#         37
  C:427CH         LINE#         38
  C:427CH         LINE#         39
  C:427EH         LINE#         40
  C:4280H         LINE#         41
  C:4289H         LINE#         42
  C:4289H         LINE#         43
  C:428BH         LINE#         44
  C:428DH         LINE#         45
  C:4296H         LINE#         46
  C:4296H         LINE#         47
  C:4298H         LINE#         48
  C:429AH         LINE#         49
  C:42A3H         LINE#         50
  C:42A3H         LINE#         51
  C:42A5H         LINE#         52
  C:42A7H         LINE#         54
  C:42A7H         LINE#         55
  C:42A9H         LINE#         56
  C:42A9H         LINE#         58
  C:42A9H         LINE#         59
  -------         ENDPROC       DUST_GETRTLEVEL
  -------         PROC          DUST_DATAUPDATE
  -------         DO            
  X:01A7H         SYMBOL        tabs
  D:0007H         SYMBOL        i
  -------         ENDDO         
  C:382FH         LINE#         63
  C:382FH         LINE#         64
  C:382FH         LINE#         68
  C:3839H         LINE#         69
  C:3839H         LINE#         70
  C:3847H         LINE#         71
  C:384EH         LINE#         72
  C:384EH         LINE#         73
  C:3856H         LINE#         74
  C:385AH         LINE#         75
  C:385CH         LINE#         76
  C:385CH         LINE#         77
  C:385EH         LINE#         79
  C:385EH         LINE#         80
  C:3860H         LINE#         81
BL51 BANKED LINKER/LOCATER V6.22                                                      10/09/2015  15:13:05  PAGE 41


  C:3860H         LINE#         83
  C:3863H         LINE#         84
  C:3863H         LINE#         85
  C:3870H         LINE#         86
  C:387DH         LINE#         87
  C:388AH         LINE#         88
  C:3899H         LINE#         90
  C:389BH         LINE#         92
  C:38A2H         LINE#         93
  C:38A3H         LINE#         94
  C:38A3H         LINE#         95
  C:38C0H         LINE#         96
  C:38C5H         LINE#         97
  C:38DBH         LINE#         98
  C:38DBH         LINE#         99
  -------         ENDPROC       DUST_DATAUPDATE
  -------         PROC          DUST_LEVELUPDATE
  -------         DO            
  X:01AFH         SYMBOL        upperHoldCntForFan
  X:01B0H         SYMBOL        lowerHoldCntForFan
  X:01B1H         SYMBOL        lowerHoldCnt
  D:0007H         SYMBOL        levelCur
  -------         ENDDO         
  C:36C3H         LINE#         101
  C:36C3H         LINE#         102
  C:36C3H         LINE#         110
  C:36C6H         LINE#         111
  C:36C6H         LINE#         112
  C:36CBH         LINE#         113
  C:36CDH         LINE#         115
  C:36D1H         LINE#         118
  C:36D1H         LINE#         121
  C:36D4H         LINE#         123
  C:36DEH         LINE#         124
  C:36DEH         LINE#         125
  C:36E5H         LINE#         127
  C:36EAH         LINE#         128
  C:36EAH         LINE#         129
  C:36ECH         LINE#         130
  C:36F1H         LINE#         131
  C:36F1H         LINE#         132
  C:36FFH         LINE#         133
  C:3710H         LINE#         134
  C:3710H         LINE#         135
  C:3714H         LINE#         137
  C:371DH         LINE#         138
  C:371DH         LINE#         139
  C:3720H         LINE#         140
  C:3720H         LINE#         142
  C:3728H         LINE#         143
  C:3728H         LINE#         144
  C:372AH         LINE#         146
  C:372AH         LINE#         147
  C:3731H         LINE#         148
  C:3731H         LINE#         151
  C:373FH         LINE#         152
  C:373FH         LINE#         153
BL51 BANKED LINKER/LOCATER V6.22                                                      10/09/2015  15:13:05  PAGE 42


  C:3744H         LINE#         155
  C:374AH         LINE#         156
  C:3750H         LINE#         157
  C:3750H         LINE#         158
  C:3752H         LINE#         160
  C:3758H         LINE#         161
  C:3758H         LINE#         162
  C:3759H         LINE#         163
  C:375EH         LINE#         164
  C:375EH         LINE#         165
  C:3763H         LINE#         167
  C:3767H         LINE#         168
  C:376CH         LINE#         169
  C:376CH         LINE#         170
  C:376EH         LINE#         172
  C:3774H         LINE#         173
  C:3774H         LINE#         174
  C:3775H         LINE#         176
  C:3775H         LINE#         177
  C:377AH         LINE#         178
  C:377CH         LINE#         179
  C:377CH         LINE#         180
  -------         ENDPROC       DUST_LEVELUPDATE
  -------         ENDMOD        DUST

  -------         MODULE        MOTOR
  C:0000H         SYMBOL        _ICE_DUMMY_
  X:01CFH         PUBLIC        Motor_CurSpeed
  B:0022H.0       SYMBOL        Motor_runEnable
  B:0022H.1       PUBLIC        Motor_IsRunning
  C:4BDDH         PUBLIC        Motor_Stop
  C:1D69H         PUBLIC        Motor_Ctr
  D:00BFH         PUBLIC        T1BDRH
  C:47BDH         PUBLIC        _Motor_Run
  D:00BEH         PUBLIC        T1BDRL
  B:0022H.2       PUBLIC        Motor_SpeedUpdated
  X:01D1H         SYMBOL        Motor_pwnData
  X:01D3H         PUBLIC        Motor_ExpectSpeed
  -------         PROC          MOTOR_STOP
  C:4BDDH         LINE#         11
  C:4BDDH         LINE#         12
  C:4BDDH         LINE#         13
  C:4BDFH         LINE#         14
  C:4BE6H         LINE#         15
  -------         ENDPROC       MOTOR_STOP
  -------         PROC          _MOTOR_RUN
  D:0006H         SYMBOL        rpm
  C:47BDH         LINE#         17
  C:47BDH         LINE#         18
  C:47BDH         LINE#         19
  C:47BFH         LINE#         20
  C:47D9H         LINE#         21
  -------         ENDPROC       _MOTOR_RUN
  -------         PROC          MOTOR_CTR
  -------         DO            
  X:01CDH         SYMBOL        Motor_lastSpeed
  X:0197H         SYMBOL        deltaSp
BL51 BANKED LINKER/LOCATER V6.22                                                      10/09/2015  15:13:05  PAGE 43


  X:0199H         SYMBOL        deltaA
  X:019BH         SYMBOL        e
  -------         ENDDO         
  C:1D69H         LINE#         23
  C:1D69H         LINE#         24
  C:1D69H         LINE#         31
  C:1D83H         LINE#         33
  C:1D91H         LINE#         34
  C:1D91H         LINE#         35
  C:1D94H         LINE#         36
  C:1D96H         LINE#         37
  C:1D9CH         LINE#         38
  C:1D9DH         LINE#         40
  C:1D9DH         LINE#         41
  C:1DA0H         LINE#         42
  C:1DA0H         LINE#         44
  C:1DAEH         LINE#         45
  C:1DBEH         LINE#         46
  C:1DBEH         LINE#         47
  C:1DC5H         LINE#         49
  C:1DC5H         LINE#         50
  C:1DC8H         LINE#         52
  C:1DC8H         LINE#         54
  C:1DCEH         LINE#         55
  C:1DCEH         LINE#         56
  C:1DE3H         LINE#         57
  C:1DE3H         LINE#         58
  C:1DECH         LINE#         59
  C:1DEEH         LINE#         61
  C:1DEEH         LINE#         62
  C:1E09H         LINE#         63
  C:1E09H         LINE#         65
  C:1E16H         LINE#         66
  C:1E16H         LINE#         67
  C:1E30H         LINE#         69
  C:1E5AH         LINE#         71
  C:1E6AH         LINE#         72
  C:1E6AH         LINE#         73
  C:1E7EH         LINE#         74
  C:1E7EH         LINE#         75
  C:1E80H         LINE#         77
  C:1E80H         LINE#         78
  C:1E9BH         LINE#         79
  C:1EC5H         LINE#         80
  C:1EDBH         LINE#         81
  C:1EDBH         LINE#         82
  C:1EEFH         LINE#         83
  C:1EEFH         LINE#         84
  C:1EEFH         LINE#         86
  C:1EF1H         LINE#         87
  C:1EF1H         LINE#         88
  C:1EF1H         LINE#         90
  C:1EFCH         LINE#         91
  C:1EFEH         LINE#         93
  C:1F0DH         LINE#         94
  C:1F0DH         LINE#         95
  -------         ENDPROC       MOTOR_CTR
BL51 BANKED LINKER/LOCATER V6.22                                                      10/09/2015  15:13:05  PAGE 44


  -------         ENDMOD        MOTOR

  -------         MODULE        SYSTEM
  C:0000H         SYMBOL        _ICE_DUMMY_
  D:0088H         PUBLIC        P1
  B:0020H.7       PUBLIC        Sys_IsAutoMode
  B:0021H.0       PUBLIC        Sys_TimerFunEn
  X:00D9H         PUBLIC        Sys_WifiStrength
  X:00DAH         PUBLIC        Time_100msCnt
  X:00DBH         PUBLIC        Sys_PowerOffPoint1
  X:00DDH         PUBLIC        Sys_UVLedSta
  D:00A8H         PUBLIC        IE
  X:00DEH         PUBLIC        Sys_PowerOffPoint2
  X:00E0H         PUBLIC        Sys_CleanMode
  X:00E1H         PUBLIC        Sys_PowerOffPoint3
  X:00E3H         PUBLIC        Time_Flag1s
  X:00E4H         PUBLIC        Sys_PlanformConnSta
  X:00E5H         PUBLIC        Sys_ClockTime
  X:00EBH         PUBLIC        Sys_UsedTimeRecord
  B:0021H.1       PUBLIC        Sys_MemoryDataExist
  B:0021H.2       PUBLIC        Sys_EDispEn
  X:00FFH         PUBLIC        Sys_PowerOnPoint1
  X:0101H         PUBLIC        Sys_PowerOnPoint2
  X:0103H         PUBLIC        Sys_PowerOnPoint3
  D:0087H         PUBLIC        PCON
  B:0088H.4       PUBLIC        P14
  B:0088H.5       PUBLIC        P15
  B:00A0H.3       PUBLIC        P43
  B:0088H.6       PUBLIC        P16
  X:0105H         PUBLIC        Sys_LeftTime
  X:0107H         PUBLIC        Sys_RemoteTimerCtr
  D:00ABH         PUBLIC        IE3
  B:0021H.3       PUBLIC        Time_Flag1Min
  C:31A0H         PUBLIC        Sys_UpdateTimerOnIndex
  B:0021H.4       PUBLIC        Sys_NHVModeEn
  X:0108H         PUBLIC        Sys_LoadsEn
  C:4077H         PUBLIC        Sys_LoadCtr
  X:0109H         PUBLIC        Sys_FixMode
  C:4632H         PUBLIC        Sys_EnterStopMode
  X:010AH         PUBLIC        Sys_AionSta
  X:010BH         PUBLIC        Sys_WorkTime
  X:010DH         PUBLIC        Sys_PowerSta
  X:010EH         PUBLIC        Sys_TimerOnIndex
  X:010FH         PUBLIC        Sys_Pm25Records_10
  X:0129H         PUBLIC        Sys_Pm25Records_30
  X:0143H         PUBLIC        Sys_SpOption
  C:479FH         PUBLIC        Timer_Points
  X:0144H         PUBLIC        Sys_RouteConnSta
  X:0145H         PUBLIC        Sys_AmountOfWipedDust
  X:0147H         PUBLIC        Sys_LightLowerCountdown
  C:47B1H         PUBLIC        Sys_TimerSegments
  X:0148H         PUBLIC        Time_RTCSec
  X:0149H         PUBLIC        Sys_EWorkedMin
  X:014DH         PUBLIC        Sys_TimerStartedIndex
  -------         PROC          SYS_UPDATETIMERONINDEX
  -------         DO            
  X:019BH         SYMBOL        temp
BL51 BANKED LINKER/LOCATER V6.22                                                      10/09/2015  15:13:05  PAGE 45


  X:019DH         SYMBOL        i
  X:019EH         SYMBOL        t1
  D:0006H         SYMBOL        t2
  -------         ENDDO         
  C:31A0H         LINE#         73
  C:31A0H         LINE#         74
  C:31A0H         LINE#         81
  C:31AAH         LINE#         82
  C:31B0H         LINE#         83
  C:31C2H         LINE#         84
  C:31C2H         LINE#         85
  C:31E4H         LINE#         86
  C:31E4H         LINE#         87
  C:3239H         LINE#         88
  C:324AH         LINE#         90
  C:3258H         LINE#         91
  C:3258H         LINE#         92
  C:326BH         LINE#         93
  C:326BH         LINE#         94
  C:327DH         LINE#         95
  C:3283H         LINE#         96
  C:3283H         LINE#         97
  C:3283H         LINE#         98
  C:3283H         LINE#         99
  C:328DH         LINE#         100
  -------         ENDPROC       SYS_UPDATETIMERONINDEX
  -------         PROC          SYS_LOADCTR
  C:4077H         LINE#         103
  C:4077H         LINE#         104
  C:4077H         LINE#         105
  C:407CH         LINE#         106
  C:4096H         LINE#         108
  C:409DH         LINE#         109
  C:409DH         LINE#         110
  C:409FH         LINE#         111
  C:40A1H         LINE#         113
  C:40A1H         LINE#         114
  C:40A3H         LINE#         115
  C:40A3H         LINE#         117
  C:40AAH         LINE#         118
  C:40AAH         LINE#         119
  C:40ACH         LINE#         120
  C:40AEH         LINE#         122
  C:40AEH         LINE#         123
  C:40B0H         LINE#         124
  C:40B0H         LINE#         126
  C:40B7H         LINE#         127
  C:40B7H         LINE#         128
  C:40B9H         LINE#         129
  C:40BBH         LINE#         131
  C:40BBH         LINE#         132
  C:40BDH         LINE#         133
  C:40BDH         LINE#         135
  C:40C4H         LINE#         136
  C:40C4H         LINE#         137
  C:40C6H         LINE#         138
  C:40C7H         LINE#         140
BL51 BANKED LINKER/LOCATER V6.22                                                      10/09/2015  15:13:05  PAGE 46


  C:40C7H         LINE#         141
  C:40C9H         LINE#         142
  C:40C9H         LINE#         143
  -------         ENDPROC       SYS_LOADCTR
  -------         PROC          SYS_ENTERSTOPMODE
  -------         DO            
  X:00D8H         SYMBOL        cnt
  -------         ENDDO         
  C:4632H         LINE#         145
  C:4632H         LINE#         146
  C:4632H         LINE#         150
  C:4637H         LINE#         151
  C:4637H         LINE#         152
  C:463DH         LINE#         153
  C:4643H         LINE#         154
  C:4643H         LINE#         155
  C:4645H         LINE#         157
  C:4648H         LINE#         158
  C:464CH         LINE#         159
  C:4650H         LINE#         161
  C:4653H         LINE#         162
  C:4656H         LINE#         163
  C:4659H         LINE#         164
  C:4659H         LINE#         165
  C:465AH         LINE#         167
  C:465AH         LINE#         168
  C:465FH         LINE#         169
  C:465FH         LINE#         170
  -------         ENDPROC       SYS_ENTERSTOPMODE
  -------         ENDMOD        SYSTEM

  -------         MODULE        KEY
  C:0000H         SYMBOL        _ICE_DUMMY_
  D:0090H         PUBLIC        P2
  D:0098H         PUBLIC        P3
  X:01E5H         PUBLIC        Key_Code
  C:40CAH         SYMBOL        Key_Read
  D:00B9H         PUBLIC        P2IO
  D:00C1H         PUBLIC        P3IO
  B:0023H.2       PUBLIC        Key_Released
  C:35F7H         PUBLIC        Key_ActionDetect
  X:01E6H         PUBLIC        Key_Action
  -------         PROC          KEY_READ
  -------         DO            
  D:0007H         SYMBOL        keyDat
  -------         ENDDO         
  C:40CAH         LINE#         9
  C:40CAH         LINE#         10
  C:40CAH         LINE#         14
  C:40CDH         LINE#         16
  C:40D1H         LINE#         17
  C:40D4H         LINE#         18
  C:40D7H         LINE#         19
  C:40DDH         LINE#         20
  C:40E1H         LINE#         22
  C:40E3H         LINE#         24
  C:40E8H         LINE#         25
BL51 BANKED LINKER/LOCATER V6.22                                                      10/09/2015  15:13:05  PAGE 47


  C:40E8H         LINE#         26
  C:40E9H         LINE#         27
  C:40E9H         LINE#         29
  C:40EEH         LINE#         30
  C:40EEH         LINE#         31
  C:40F2H         LINE#         32
  C:40F2H         LINE#         34
  C:40F7H         LINE#         35
  C:40F7H         LINE#         36
  C:40FBH         LINE#         37
  C:40FBH         LINE#         39
  C:4100H         LINE#         40
  C:4100H         LINE#         41
  C:4104H         LINE#         42
  C:4104H         LINE#         44
  C:4109H         LINE#         45
  C:4109H         LINE#         46
  C:410DH         LINE#         47
  C:410DH         LINE#         49
  C:4112H         LINE#         50
  C:4112H         LINE#         51
  C:4116H         LINE#         52
  C:4116H         LINE#         54
  C:411CH         LINE#         56
  C:411CH         LINE#         57
  -------         ENDPROC       KEY_READ
  -------         PROC          KEY_ACTIONDETECT
  -------         DO            
  X:0197H         SYMBOL        Key_codeBuf
  X:01E3H         SYMBOL        Key_stateHoldCnt
  X:01E4H         SYMBOL        Key_stateHoldCntExt
  -------         ENDDO         
  C:35F7H         LINE#         59
  C:35F7H         LINE#         60
  C:35F7H         LINE#         66
  C:35FFH         LINE#         67
  C:3606H         LINE#         68
  C:3606H         LINE#         69
  C:361BH         LINE#         70
  C:361BH         LINE#         71
  C:3621H         LINE#         72
  C:3637H         LINE#         73
  C:3637H         LINE#         74
  C:363FH         LINE#         75
  C:3640H         LINE#         77
  C:3640H         LINE#         78
  C:3646H         LINE#         79
  C:3646H         LINE#         80
  C:364AH         LINE#         81
  C:364CH         LINE#         83
  C:364EH         LINE#         84
  C:364FH         LINE#         86
  C:364FH         LINE#         87
  C:3654H         LINE#         88
  C:365AH         LINE#         89
  C:365EH         LINE#         91
  C:3664H         LINE#         92
BL51 BANKED LINKER/LOCATER V6.22                                                      10/09/2015  15:13:05  PAGE 48


  C:3664H         LINE#         93
  C:3667H         LINE#         94
  C:366DH         LINE#         95
  C:3683H         LINE#         96
  C:3683H         LINE#         98
  C:368BH         LINE#         99
  C:368BH         LINE#         100
  C:3691H         LINE#         101
  C:3693H         LINE#         102
  C:3697H         LINE#         103
  C:3697H         LINE#         104
  C:369DH         LINE#         105
  C:369FH         LINE#         107
  C:369FH         LINE#         108
  C:36A5H         LINE#         109
  C:36A5H         LINE#         110
  C:36ABH         LINE#         111
  C:36ACH         LINE#         113
  C:36ACH         LINE#         115
  C:36C2H         LINE#         116
  C:36C2H         LINE#         117
  C:36C2H         LINE#         118
  -------         ENDPROC       KEY_ACTIONDETECT
  -------         ENDMOD        KEY

  -------         MODULE        FIFO
  C:0000H         SYMBOL        _ICE_DUMMY_
  C:4B8DH         PUBLIC        _InitQueue
  C:498DH         PUBLIC        _QueueLen
  C:401AH         PUBLIC        _Dequeue
  C:4AA8H         PUBLIC        _QueueIsEmpty
  C:4500H         PUBLIC        _QueueIsFull
  C:3EFBH         PUBLIC        _Enqueue
  -------         PROC          _INITQUEUE
  D:0001H         SYMBOL        queue
  C:4B8DH         LINE#         3
  C:4B8DH         LINE#         4
  C:4B8DH         LINE#         5
  -------         ENDPROC       _INITQUEUE
  -------         PROC          _QUEUEISEMPTY
  D:0001H         SYMBOL        queue
  C:4AA8H         LINE#         8
  C:4AA8H         LINE#         9
  C:4AA8H         LINE#         10
  C:4ABCH         LINE#         11
  -------         ENDPROC       _QUEUEISEMPTY
  -------         PROC          _QUEUEISFULL
  X:01A4H         SYMBOL        queue
  C:4500H         LINE#         13
  C:450BH         LINE#         14
  C:450BH         LINE#         15
  C:4538H         LINE#         16
  -------         ENDPROC       _QUEUEISFULL
  -------         PROC          _QUEUELEN
  D:0001H         SYMBOL        queue
  C:498DH         LINE#         18
  C:498DH         LINE#         19
BL51 BANKED LINKER/LOCATER V6.22                                                      10/09/2015  15:13:05  PAGE 49


  C:498DH         LINE#         20
  C:49A6H         LINE#         21
  -------         ENDPROC       _QUEUELEN
  -------         PROC          _ENQUEUE
  X:01A0H         SYMBOL        queue
  X:01A3H         SYMBOL        element
  C:3EFBH         LINE#         23
  C:3F0BH         LINE#         24
  C:3F0BH         LINE#         25
  C:3F10H         LINE#         26
  C:3F10H         LINE#         27
  C:3F2FH         LINE#         28
  C:3F56H         LINE#         29
  C:3F56H         LINE#         31
  C:3F5BH         LINE#         32
  -------         ENDPROC       _ENQUEUE
  -------         PROC          _DEQUEUE
  X:01A0H         SYMBOL        queue
  -------         DO            
  X:01A3H         SYMBOL        result
  -------         ENDDO         
  C:401AH         LINE#         34
  C:4025H         LINE#         35
  C:4025H         LINE#         38
  C:4028H         LINE#         39
  C:402DH         LINE#         40
  C:402DH         LINE#         41
  C:404AH         LINE#         42
  C:4071H         LINE#         43
  C:4071H         LINE#         45
  C:4076H         LINE#         46
  -------         ENDPROC       _DEQUEUE
  -------         ENDMOD        FIFO

  -------         MODULE        PROTOCOL
  C:0000H         SYMBOL        _ICE_DUMMY_
  C:0B9DH         SYMBOL        _Protocol_StaResp
  B:0023H.3       SYMBOL        isWaitingHeader
  C:46E6H         SYMBOL        CMD_POWER_CTR_DEAL
  C:38DCH         SYMBOL        CMD_GET_ENE_DATAS_DEAL
  C:47DAH         SYMBOL        CMD_AION_CTR_DEAL
  C:43C8H         SYMBOL        CMD_RT_SET_DEAL
  C:47F7H         SYMBOL        CMD_UV_CTR_DEAL
  C:1BBEH         SYMBOL        CMD_GET_DEVICE_INFO_DEAL
  C:49A7H         SYMBOL        CMD_WIFI_STA_CHANGE_DEAL
  C:001EH         SYMBOL        CMD_GET_SYS_STA_DEAL
  C:006AH         SYMBOL        CMD_DUMMY_DEAL
  C:433FH         SYMBOL        CMD_FAN_CTR_DEAL
  C:1F0EH         PUBLIC        Protocol_Task
  C:4C15H         PUBLIC        Protocol_Init
  C:3375H         PUBLIC        Protocol_ResetWifiMode
  C:482FH         SYMBOL        CMD_MEM_SET_DEAL
  C:23B8H         SYMBOL        CMD_GET_PM_DATAS_DEAL
  C:4A92H         SYMBOL        CMD_CLEAN_CTR_DEAL
  C:4A7CH         SYMBOL        CMD_FIX_CTR_DEAL
  X:01EAH         SYMBOL        rxIndex
  C:4B9BH         SYMBOL        CMD_REST_DEAL
BL51 BANKED LINKER/LOCATER V6.22                                                      10/09/2015  15:13:05  PAGE 50


  C:42AAH         PUBLIC        ProtocolTab
  C:3A35H         PUBLIC        Protocol_EnterATmode
  C:3DA8H         SYMBOL        CMD_TIMER_CTR_DEAL
  -------         PROC          _PROTOCOL_STARESP
  X:019BH         SYMBOL        cmd
  -------         DO            
  X:019CH         SYMBOL        sum
  -------         ENDDO         
  C:0B9DH         LINE#         41
  C:0BA2H         LINE#         42
  C:0BA2H         LINE#         45
  C:0BA5H         LINE#         47
  C:0BB5H         LINE#         48
  C:0BC5H         LINE#         50
  C:0BDEH         LINE#         51
  C:0BF4H         LINE#         53
  C:0C0DH         LINE#         55
  C:0C26H         LINE#         56
  C:0C40H         LINE#         58
  C:0C59H         LINE#         59
  C:0C73H         LINE#         61
  C:0C8CH         LINE#         62
  C:0CA5H         LINE#         64
  C:0CBEH         LINE#         65
  C:0CD8H         LINE#         67
  C:0CF0H         LINE#         68
  C:0D08H         LINE#         70
  C:0D16H         LINE#         71
  C:0D16H         LINE#         72
  C:0D17H         LINE#         73
  C:0D19H         LINE#         75
  C:0D19H         LINE#         76
  C:0D27H         LINE#         77
  C:0D27H         LINE#         79
  C:0D48H         LINE#         80
  C:0D69H         LINE#         82
  C:0D82H         LINE#         83
  C:0D9BH         LINE#         85
  C:0DB4H         LINE#         86
  C:0DCDH         LINE#         87
  C:0DE6H         LINE#         88
  C:0DFFH         LINE#         90
  C:0E18H         LINE#         91
  C:0E31H         LINE#         92
  C:0E4AH         LINE#         93
  C:0E63H         LINE#         95
  C:0E7CH         LINE#         96
  C:0E95H         LINE#         97
  C:0EAEH         LINE#         98
  C:0EC7H         LINE#         100
  C:0EDDH         LINE#         101
  C:0EF3H         LINE#         103
  C:0F09H         LINE#         105
  C:0F1FH         LINE#         106
  C:0F35H         LINE#         108
  C:0F4BH         LINE#         110
  C:0F61H         LINE#         112
BL51 BANKED LINKER/LOCATER V6.22                                                      10/09/2015  15:13:05  PAGE 51


  C:0F77H         LINE#         113
  C:0F8DH         LINE#         116
  C:0FA0H         LINE#         117
  C:0FB0H         LINE#         119
  -------         ENDPROC       _PROTOCOL_STARESP
  -------         PROC          CMD_DUMMY_DEAL
  C:006AH         LINE#         123
  C:006AH         LINE#         124
  C:006AH         LINE#         126
  -------         ENDPROC       CMD_DUMMY_DEAL
  -------         PROC          CMD_GET_SYS_STA_DEAL
  C:001EH         LINE#         128
  C:001EH         LINE#         129
  C:001EH         LINE#         130
  -------         ENDPROC       CMD_GET_SYS_STA_DEAL
  -------         PROC          CMD_POWER_CTR_DEAL
  C:46E6H         LINE#         132
  C:46E6H         LINE#         133
  C:46E6H         LINE#         134
  C:46EFH         LINE#         135
  C:46F2H         LINE#         136
  C:46F2H         LINE#         137
  C:46F6H         LINE#         138
  C:46F8H         LINE#         140
  C:46F8H         LINE#         141
  C:4703H         LINE#         142
  C:4703H         LINE#         143
  C:470CH         LINE#         144
  -------         ENDPROC       CMD_POWER_CTR_DEAL
  -------         PROC          CMD_FAN_CTR_DEAL
  C:433FH         LINE#         146
  C:433FH         LINE#         147
  C:433FH         LINE#         148
  C:4347H         LINE#         149
  C:4347H         LINE#         150
  C:434EH         LINE#         151
  C:434EH         LINE#         152
  C:4350H         LINE#         153
  C:4352H         LINE#         155
  C:4352H         LINE#         156
  C:4354H         LINE#         157
  C:4359H         LINE#         158
  C:4359H         LINE#         161
  C:4361H         LINE#         162
  C:4361H         LINE#         163
  C:4365H         LINE#         164
  C:4365H         LINE#         165
  C:4367H         LINE#         167
  C:436DH         LINE#         168
  C:436DH         LINE#         169
  C:4373H         LINE#         170
  C:4377H         LINE#         171
  C:4377H         LINE#         173
  C:4380H         LINE#         174
  C:4380H         LINE#         176
  -------         ENDPROC       CMD_FAN_CTR_DEAL
  -------         PROC          CMD_FIX_CTR_DEAL
BL51 BANKED LINKER/LOCATER V6.22                                                      10/09/2015  15:13:05  PAGE 52


  C:4A7CH         LINE#         178
  C:4A7CH         LINE#         179
  C:4A7CH         LINE#         180
  C:4A84H         LINE#         181
  C:4A8DH         LINE#         182
  -------         ENDPROC       CMD_FIX_CTR_DEAL
  -------         PROC          CMD_CLEAN_CTR_DEAL
  C:4A92H         LINE#         184
  C:4A92H         LINE#         185
  C:4A92H         LINE#         186
  C:4A9AH         LINE#         187
  C:4AA3H         LINE#         188
  -------         ENDPROC       CMD_CLEAN_CTR_DEAL
  -------         PROC          CMD_AION_CTR_DEAL
  C:47DAH         LINE#         190
  C:47DAH         LINE#         191
  C:47DAH         LINE#         192
  C:47E1H         LINE#         193
  C:47E1H         LINE#         194
  C:47E9H         LINE#         195
  C:47F2H         LINE#         196
  C:47F2H         LINE#         198
  -------         ENDPROC       CMD_AION_CTR_DEAL
  -------         PROC          CMD_UV_CTR_DEAL
  C:47F7H         LINE#         200
  C:47F7H         LINE#         201
  C:47F7H         LINE#         202
  C:47FEH         LINE#         203
  C:47FEH         LINE#         204
  C:4806H         LINE#         205
  C:480FH         LINE#         206
  C:480FH         LINE#         208
  -------         ENDPROC       CMD_UV_CTR_DEAL
  -------         PROC          CMD_TIMER_CTR_DEAL
  C:3DA8H         LINE#         210
  C:3DA8H         LINE#         211
  C:3DA8H         LINE#         212
  C:3DB0H         LINE#         213
  C:3DB8H         LINE#         214
  C:3DC0H         LINE#         215
  C:3DC8H         LINE#         217
  C:3DD0H         LINE#         218
  C:3DD8H         LINE#         219
  C:3DE0H         LINE#         220
  C:3DE8H         LINE#         222
  C:3DF0H         LINE#         223
  C:3DF8H         LINE#         224
  C:3E00H         LINE#         225
  C:3E08H         LINE#         227
  C:3E0AH         LINE#         228
  C:3E11H         LINE#         230
  C:3E14H         LINE#         232
  C:3E1DH         LINE#         233
  -------         ENDPROC       CMD_TIMER_CTR_DEAL
  -------         PROC          CMD_GET_PM_DATAS_DEAL
  -------         DO            
  X:019BH         SYMBOL        sum
BL51 BANKED LINKER/LOCATER V6.22                                                      10/09/2015  15:13:05  PAGE 53


  X:019CH         SYMBOL        i
  X:019DH         SYMBOL        ptr
  -------         ENDDO         
  C:23B8H         LINE#         235
  C:23B8H         LINE#         236
  C:23B8H         LINE#         241
  C:23C2H         LINE#         242
  C:23C2H         LINE#         243
  C:23CDH         LINE#         244
  C:23CFH         LINE#         246
  C:23CFH         LINE#         247
  C:23DAH         LINE#         248
  C:23DAH         LINE#         250
  C:23EAH         LINE#         251
  C:23FAH         LINE#         253
  C:240FH         LINE#         254
  C:2425H         LINE#         257
  C:2448H         LINE#         258
  C:246EH         LINE#         260
  C:247BH         LINE#         261
  C:247BH         LINE#         262
  C:24ADH         LINE#         263
  C:24E2H         LINE#         264
  C:24E8H         LINE#         266
  C:24FBH         LINE#         267
  C:250BH         LINE#         269
  C:2514H         LINE#         271
  -------         ENDPROC       CMD_GET_PM_DATAS_DEAL
  -------         PROC          CMD_GET_ENE_DATAS_DEAL
  -------         DO            
  X:019BH         SYMBOL        sum
  X:019CH         SYMBOL        i
  -------         ENDDO         
  C:38DCH         LINE#         273
  C:38DCH         LINE#         274
  C:38DCH         LINE#         278
  C:38ECH         LINE#         279
  C:38FCH         LINE#         281
  C:3911H         LINE#         282
  C:3927H         LINE#         284
  C:3934H         LINE#         285
  C:3934H         LINE#         286
  C:3954H         LINE#         287
  C:395AH         LINE#         289
  C:396DH         LINE#         290
  C:397DH         LINE#         292
  C:3986H         LINE#         294
  -------         ENDPROC       CMD_GET_ENE_DATAS_DEAL
  -------         PROC          CMD_RT_SET_DEAL
  C:43C8H         LINE#         296
  C:43C8H         LINE#         297
  C:43C8H         LINE#         299
  C:43DDH         LINE#         300
  C:43E5H         LINE#         301
  C:43EDH         LINE#         302
  C:43F5H         LINE#         303
  C:43FDH         LINE#         305
BL51 BANKED LINKER/LOCATER V6.22                                                      10/09/2015  15:13:05  PAGE 54


  C:4406H         LINE#         307
  -------         ENDPROC       CMD_RT_SET_DEAL
  -------         PROC          CMD_MEM_SET_DEAL
  C:482FH         LINE#         309
  C:482FH         LINE#         310
  C:482FH         LINE#         313
  C:4831H         LINE#         314
  C:483CH         LINE#         316
  C:4845H         LINE#         317
  -------         ENDPROC       CMD_MEM_SET_DEAL
  -------         PROC          CMD_REST_DEAL
  C:4B9BH         LINE#         319
  C:4B9BH         LINE#         320
  C:4B9BH         LINE#         323
  C:4BA4H         LINE#         325
  -------         ENDPROC       CMD_REST_DEAL
  -------         PROC          CMD_GET_DEVICE_INFO_DEAL
  -------         DO            
  X:019BH         SYMBOL        sum
  -------         ENDDO         
  C:1BBEH         LINE#         329
  C:1BBEH         LINE#         330
  C:1BBEH         LINE#         333
  C:1BC3H         LINE#         335
  C:1BD3H         LINE#         336
  C:1BE3H         LINE#         338
  C:1BF9H         LINE#         340
  C:1C0FH         LINE#         343
  C:1C25H         LINE#         344
  C:1C3BH         LINE#         346
  C:1C51H         LINE#         347
  C:1C67H         LINE#         349
  C:1C7DH         LINE#         350
  C:1C93H         LINE#         352
  C:1CA9H         LINE#         353
  C:1CBFH         LINE#         355
  C:1CD5H         LINE#         356
  C:1CEBH         LINE#         358
  C:1D01H         LINE#         359
  C:1D17H         LINE#         361
  C:1D2DH         LINE#         362
  C:1D43H         LINE#         364
  C:1D56H         LINE#         366
  C:1D66H         LINE#         368
  -------         ENDPROC       CMD_GET_DEVICE_INFO_DEAL
  -------         PROC          CMD_WIFI_STA_CHANGE_DEAL
  C:49A7H         LINE#         370
  C:49A7H         LINE#         371
  C:49A7H         LINE#         373
  C:49AFH         LINE#         375
  C:49B7H         LINE#         377
  C:49BFH         LINE#         378
  -------         ENDPROC       CMD_WIFI_STA_CHANGE_DEAL
  -------         PROC          PROTOCOL_INIT
  C:4C15H         LINE#         410
  C:4C15H         LINE#         411
  C:4C15H         LINE#         412
BL51 BANKED LINKER/LOCATER V6.22                                                      10/09/2015  15:13:05  PAGE 55


  C:4C17H         LINE#         413
  C:4C1CH         LINE#         414
  -------         ENDPROC       PROTOCOL_INIT
  -------         PROC          PROTOCOL_ENTERATMODE
  C:3A35H         LINE#         416
  C:3A35H         LINE#         417
  C:3A35H         LINE#         419
  C:3A45H         LINE#         420
  C:3A55H         LINE#         421
  C:3A65H         LINE#         422
  C:3A75H         LINE#         423
  C:3A85H         LINE#         424
  C:3A95H         LINE#         425
  C:3AA5H         LINE#         426
  C:3AB5H         LINE#         427
  C:3AC5H         LINE#         428
  C:3AD5H         LINE#         430
  -------         ENDPROC       PROTOCOL_ENTERATMODE
  -------         PROC          PROTOCOL_RESETWIFIMODE
  C:3375H         LINE#         433
  C:3375H         LINE#         434
  C:3375H         LINE#         437
  C:3385H         LINE#         438
  C:3395H         LINE#         439
  C:33A5H         LINE#         440
  C:33B5H         LINE#         441
  C:33C5H         LINE#         442
  C:33D5H         LINE#         443
  C:33E5H         LINE#         444
  C:33F5H         LINE#         445
  C:3405H         LINE#         446
  C:3415H         LINE#         447
  C:3425H         LINE#         448
  C:3435H         LINE#         449
  C:3445H         LINE#         450
  C:3455H         LINE#         452
  -------         ENDPROC       PROTOCOL_RESETWIFIMODE
  -------         PROC          PROTOCOL_TASK
  -------         DO            
  X:0197H         SYMBOL        dat
  X:0198H         SYMBOL        cmdDeal
  X:01E7H         SYMBOL        checksum
  X:01E8H         SYMBOL        len
  X:01E9H         SYMBOL        cmd
  -------         ENDDO         
  C:1F0EH         LINE#         455
  C:1F0EH         LINE#         456
  C:1F0EH         LINE#         465
  C:1F1CH         LINE#         467
  C:1F3AH         LINE#         468
  C:1F3AH         LINE#         470
  C:1F4CH         LINE#         471
  C:1F73H         LINE#         474
  C:1F76H         LINE#         475
  C:1F76H         LINE#         476
  C:1F7DH         LINE#         477
  C:1F7DH         LINE#         478
BL51 BANKED LINKER/LOCATER V6.22                                                      10/09/2015  15:13:05  PAGE 56


  C:1F83H         LINE#         479
  C:1F88H         LINE#         480
  C:1F88H         LINE#         481
  C:1F8AH         LINE#         482
  C:1F8BH         LINE#         483
  C:1F8FH         LINE#         484
  C:1F8FH         LINE#         485
  C:1F91H         LINE#         487
  C:1F91H         LINE#         488
  C:1F91H         LINE#         489
  C:1F91H         LINE#         490
  C:1F94H         LINE#         492
  C:1F94H         LINE#         493
  C:1FA8H         LINE#         494
  C:1FAEH         LINE#         496
  C:1FB4H         LINE#         498
  C:1FB9H         LINE#         499
  C:1FB9H         LINE#         500
  C:1FC1H         LINE#         501
  C:1FC4H         LINE#         502
  C:1FCCH         LINE#         503
  C:1FCCH         LINE#         504
  C:1FDCH         LINE#         505
  C:1FDCH         LINE#         506
  C:1FF0H         LINE#         507
  C:1FFEH         LINE#         508
  C:2000H         LINE#         509
  C:2008H         LINE#         510
  C:2008H         LINE#         511
  C:2011H         LINE#         512
  C:2014H         LINE#         513
  C:2016H         LINE#         514
  C:201AH         LINE#         515
  C:201AH         LINE#         516
  C:2023H         LINE#         517
  C:203BH         LINE#         518
  C:203DH         LINE#         520
  C:203DH         LINE#         522
  C:203DH         LINE#         523
  C:203FH         LINE#         525
  C:203FH         LINE#         527
  C:204EH         LINE#         528
  C:204EH         LINE#         530
  C:2050H         LINE#         531
  C:2056H         LINE#         533
  C:2056H         LINE#         534
  C:2056H         LINE#         535
  C:2072H         LINE#         536
  C:2072H         LINE#         538
  C:2098H         LINE#         541
  C:2098H         LINE#         543
  C:20A4H         LINE#         544
  C:20A4H         LINE#         546
  C:20A6H         LINE#         547
  C:20ABH         LINE#         548
  C:20ABH         LINE#         549
  C:20ABH         LINE#         550
BL51 BANKED LINKER/LOCATER V6.22                                                      10/09/2015  15:13:05  PAGE 57


  C:20AEH         LINE#         551
  -------         ENDPROC       PROTOCOL_TASK
  -------         ENDMOD        PROTOCOL

  -------         MODULE        UART
  C:0000H         SYMBOL        _ICE_DUMMY_
  C:0026H         PUBLIC        Uart_SendStartup
  C:4539H         PUBLIC        Uart_MemoryInit
  X:006AH         PUBLIC        Rx_Timeout
  X:006BH         PUBLIC        Tx_Timeout
  X:006CH         PUBLIC        Rx_Queue
  X:006FH         PUBLIC        Tx_Queue
  D:00F5H         PUBLIC        USI1DR
  B:0022H.5       PUBLIC        Rx_QueueDataExist
  X:0072H         PUBLIC        Rx_Buf
  X:00A5H         PUBLIC        Tx_Buf
  C:4C04H         PUBLIC        Uart_RxDatsDeal
  B:0022H.6       PUBLIC        Tx_Busy
  D:00EAH         PUBLIC        USI1CR2
  -------         PROC          UART_MEMORYINIT
  -------         DO            
  X:0000H         SYMBOL        Rx_queue
  X:0035H         SYMBOL        Tx_queue
  -------         ENDDO         
  C:4539H         LINE#         15
  C:4539H         LINE#         16
  C:4539H         LINE#         20
  C:454AH         LINE#         21
  C:454DH         LINE#         23
  C:455EH         LINE#         24
  C:4561H         LINE#         26
  C:4566H         LINE#         27
  C:4568H         LINE#         29
  C:456AH         LINE#         30
  C:456CH         LINE#         31
  -------         ENDPROC       UART_MEMORYINIT
  -------         PROC          UART_SENDSTARTUP
  -------         DO            
  D:0007H         SYMBOL        len
  -------         ENDDO         
  C:0026H         LINE#         33
  C:0026H         LINE#         34
  C:0026H         LINE#         37
  C:0029H         LINE#         38
  C:0029H         LINE#         39
  C:0037H         LINE#         41
  C:003DH         LINE#         42
  C:003EH         LINE#         44
  C:003EH         LINE#         45
  C:0042H         LINE#         46
  C:0042H         LINE#         47
  C:0052H         LINE#         48
  C:0054H         LINE#         50
  C:0054H         LINE#         51
  C:0064H         LINE#         52
  C:0066H         LINE#         53
  C:0066H         LINE#         55
BL51 BANKED LINKER/LOCATER V6.22                                                      10/09/2015  15:13:05  PAGE 58


  C:0069H         LINE#         56
  C:0069H         LINE#         57
  -------         ENDPROC       UART_SENDSTARTUP
  -------         PROC          UART_RXDATSDEAL
  C:4C04H         LINE#         59
  C:4C04H         LINE#         60
  C:4C04H         LINE#         61
  C:4C07H         LINE#         62
  C:4C07H         LINE#         63
  C:4C0AH         LINE#         64
  C:4C0CH         LINE#         65
  C:4C0CH         LINE#         66
  -------         ENDPROC       UART_RXDATSDEAL
  -------         ENDMOD        UART

  -------         MODULE        FSM
  C:0000H         SYMBOL        _ICE_DUMMY_
  C:00A2H         PUBLIC        Task_DoNothing
  X:01EDH         PUBLIC        currentState
  C:484AH         SYMBOL        doNothing
  C:411DH         PUBLIC        _State_TransitionTo
  -------         PROC          TASK_DONOTHING
  C:00A2H         LINE#         3
  -------         ENDPROC       TASK_DONOTHING
  -------         PROC          _STATE_TRANSITIONTO
  X:019CH         SYMBOL        state
  B:0020H.4       SYMBOL        desStateEnterEventEnable
  B:0020H.5       SYMBOL        currentStateExitEventEnable
  C:411DH         LINE#         20
  C:4125H         LINE#         23
  C:4125H         LINE#         25
  C:4128H         LINE#         26
  C:4128H         LINE#         27
  C:4142H         LINE#         28
  C:4142H         LINE#         31
  C:4151H         LINE#         34
  C:4154H         LINE#         35
  C:4154H         LINE#         36
  C:416EH         LINE#         37
  C:416EH         LINE#         38
  -------         ENDPROC       _STATE_TRANSITIONTO
  -------         ENDMOD        FSM

  -------         MODULE        STATE_TEST
  C:0000H         SYMBOL        _ICE_DUMMY_
  C:4C5FH         SYMBOL        _enterEventDeal
  C:4C59H         SYMBOL        _keyActionDeal
  C:4865H         PUBLIC        State_Test
  C:4C60H         SYMBOL        _exitEventDeal
  C:4C5BH         SYMBOL        _timeTick
  C:4C5DH         SYMBOL        _irDataDeal
  C:4C5AH         SYMBOL        _taskExe
  C:4C5CH         SYMBOL        _motorCtr
  C:4C5EH         SYMBOL        _rxDataDeal
  C:2FACH         SYMBOL        _displayControl
  -------         PROC          _KEYACTIONDEAL
  C:4C59H         LINE#         4
BL51 BANKED LINKER/LOCATER V6.22                                                      10/09/2015  15:13:05  PAGE 59


  C:4C59H         LINE#         5
  C:4C59H         LINE#         7
  -------         ENDPROC       _KEYACTIONDEAL
  -------         PROC          _DISPLAYCONTROL
  C:2FACH         LINE#         9
  C:2FACH         LINE#         10
  C:2FACH         LINE#         11
  C:2FAFH         LINE#         12
  C:2FB6H         LINE#         13
  C:2FBDH         LINE#         15
  C:2FCBH         LINE#         16
  C:2FCBH         LINE#         17
  C:2FD9H         LINE#         18
  C:2FD9H         LINE#         20
  C:2FE7H         LINE#         21
  C:2FF5H         LINE#         30
  C:3001H         LINE#         31
  C:3008H         LINE#         32
  C:3016H         LINE#         33
  C:301DH         LINE#         34
  C:302BH         LINE#         35
  C:3035H         LINE#         36
  C:303CH         LINE#         37
  C:3043H         LINE#         38
  C:3046H         LINE#         39
  C:3049H         LINE#         40
  C:304CH         LINE#         41
  C:304FH         LINE#         44
  C:3056H         LINE#         45
  C:305DH         LINE#         46
  C:306CH         LINE#         48
  C:3076H         LINE#         50
  C:307BH         LINE#         52
  C:3080H         LINE#         54
  C:3095H         LINE#         56
  C:3098H         LINE#         57
  C:3098H         LINE#         58
  C:309FH         LINE#         59
  C:309FH         LINE#         61
  C:30A5H         LINE#         62
  -------         ENDPROC       _DISPLAYCONTROL
  -------         PROC          _TASKEXE
  C:4C5AH         LINE#         64
  C:4C5AH         LINE#         65
  C:4C5AH         LINE#         67
  -------         ENDPROC       _TASKEXE
  -------         PROC          _TIMETICK
  C:4C5BH         LINE#         70
  C:4C5BH         LINE#         71
  C:4C5BH         LINE#         73
  -------         ENDPROC       _TIMETICK
  -------         PROC          _MOTORCTR
  C:4C5CH         LINE#         76
  C:4C5CH         LINE#         77
  C:4C5CH         LINE#         79
  -------         ENDPROC       _MOTORCTR
  -------         PROC          _IRDATADEAL
BL51 BANKED LINKER/LOCATER V6.22                                                      10/09/2015  15:13:05  PAGE 60


  C:4C5DH         LINE#         82
  C:4C5DH         LINE#         83
  C:4C5DH         LINE#         89
  -------         ENDPROC       _IRDATADEAL
  -------         PROC          _RXDATADEAL
  C:4C5EH         LINE#         92
  C:4C5EH         LINE#         93
  C:4C5EH         LINE#         95
  -------         ENDPROC       _RXDATADEAL
  -------         PROC          _ENTEREVENTDEAL
  C:4C5FH         LINE#         97
  C:4C5FH         LINE#         98
  C:4C5FH         LINE#         100
  -------         ENDPROC       _ENTEREVENTDEAL
  -------         PROC          _EXITEVENTDEAL
  C:4C60H         LINE#         102
  C:4C60H         LINE#         103
  C:4C60H         LINE#         105
  -------         ENDPROC       _EXITEVENTDEAL
  -------         ENDMOD        STATE_TEST

  -------         MODULE        STATE_STARTUP
  C:0000H         SYMBOL        _ICE_DUMMY_
  C:4BA9H         SYMBOL        _enterEventDeal
  C:4C61H         SYMBOL        _keyActionDeal
  C:4C65H         SYMBOL        _exitEventDeal
  C:49C0H         SYMBOL        _timeTick
  C:4C63H         SYMBOL        _irDataDeal
  C:4C62H         SYMBOL        _taskExe
  C:4C44H         SYMBOL        _motorCtr
  C:4C64H         SYMBOL        _rxDataDeal
  C:4BE7H         SYMBOL        _displayControl
  C:4880H         PUBLIC        State_Startup
  -------         PROC          _KEYACTIONDEAL
  C:4C61H         LINE#         4
  C:4C61H         LINE#         5
  C:4C61H         LINE#         7
  -------         ENDPROC       _KEYACTIONDEAL
  -------         PROC          _DISPLAYCONTROL
  C:4BE7H         LINE#         9
  C:4BE7H         LINE#         10
  C:4BE7H         LINE#         12
  C:4BEDH         LINE#         13
  -------         ENDPROC       _DISPLAYCONTROL
  -------         PROC          _TASKEXE
  C:4C62H         LINE#         16
  C:4C62H         LINE#         17
  C:4C62H         LINE#         19
  -------         ENDPROC       _TASKEXE
  -------         PROC          _TIMETICK
  C:49C0H         LINE#         22
  C:49C0H         LINE#         23
  C:49C0H         LINE#         24
  C:49C6H         LINE#         25
  C:49CCH         LINE#         26
  C:49CCH         LINE#         27
  C:49D7H         LINE#         28
BL51 BANKED LINKER/LOCATER V6.22                                                      10/09/2015  15:13:05  PAGE 61


  C:49D7H         LINE#         29
  -------         ENDPROC       _TIMETICK
  -------         PROC          _MOTORCTR
  C:4C44H         LINE#         32
  C:4C44H         LINE#         33
  C:4C44H         LINE#         34
  -------         ENDPROC       _MOTORCTR
  -------         PROC          _IRDATADEAL
  C:4C63H         LINE#         38
  C:4C63H         LINE#         39
  C:4C63H         LINE#         41
  -------         ENDPROC       _IRDATADEAL
  -------         PROC          _RXDATADEAL
  C:4C64H         LINE#         44
  C:4C64H         LINE#         45
  C:4C64H         LINE#         47
  -------         ENDPROC       _RXDATADEAL
  -------         PROC          _ENTEREVENTDEAL
  C:4BA9H         LINE#         49
  C:4BA9H         LINE#         50
  C:4BA9H         LINE#         51
  C:4BAEH         LINE#         53
  C:4BB4H         LINE#         54
  C:4BB6H         LINE#         55
  -------         ENDPROC       _ENTEREVENTDEAL
  -------         PROC          _EXITEVENTDEAL
  C:4C65H         LINE#         57
  C:4C65H         LINE#         58
  C:4C65H         LINE#         60
  -------         ENDPROC       _EXITEVENTDEAL
  -------         ENDMOD        STATE_STARTUP

  -------         MODULE        STATE_STANDBY
  C:0000H         SYMBOL        _ICE_DUMMY_
  C:4660H         SYMBOL        _enterEventDeal
  C:328EH         SYMBOL        _keyActionDeal
  C:4C68H         SYMBOL        _exitEventDeal
  C:2890H         SYMBOL        _timeTick
  C:299BH         SYMBOL        _irDataDeal
  C:4C66H         SYMBOL        _taskExe
  X:01EFH         SYMBOL        NHVMode_countdown
  C:489BH         PUBLIC        State_Standby
  C:4C47H         SYMBOL        _motorCtr
  C:4C67H         SYMBOL        _rxDataDeal
  C:2AA3H         SYMBOL        _displayControl
  X:01F0H         SYMBOL        wifiResetCmdDelay
  -------         PROC          _KEYACTIONDEAL
  C:328EH         LINE#         6
  C:328EH         LINE#         7
  C:328EH         LINE#         9
  C:3294H         LINE#         10
  C:3294H         LINE#         11
  C:3297H         LINE#         12
  C:329AH         LINE#         14
  C:329AH         LINE#         15
  C:32A0H         LINE#         17
  C:32A6H         LINE#         18
BL51 BANKED LINKER/LOCATER V6.22                                                      10/09/2015  15:13:05  PAGE 62


  C:32A6H         LINE#         20
  C:32A6H         LINE#         23
  C:32AEH         LINE#         24
  C:32AEH         LINE#         26
  C:32B5H         LINE#         27
  C:32B5H         LINE#         28
  C:32BEH         LINE#         29
  C:32C2H         LINE#         30
  C:32C4H         LINE#         32
  C:32CBH         LINE#         33
  C:32CBH         LINE#         34
  C:32D4H         LINE#         35
  C:32D8H         LINE#         36
  C:32DAH         LINE#         38
  C:32E5H         LINE#         39
  C:32E5H         LINE#         40
  C:32EEH         LINE#         41
  C:32F2H         LINE#         42
  C:32F2H         LINE#         43
  C:32F4H         LINE#         44
  C:32FCH         LINE#         45
  C:32FCH         LINE#         47
  C:3303H         LINE#         48
  C:3303H         LINE#         49
  C:330CH         LINE#         50
  C:3310H         LINE#         51
  C:3312H         LINE#         53
  C:3319H         LINE#         54
  C:3319H         LINE#         55
  C:3322H         LINE#         56
  C:3326H         LINE#         57
  C:3328H         LINE#         59
  C:332FH         LINE#         60
  C:332FH         LINE#         61
  C:3338H         LINE#         62
  C:3343H         LINE#         63
  C:3343H         LINE#         64
  C:334BH         LINE#         65
  C:334BH         LINE#         67
  C:334EH         LINE#         68
  C:3353H         LINE#         70
  C:3353H         LINE#         71
  C:3353H         LINE#         72
  C:3355H         LINE#         73
  C:335CH         LINE#         74
  C:335CH         LINE#         76
  C:3363H         LINE#         77
  C:3363H         LINE#         78
  C:3365H         LINE#         79
  C:336BH         LINE#         81
  C:3374H         LINE#         82
  C:3374H         LINE#         83
  C:3374H         LINE#         84
  -------         ENDPROC       _KEYACTIONDEAL
  -------         PROC          _DISPLAYCONTROL
  C:2AA3H         LINE#         86
  C:2AA3H         LINE#         87
BL51 BANKED LINKER/LOCATER V6.22                                                      10/09/2015  15:13:05  PAGE 63


  C:2AA3H         LINE#         88
  C:2AA9H         LINE#         89
  C:2AA9H         LINE#         90
  C:2AB1H         LINE#         92
  C:2AB1H         LINE#         94
  C:2AB8H         LINE#         96
  C:2ABFH         LINE#         97
  C:2AC6H         LINE#         98
  C:2ACDH         LINE#         99
  C:2AD4H         LINE#         102
  C:2ADFH         LINE#         105
  C:2AEEH         LINE#         107
  C:2AF1H         LINE#         108
  C:2AF1H         LINE#         109
  C:2AF8H         LINE#         112
  C:2AFBH         LINE#         113
  C:2AFBH         LINE#         114
  C:2B09H         LINE#         115
  C:2B09H         LINE#         116
  C:2B09H         LINE#         118
  C:2B11H         LINE#         119
  C:2B11H         LINE#         120
  C:2B1DH         LINE#         121
  C:2B24H         LINE#         122
  C:2B33H         LINE#         123
  C:2B33H         LINE#         124
  C:2B33H         LINE#         125
  C:2B3AH         LINE#         126
  C:2B41H         LINE#         127
  C:2B42H         LINE#         128
  C:2B42H         LINE#         129
  C:2B49H         LINE#         130
  C:2B4CH         LINE#         131
  C:2B4DH         LINE#         132
  C:2B4DH         LINE#         133
  C:2B51H         LINE#         134
  C:2B51H         LINE#         135
  C:2B53H         LINE#         136
  C:2B53H         LINE#         137
  C:2B53H         LINE#         138
  C:2B5AH         LINE#         139
  C:2B61H         LINE#         140
  C:2B64H         LINE#         141
  C:2B67H         LINE#         142
  C:2B6AH         LINE#         143
  C:2B6AH         LINE#         144
  C:2B6CH         LINE#         145
  C:2B6CH         LINE#         146
  C:2B6CH         LINE#         148
  C:2B6CH         LINE#         150
  C:2B6FH         LINE#         151
  C:2B6FH         LINE#         152
  C:2B77H         LINE#         153
  C:2B77H         LINE#         154
  C:2B83H         LINE#         155
  C:2B86H         LINE#         156
  C:2B86H         LINE#         157
BL51 BANKED LINKER/LOCATER V6.22                                                      10/09/2015  15:13:05  PAGE 64


  C:2B8DH         LINE#         158
  C:2B8EH         LINE#         159
  C:2B96H         LINE#         160
  C:2B96H         LINE#         161
  C:2B9DH         LINE#         162
  C:2B9EH         LINE#         163
  C:2BA2H         LINE#         164
  C:2BA2H         LINE#         165
  C:2BA9H         LINE#         166
  C:2BA9H         LINE#         167
  C:2BA9H         LINE#         168
  C:2BA9H         LINE#         169
  C:2BA9H         LINE#         170
  -------         ENDPROC       _DISPLAYCONTROL
  -------         PROC          _TASKEXE
  C:4C66H         LINE#         172
  C:4C66H         LINE#         173
  C:4C66H         LINE#         175
  -------         ENDPROC       _TASKEXE
  -------         PROC          _TIMETICK
  C:2890H         LINE#         178
  C:2890H         LINE#         179
  C:2890H         LINE#         180
  C:2896H         LINE#         181
  C:2896H         LINE#         182
  C:2898H         LINE#         183
  C:289BH         LINE#         184
  C:289BH         LINE#         185
  C:289EH         LINE#         186
  C:289EH         LINE#         187
  C:289EH         LINE#         189
  C:28A4H         LINE#         190
  C:28A4H         LINE#         191
  C:28AAH         LINE#         192
  C:28AAH         LINE#         193
  C:28ACH         LINE#         194
  C:28ACH         LINE#         196
  C:28B2H         LINE#         197
  C:28B2H         LINE#         198
  C:28B4H         LINE#         199
  C:28B7H         LINE#         200
  C:28B7H         LINE#         201
  C:28B9H         LINE#         202
  C:28B9H         LINE#         203
  C:28B9H         LINE#         204
  C:28B9H         LINE#         207
  C:28BFH         LINE#         208
  C:28BFH         LINE#         210
  C:28C6H         LINE#         211
  C:28C6H         LINE#         212
  C:28D2H         LINE#         213
  C:28D2H         LINE#         214
  C:2913H         LINE#         216
  C:2913H         LINE#         217
  C:2913H         LINE#         218
  C:2913H         LINE#         219
  C:2913H         LINE#         220
BL51 BANKED LINKER/LOCATER V6.22                                                      10/09/2015  15:13:05  PAGE 65


  C:2913H         LINE#         221
  C:2915H         LINE#         223
  C:2915H         LINE#         225
  C:291BH         LINE#         226
  C:291BH         LINE#         227
  C:2923H         LINE#         228
  C:2923H         LINE#         229
  C:2981H         LINE#         231
  C:2981H         LINE#         233
  C:2986H         LINE#         235
  C:298FH         LINE#         236
  C:299AH         LINE#         237
  C:299AH         LINE#         238
  C:299AH         LINE#         239
  C:299AH         LINE#         240
  C:299AH         LINE#         241
  C:299AH         LINE#         242
  -------         ENDPROC       _TIMETICK
  -------         PROC          _MOTORCTR
  C:4C47H         LINE#         245
  C:4C47H         LINE#         246
  C:4C47H         LINE#         247
  -------         ENDPROC       _MOTORCTR
  -------         PROC          _IRDATADEAL
  C:299BH         LINE#         251
  C:299BH         LINE#         252
  C:299BH         LINE#         253
  C:29A1H         LINE#         254
  C:29A1H         LINE#         255
  C:29A5H         LINE#         257
  C:29A5H         LINE#         258
  C:29ABH         LINE#         260
  C:29B6H         LINE#         261
  C:29B6H         LINE#         262
  C:29BFH         LINE#         263
  C:29CAH         LINE#         264
  C:29CAH         LINE#         265
  C:29D8H         LINE#         266
  C:29D8H         LINE#         267
  C:29DFH         LINE#         268
  C:29DFH         LINE#         269
  C:29E2H         LINE#         270
  C:29E4H         LINE#         272
  C:29E4H         LINE#         273
  C:29EBH         LINE#         274
  C:29EBH         LINE#         275
  C:29F3H         LINE#         277
  C:29F3H         LINE#         278
  C:29F6H         LINE#         279
  C:2A04H         LINE#         280
  C:2A04H         LINE#         281
  C:2A0EH         LINE#         282
  C:2A0EH         LINE#         283
  C:2A14H         LINE#         284
  C:2A14H         LINE#         285
  C:2A1AH         LINE#         286
  C:2A1CH         LINE#         288
BL51 BANKED LINKER/LOCATER V6.22                                                      10/09/2015  15:13:05  PAGE 66


  C:2A1CH         LINE#         289
  C:2A23H         LINE#         290
  C:2A23H         LINE#         291
  C:2A23H         LINE#         292
  C:2A23H         LINE#         293
  C:2A25H         LINE#         294
  C:2A33H         LINE#         295
  C:2A33H         LINE#         296
  C:2A3AH         LINE#         297
  C:2A3AH         LINE#         298
  C:2A42H         LINE#         299
  C:2A42H         LINE#         300
  C:2A48H         LINE#         301
  C:2A4AH         LINE#         303
  C:2A4AH         LINE#         304
  C:2A53H         LINE#         305
  C:2A53H         LINE#         306
  C:2A53H         LINE#         307
  C:2A53H         LINE#         308
  C:2A55H         LINE#         309
  C:2A63H         LINE#         310
  C:2A63H         LINE#         311
  C:2A6AH         LINE#         312
  C:2A6AH         LINE#         313
  C:2A72H         LINE#         314
  C:2A72H         LINE#         315
  C:2A78H         LINE#         316
  C:2A7AH         LINE#         318
  C:2A7AH         LINE#         319
  C:2A83H         LINE#         320
  C:2A83H         LINE#         321
  C:2A83H         LINE#         322
  C:2A83H         LINE#         323
  C:2A85H         LINE#         324
  C:2A91H         LINE#         325
  C:2A91H         LINE#         326
  C:2A93H         LINE#         327
  C:2A99H         LINE#         329
  C:2AA2H         LINE#         330
  C:2AA2H         LINE#         331
  -------         ENDPROC       _IRDATADEAL
  -------         PROC          _RXDATADEAL
  C:4C67H         LINE#         334
  C:4C67H         LINE#         335
  C:4C67H         LINE#         337
  -------         ENDPROC       _RXDATADEAL
  -------         PROC          _ENTEREVENTDEAL
  C:4660H         LINE#         339
  C:4660H         LINE#         340
  C:4660H         LINE#         341
  C:4665H         LINE#         343
  C:4669H         LINE#         345
  C:466BH         LINE#         346
  C:4671H         LINE#         347
  C:4677H         LINE#         349
  C:4679H         LINE#         351
  C:467FH         LINE#         354
BL51 BANKED LINKER/LOCATER V6.22                                                      10/09/2015  15:13:05  PAGE 67


  C:4686H         LINE#         355
  C:4686H         LINE#         356
  C:4689H         LINE#         357
  C:4689H         LINE#         358
  C:468CH         LINE#         359
  C:468CH         LINE#         360
  C:468CH         LINE#         361
  -------         ENDPROC       _ENTEREVENTDEAL
  -------         PROC          _EXITEVENTDEAL
  C:4C68H         LINE#         363
  C:4C68H         LINE#         364
  C:4C68H         LINE#         366
  -------         ENDPROC       _EXITEVENTDEAL
  -------         ENDMOD        STATE_STANDBY

  -------         MODULE        STATE_CLOCKSETTING
  C:0000H         SYMBOL        _ICE_DUMMY_
  C:4BF1H         SYMBOL        _enterEventDeal
  X:01F2H         SYMBOL        clockSettingItem
  C:3D2AH         SYMBOL        _keyActionDeal
  C:4C6CH         SYMBOL        _exitEventDeal
  C:49D8H         SYMBOL        _timeTick
  C:4C6AH         SYMBOL        _irDataDeal
  C:48B6H         PUBLIC        State_ClockSetting
  C:4C69H         SYMBOL        _taskExe
  C:4C4AH         SYMBOL        _motorCtr
  C:4C6BH         SYMBOL        _rxDataDeal
  C:46BAH         SYMBOL        _displayControl
  C:4B40H         SYMBOL        hourDec
  C:4B50H         SYMBOL        minDec
  C:4B6FH         SYMBOL        hourInc
  C:4B7EH         SYMBOL        minInc
  -------         PROC          HOURINC
  C:4B6FH         LINE#         7
  C:4B6FH         LINE#         8
  C:4B6FH         LINE#         9
  C:4B75H         LINE#         10
  C:4B7BH         LINE#         11
  C:4B7BH         LINE#         12
  C:4B7DH         LINE#         13
  C:4B7DH         LINE#         14
  -------         ENDPROC       HOURINC
  -------         PROC          HOURDEC
  C:4B40H         LINE#         16
  C:4B40H         LINE#         17
  C:4B40H         LINE#         18
  C:4B46H         LINE#         19
  C:4B46H         LINE#         20
  C:4B48H         LINE#         21
  C:4B49H         LINE#         23
  C:4B49H         LINE#         24
  C:4B4FH         LINE#         25
  C:4B4FH         LINE#         26
  -------         ENDPROC       HOURDEC
  -------         PROC          MININC
  C:4B7EH         LINE#         28
  C:4B7EH         LINE#         29
BL51 BANKED LINKER/LOCATER V6.22                                                      10/09/2015  15:13:05  PAGE 68


  C:4B7EH         LINE#         30
  C:4B84H         LINE#         31
  C:4B8AH         LINE#         32
  C:4B8AH         LINE#         33
  C:4B8CH         LINE#         34
  C:4B8CH         LINE#         35
  -------         ENDPROC       MININC
  -------         PROC          MINDEC
  C:4B50H         LINE#         37
  C:4B50H         LINE#         38
  C:4B50H         LINE#         39
  C:4B56H         LINE#         40
  C:4B56H         LINE#         41
  C:4B58H         LINE#         42
  C:4B59H         LINE#         44
  C:4B59H         LINE#         45
  C:4B5FH         LINE#         46
  C:4B5FH         LINE#         47
  -------         ENDPROC       MINDEC
  -------         PROC          _KEYACTIONDEAL
  C:3D2AH         LINE#         51
  C:3D2AH         LINE#         52
  C:3D2AH         LINE#         53
  C:3D2FH         LINE#         55
  C:3D3DH         LINE#         56
  C:3D3DH         LINE#         57
  C:3D45H         LINE#         58
  C:3D45H         LINE#         59
  C:3D4CH         LINE#         60
  C:3D4DH         LINE#         62
  C:3D4DH         LINE#         64
  C:3D4DH         LINE#         65
  C:3D53H         LINE#         66
  C:3D59H         LINE#         67
  C:3D59H         LINE#         68
  C:3D5BH         LINE#         69
  C:3D5BH         LINE#         70
  C:3D5BH         LINE#         71
  C:3D5DH         LINE#         72
  C:3D61H         LINE#         73
  C:3D61H         LINE#         74
  C:3D68H         LINE#         75
  C:3D68H         LINE#         76
  C:3D6BH         LINE#         78
  C:3D6BH         LINE#         79
  C:3D6DH         LINE#         80
  C:3D72H         LINE#         81
  C:3D72H         LINE#         82
  C:3D75H         LINE#         84
  C:3D75H         LINE#         85
  C:3D75H         LINE#         86
  C:3D77H         LINE#         87
  C:3D7FH         LINE#         88
  C:3D7FH         LINE#         89
  C:3D86H         LINE#         90
  C:3D86H         LINE#         91
  C:3D89H         LINE#         93
BL51 BANKED LINKER/LOCATER V6.22                                                      10/09/2015  15:13:05  PAGE 69


  C:3D89H         LINE#         94
  C:3D8BH         LINE#         95
  C:3D8FH         LINE#         96
  C:3D8FH         LINE#         97
  C:3D92H         LINE#         99
  C:3D97H         LINE#         100
  C:3D97H         LINE#         101
  C:3D97H         LINE#         103
  C:3D97H         LINE#         105
  C:3D97H         LINE#         107
  C:3D9EH         LINE#         108
  C:3D9EH         LINE#         109
  C:3DA7H         LINE#         110
  C:3DA7H         LINE#         111
  C:3DA7H         LINE#         112
  -------         ENDPROC       _KEYACTIONDEAL
  -------         PROC          _DISPLAYCONTROL
  C:46BAH         LINE#         114
  C:46BAH         LINE#         115
  C:46BAH         LINE#         116
  C:46BDH         LINE#         117
  C:46BDH         LINE#         118
  C:46C4H         LINE#         119
  C:46C4H         LINE#         122
  -------         ENDPROC       _DISPLAYCONTROL
  -------         PROC          _TASKEXE
  C:4C69H         LINE#         126
  C:4C69H         LINE#         127
  C:4C69H         LINE#         129
  -------         ENDPROC       _TASKEXE
  -------         PROC          _TIMETICK
  C:49D8H         LINE#         132
  C:49D8H         LINE#         133
  C:49D8H         LINE#         134
  C:49DEH         LINE#         135
  C:49E4H         LINE#         136
  C:49E4H         LINE#         137
  C:49EFH         LINE#         138
  C:49EFH         LINE#         139
  -------         ENDPROC       _TIMETICK
  -------         PROC          _MOTORCTR
  C:4C4AH         LINE#         142
  C:4C4AH         LINE#         143
  C:4C4AH         LINE#         144
  -------         ENDPROC       _MOTORCTR
  -------         PROC          _IRDATADEAL
  C:4C6AH         LINE#         148
  C:4C6AH         LINE#         149
  C:4C6AH         LINE#         151
  -------         ENDPROC       _IRDATADEAL
  -------         PROC          _RXDATADEAL
  C:4C6BH         LINE#         154
  C:4C6BH         LINE#         155
  C:4C6BH         LINE#         157
  -------         ENDPROC       _RXDATADEAL
  -------         PROC          _ENTEREVENTDEAL
  C:4BF1H         LINE#         159
BL51 BANKED LINKER/LOCATER V6.22                                                      10/09/2015  15:13:05  PAGE 70


  C:4BF1H         LINE#         160
  C:4BF1H         LINE#         161
  C:4BF6H         LINE#         162
  C:4BFAH         LINE#         163
  -------         ENDPROC       _ENTEREVENTDEAL
  -------         PROC          _EXITEVENTDEAL
  C:4C6CH         LINE#         165
  C:4C6CH         LINE#         166
  C:4C6CH         LINE#         168
  -------         ENDPROC       _EXITEVENTDEAL
  -------         ENDMOD        STATE_CLOCKSETTING

  -------         MODULE        STATE_ECHECK
  C:0000H         SYMBOL        _ICE_DUMMY_
  C:4C1DH         SYMBOL        _enterEventDeal
  C:448AH         SYMBOL        _keyActionDeal
  C:48D1H         PUBLIC        State_ECheck
  C:4C70H         SYMBOL        _exitEventDeal
  C:49F0H         SYMBOL        _timeTick
  C:4C6EH         SYMBOL        _irDataDeal
  C:4C6DH         SYMBOL        _taskExe
  C:4C4DH         SYMBOL        _motorCtr
  C:4C6FH         SYMBOL        _rxDataDeal
  C:4711H         SYMBOL        _displayControl
  B:0023H.4       SYMBOL        disEn
  -------         PROC          _KEYACTIONDEAL
  C:448AH         LINE#         5
  C:448AH         LINE#         6
  C:448AH         LINE#         7
  C:448FH         LINE#         9
  C:4496H         LINE#         10
  C:4496H         LINE#         11
  C:449EH         LINE#         12
  C:449EH         LINE#         13
  C:44A7H         LINE#         15
  C:44A9H         LINE#         16
  C:44ABH         LINE#         17
  C:44ABH         LINE#         18
  C:44ACH         LINE#         19
  C:44B3H         LINE#         20
  C:44B3H         LINE#         21
  C:44BAH         LINE#         22
  C:44BAH         LINE#         23
  C:44C3H         LINE#         24
  C:44C5H         LINE#         25
  C:44C5H         LINE#         26
  C:44C5H         LINE#         27
  -------         ENDPROC       _KEYACTIONDEAL
  -------         PROC          _DISPLAYCONTROL
  C:4711H         LINE#         29
  C:4711H         LINE#         30
  C:4711H         LINE#         31
  C:4714H         LINE#         32
  C:4714H         LINE#         33
  C:4722H         LINE#         34
  C:4722H         LINE#         36
  -------         ENDPROC       _DISPLAYCONTROL
BL51 BANKED LINKER/LOCATER V6.22                                                      10/09/2015  15:13:05  PAGE 71


  -------         PROC          _TASKEXE
  C:4C6DH         LINE#         39
  C:4C6DH         LINE#         40
  C:4C6DH         LINE#         42
  -------         ENDPROC       _TASKEXE
  -------         PROC          _TIMETICK
  C:49F0H         LINE#         45
  C:49F0H         LINE#         46
  C:49F0H         LINE#         48
  C:49F6H         LINE#         49
  C:49FCH         LINE#         50
  C:49FCH         LINE#         51
  C:4A07H         LINE#         52
  C:4A07H         LINE#         53
  -------         ENDPROC       _TIMETICK
  -------         PROC          _MOTORCTR
  C:4C4DH         LINE#         56
  C:4C4DH         LINE#         57
  C:4C4DH         LINE#         58
  -------         ENDPROC       _MOTORCTR
  -------         PROC          _IRDATADEAL
  C:4C6EH         LINE#         62
  C:4C6EH         LINE#         63
  C:4C6EH         LINE#         65
  -------         ENDPROC       _IRDATADEAL
  -------         PROC          _RXDATADEAL
  C:4C6FH         LINE#         68
  C:4C6FH         LINE#         69
  C:4C6FH         LINE#         71
  -------         ENDPROC       _RXDATADEAL
  -------         PROC          _ENTEREVENTDEAL
  C:4C1DH         LINE#         73
  C:4C1DH         LINE#         74
  C:4C1DH         LINE#         75
  C:4C22H         LINE#         76
  C:4C24H         LINE#         77
  -------         ENDPROC       _ENTEREVENTDEAL
  -------         PROC          _EXITEVENTDEAL
  C:4C70H         LINE#         79
  C:4C70H         LINE#         80
  C:4C70H         LINE#         82
  -------         ENDPROC       _EXITEVENTDEAL
  -------         ENDMOD        STATE_ECHECK

  -------         MODULE        STATE_TIMERSETTING
  C:0000H         SYMBOL        _ICE_DUMMY_
  C:4BD1H         SYMBOL        _enterEventDeal
  C:1A01H         SYMBOL        _keyActionDeal
  X:01F3H         SYMBOL        timerSettingItem
  C:4C74H         SYMBOL        _exitEventDeal
  C:4A08H         SYMBOL        _timeTick
  C:4C72H         SYMBOL        _irDataDeal
  C:4C71H         SYMBOL        _taskExe
  C:4C50H         SYMBOL        _motorCtr
  C:4C73H         SYMBOL        _rxDataDeal
  C:2517H         SYMBOL        _displayControl
  C:48ECH         PUBLIC        State_TimerSetting
BL51 BANKED LINKER/LOCATER V6.22                                                      10/09/2015  15:13:05  PAGE 72


  -------         PROC          _KEYACTIONDEAL
  -------         DO            
  X:019BH         SYMBOL        tsPtr
  B:0020H.4       SYMBOL        isM
  -------         ENDDO         
  C:1A01H         LINE#         19
  C:1A01H         LINE#         20
  C:1A01H         LINE#         24
  C:1A06H         LINE#         26
  C:1A0CH         LINE#         27
  C:1A0CH         LINE#         29
  C:1A0CH         LINE#         31
  C:1A17H         LINE#         32
  C:1A17H         LINE#         33
  C:1A40H         LINE#         34
  C:1A44H         LINE#         36
  C:1A4BH         LINE#         37
  C:1A4BH         LINE#         38
  C:1A51H         LINE#         39
  C:1A57H         LINE#         40
  C:1A57H         LINE#         41
  C:1A59H         LINE#         42
  C:1A59H         LINE#         44
  C:1A59H         LINE#         45
  C:1A5CH         LINE#         46
  C:1A67H         LINE#         47
  C:1A67H         LINE#         48
  C:1A7AH         LINE#         50
  C:1A7DH         LINE#         51
  C:1A7DH         LINE#         52
  C:1A96H         LINE#         53
  C:1AACH         LINE#         54
  C:1AACH         LINE#         55
  C:1AB7H         LINE#         56
  C:1AB7H         LINE#         57
  C:1AB9H         LINE#         59
  C:1AB9H         LINE#         60
  C:1ADAH         LINE#         61
  C:1AF2H         LINE#         62
  C:1AF2H         LINE#         63
  C:1AF8H         LINE#         64
  C:1AF8H         LINE#         65
  C:1AF8H         LINE#         67
  C:1AF8H         LINE#         68
  C:1AFBH         LINE#         69
  C:1B06H         LINE#         70
  C:1B06H         LINE#         71
  C:1B19H         LINE#         73
  C:1B1CH         LINE#         74
  C:1B1CH         LINE#         75
  C:1B2FH         LINE#         76
  C:1B2FH         LINE#         77
  C:1B3CH         LINE#         78
  C:1B3EH         LINE#         80
  C:1B3EH         LINE#         81
  C:1B54H         LINE#         82
  C:1B54H         LINE#         83
BL51 BANKED LINKER/LOCATER V6.22                                                      10/09/2015  15:13:05  PAGE 73


  C:1B56H         LINE#         85
  C:1B56H         LINE#         86
  C:1B6CH         LINE#         87
  C:1B6CH         LINE#         88
  C:1B78H         LINE#         89
  C:1B7AH         LINE#         91
  C:1B7AH         LINE#         92
  C:1B84H         LINE#         93
  C:1B84H         LINE#         94
  C:1B84H         LINE#         96
  C:1B84H         LINE#         97
  C:1B86H         LINE#         98
  C:1B8EH         LINE#         99
  C:1B8EH         LINE#         100
  C:1B97H         LINE#         101
  C:1B97H         LINE#         102
  C:1BA8H         LINE#         103
  C:1BA8H         LINE#         104
  C:1BAAH         LINE#         105
  C:1BACH         LINE#         107
  C:1BACH         LINE#         108
  C:1BB4H         LINE#         109
  C:1BB4H         LINE#         111
  C:1BBDH         LINE#         112
  C:1BBDH         LINE#         113
  C:1BBDH         LINE#         114
  C:1BBDH         LINE#         115
  -------         ENDPROC       _KEYACTIONDEAL
  -------         PROC          _DISPLAYCONTROL
  -------         DO            
  D:0001H         SYMBOL        tsPtr
  B:0020H.4       SYMBOL        isM
  -------         ENDDO         
  C:2517H         LINE#         117
  C:2517H         LINE#         118
  C:2517H         LINE#         122
  C:251AH         LINE#         123
  C:251AH         LINE#         124
  C:2526H         LINE#         125
  C:252DH         LINE#         126
  C:2533H         LINE#         127
  C:2533H         LINE#         128
  C:253AH         LINE#         129
  C:2541H         LINE#         130
  C:2544H         LINE#         132
  C:2547H         LINE#         133
  C:254AH         LINE#         134
  C:254DH         LINE#         135
  C:254EH         LINE#         138
  C:254EH         LINE#         140
  C:2556H         LINE#         141
  C:2556H         LINE#         142
  C:2559H         LINE#         143
  C:2559H         LINE#         144
  C:2565H         LINE#         145
  C:256CH         LINE#         146
  C:256CH         LINE#         148
BL51 BANKED LINKER/LOCATER V6.22                                                      10/09/2015  15:13:05  PAGE 74


  C:2573H         LINE#         149
  C:2573H         LINE#         151
  C:2573H         LINE#         152
  C:2592H         LINE#         153
  C:2596H         LINE#         155
  C:25CDH         LINE#         156
  C:25CDH         LINE#         157
  C:25CDH         LINE#         158
  C:25CDH         LINE#         159
  C:25D9H         LINE#         160
  C:25DDH         LINE#         161
  C:25DFH         LINE#         162
  C:25DFH         LINE#         163
  C:25DFH         LINE#         164
  C:25E6H         LINE#         165
  C:25E9H         LINE#         166
  C:25EBH         LINE#         167
  C:25EBH         LINE#         168
  C:25EBH         LINE#         169
  C:25F7H         LINE#         170
  C:25FEH         LINE#         171
  C:2600H         LINE#         172
  C:2600H         LINE#         173
  C:2600H         LINE#         174
  C:2607H         LINE#         175
  C:260AH         LINE#         176
  C:260CH         LINE#         177
  C:260CH         LINE#         178
  C:260CH         LINE#         179
  C:2618H         LINE#         180
  C:261FH         LINE#         181
  C:2621H         LINE#         182
  C:2621H         LINE#         183
  C:2621H         LINE#         184
  C:2628H         LINE#         185
  C:262BH         LINE#         186
  C:262BH         LINE#         187
  C:262BH         LINE#         189
  C:2631H         LINE#         190
  C:2631H         LINE#         191
  C:2646H         LINE#         192
  C:2648H         LINE#         194
  C:2648H         LINE#         195
  C:2658H         LINE#         196
  C:2658H         LINE#         197
  C:2658H         LINE#         198
  -------         ENDPROC       _DISPLAYCONTROL
  -------         PROC          _TASKEXE
  C:4C71H         LINE#         200
  C:4C71H         LINE#         201
  C:4C71H         LINE#         203
  -------         ENDPROC       _TASKEXE
  -------         PROC          _TIMETICK
  C:4A08H         LINE#         206
  C:4A08H         LINE#         207
  C:4A08H         LINE#         208
  C:4A0EH         LINE#         209
BL51 BANKED LINKER/LOCATER V6.22                                                      10/09/2015  15:13:05  PAGE 75


  C:4A14H         LINE#         210
  C:4A14H         LINE#         211
  C:4A1FH         LINE#         212
  C:4A1FH         LINE#         213
  -------         ENDPROC       _TIMETICK
  -------         PROC          _MOTORCTR
  C:4C50H         LINE#         216
  C:4C50H         LINE#         217
  C:4C50H         LINE#         218
  -------         ENDPROC       _MOTORCTR
  -------         PROC          _IRDATADEAL
  C:4C72H         LINE#         222
  C:4C72H         LINE#         223
  C:4C72H         LINE#         225
  -------         ENDPROC       _IRDATADEAL
  -------         PROC          _RXDATADEAL
  C:4C73H         LINE#         228
  C:4C73H         LINE#         229
  C:4C73H         LINE#         231
  -------         ENDPROC       _RXDATADEAL
  -------         PROC          _ENTEREVENTDEAL
  C:4BD1H         LINE#         233
  C:4BD1H         LINE#         234
  C:4BD1H         LINE#         235
  C:4BD7H         LINE#         236
  C:4BDCH         LINE#         237
  -------         ENDPROC       _ENTEREVENTDEAL
  -------         PROC          _EXITEVENTDEAL
  C:4C74H         LINE#         239
  C:4C74H         LINE#         240
  C:4C74H         LINE#         242
  -------         ENDPROC       _EXITEVENTDEAL
  -------         ENDMOD        STATE_TIMERSETTING

  -------         MODULE        STATE_TIMERFNSETTING
  C:0000H         SYMBOL        _ICE_DUMMY_
  C:4C3AH         SYMBOL        _enterEventDeal
  C:4907H         PUBLIC        State_TimerFnSetting
  C:4780H         SYMBOL        _keyActionDeal
  C:4C78H         SYMBOL        _exitEventDeal
  C:4A20H         SYMBOL        _timeTick
  C:4C76H         SYMBOL        _irDataDeal
  C:4C75H         SYMBOL        _taskExe
  C:4C53H         SYMBOL        _motorCtr
  C:4C77H         SYMBOL        _rxDataDeal
  C:456DH         SYMBOL        _displayControl
  -------         PROC          _KEYACTIONDEAL
  C:4780H         LINE#         4
  C:4780H         LINE#         5
  C:4780H         LINE#         6
  C:4785H         LINE#         8
  C:478CH         LINE#         9
  C:478CH         LINE#         10
  C:4793H         LINE#         11
  C:4793H         LINE#         12
  C:4795H         LINE#         13
  C:479EH         LINE#         14
BL51 BANKED LINKER/LOCATER V6.22                                                      10/09/2015  15:13:05  PAGE 76


  C:479EH         LINE#         15
  C:479EH         LINE#         16
  -------         ENDPROC       _KEYACTIONDEAL
  -------         PROC          _DISPLAYCONTROL
  C:456DH         LINE#         18
  C:456DH         LINE#         19
  C:456DH         LINE#         20
  C:4579H         LINE#         21
  C:4580H         LINE#         22
  C:4586H         LINE#         23
  C:4586H         LINE#         24
  C:458DH         LINE#         25
  C:4594H         LINE#         26
  C:4597H         LINE#         28
  C:459AH         LINE#         29
  C:459DH         LINE#         30
  C:45A0H         LINE#         31
  C:45A0H         LINE#         32
  -------         ENDPROC       _DISPLAYCONTROL
  -------         PROC          _TASKEXE
  C:4C75H         LINE#         34
  C:4C75H         LINE#         35
  C:4C75H         LINE#         37
  -------         ENDPROC       _TASKEXE
  -------         PROC          _TIMETICK
  C:4A20H         LINE#         40
  C:4A20H         LINE#         41
  C:4A20H         LINE#         42
  C:4A26H         LINE#         43
  C:4A2CH         LINE#         44
  C:4A2CH         LINE#         45
  C:4A37H         LINE#         46
  C:4A37H         LINE#         47
  -------         ENDPROC       _TIMETICK
  -------         PROC          _MOTORCTR
  C:4C53H         LINE#         50
  C:4C53H         LINE#         51
  C:4C53H         LINE#         52
  -------         ENDPROC       _MOTORCTR
  -------         PROC          _IRDATADEAL
  C:4C76H         LINE#         56
  C:4C76H         LINE#         57
  C:4C76H         LINE#         59
  -------         ENDPROC       _IRDATADEAL
  -------         PROC          _RXDATADEAL
  C:4C77H         LINE#         62
  C:4C77H         LINE#         63
  C:4C77H         LINE#         65
  -------         ENDPROC       _RXDATADEAL
  -------         PROC          _ENTEREVENTDEAL
  C:4C3AH         LINE#         67
  C:4C3AH         LINE#         68
  C:4C3AH         LINE#         69
  C:4C3FH         LINE#         70
  -------         ENDPROC       _ENTEREVENTDEAL
  -------         PROC          _EXITEVENTDEAL
  C:4C78H         LINE#         72
BL51 BANKED LINKER/LOCATER V6.22                                                      10/09/2015  15:13:05  PAGE 77


  C:4C78H         LINE#         73
  C:4C78H         LINE#         75
  -------         ENDPROC       _EXITEVENTDEAL
  -------         ENDMOD        STATE_TIMERFNSETTING

  -------         MODULE        STATE_TIMERLOOKUP
  C:0000H         SYMBOL        _ICE_DUMMY_
  C:4922H         SYMBOL        _enterEventDeal
  C:44C6H         SYMBOL        _keyActionDeal
  C:4C7CH         SYMBOL        _exitEventDeal
  C:4A38H         SYMBOL        _timeTick
  C:4C7AH         SYMBOL        _irDataDeal
  X:01F4H         SYMBOL        timerLookupItem
  C:4C79H         SYMBOL        _taskExe
  C:4C56H         SYMBOL        _motorCtr
  C:4C7BH         SYMBOL        _rxDataDeal
  C:2659H         SYMBOL        _displayControl
  C:468DH         SYMBOL        getNextActiveTimerIndex
  C:493DH         PUBLIC        State_TimerLookup
  -------         PROC          GETNEXTACTIVETIMERINDEX
  C:468DH         LINE#         7
  C:468DH         LINE#         8
  C:468DH         LINE#         10
  C:468DH         LINE#         11
  C:4693H         LINE#         12
  C:469AH         LINE#         13
  C:469AH         LINE#         14
  C:469AH         LINE#         15
  C:469AH         LINE#         16
  C:46B9H         LINE#         17
  -------         ENDPROC       GETNEXTACTIVETIMERINDEX
  -------         PROC          _KEYACTIONDEAL
  C:44C6H         LINE#         19
  C:44C6H         LINE#         20
  C:44C6H         LINE#         21
  C:44CBH         LINE#         23
  C:44CEH         LINE#         24
  C:44CEH         LINE#         26
  C:44CEH         LINE#         28
  C:44D6H         LINE#         29
  C:44D6H         LINE#         30
  C:44DDH         LINE#         31
  C:44DDH         LINE#         32
  C:44E4H         LINE#         33
  C:44E4H         LINE#         35
  C:44E4H         LINE#         37
  C:44E4H         LINE#         38
  C:44E7H         LINE#         39
  C:44F0H         LINE#         40
  C:44F0H         LINE#         41
  C:44F3H         LINE#         42
  C:44F6H         LINE#         43
  C:44F6H         LINE#         45
  C:44FFH         LINE#         46
  C:44FFH         LINE#         47
  C:44FFH         LINE#         48
  C:44FFH         LINE#         49
BL51 BANKED LINKER/LOCATER V6.22                                                      10/09/2015  15:13:05  PAGE 78


  -------         ENDPROC       _KEYACTIONDEAL
  -------         PROC          _DISPLAYCONTROL
  -------         DO            
  D:0006H         SYMBOL        t1
  D:0005H         SYMBOL        t2
  -------         ENDDO         
  C:2659H         LINE#         51
  C:2659H         LINE#         52
  C:2659H         LINE#         55
  C:265CH         LINE#         56
  C:265CH         LINE#         57
  C:2668H         LINE#         58
  C:266FH         LINE#         59
  C:2675H         LINE#         60
  C:2675H         LINE#         61
  C:267CH         LINE#         62
  C:2683H         LINE#         63
  C:2686H         LINE#         65
  C:2689H         LINE#         66
  C:268CH         LINE#         67
  C:268CH         LINE#         68
  C:268FH         LINE#         71
  C:268FH         LINE#         73
  C:2696H         LINE#         74
  C:2696H         LINE#         75
  C:269DH         LINE#         76
  C:269DH         LINE#         78
  C:269DH         LINE#         79
  C:26C2H         LINE#         80
  C:26E2H         LINE#         82
  C:26EBH         LINE#         84
  C:26F2H         LINE#         86
  C:2709H         LINE#         87
  C:2709H         LINE#         88
  C:2709H         LINE#         89
  C:2715H         LINE#         90
  C:2718H         LINE#         91
  C:2718H         LINE#         92
  C:271CH         LINE#         93
  C:271CH         LINE#         94
  C:271EH         LINE#         95
  C:271EH         LINE#         96
  C:2725H         LINE#         97
  C:2728H         LINE#         98
  C:2728H         LINE#         99
  C:272CH         LINE#         100
  C:272CH         LINE#         101
  C:272DH         LINE#         102
  C:272DH         LINE#         103
  C:2739H         LINE#         104
  C:273CH         LINE#         105
  C:273CH         LINE#         106
  C:2743H         LINE#         107
  C:2743H         LINE#         108
  C:2744H         LINE#         109
  C:2744H         LINE#         110
  C:274BH         LINE#         111
BL51 BANKED LINKER/LOCATER V6.22                                                      10/09/2015  15:13:05  PAGE 79


  C:274EH         LINE#         112
  C:274EH         LINE#         113
  C:2752H         LINE#         114
  C:2752H         LINE#         115
  C:2753H         LINE#         116
  C:2753H         LINE#         117
  C:275FH         LINE#         118
  C:2762H         LINE#         119
  C:2762H         LINE#         120
  C:2769H         LINE#         121
  C:2769H         LINE#         122
  C:276AH         LINE#         123
  C:276AH         LINE#         124
  C:2771H         LINE#         125
  C:2774H         LINE#         126
  C:2774H         LINE#         127
  C:2778H         LINE#         128
  C:2778H         LINE#         129
  C:2778H         LINE#         130
  C:2778H         LINE#         132
  C:2778H         LINE#         133
  C:2778H         LINE#         134
  C:2778H         LINE#         135
  -------         ENDPROC       _DISPLAYCONTROL
  -------         PROC          _TASKEXE
  C:4C79H         LINE#         137
  C:4C79H         LINE#         138
  C:4C79H         LINE#         140
  -------         ENDPROC       _TASKEXE
  -------         PROC          _TIMETICK
  C:4A38H         LINE#         143
  C:4A38H         LINE#         144
  C:4A38H         LINE#         145
  C:4A3EH         LINE#         146
  C:4A44H         LINE#         147
  C:4A44H         LINE#         148
  C:4A4FH         LINE#         149
  C:4A4FH         LINE#         150
  -------         ENDPROC       _TIMETICK
  -------         PROC          _MOTORCTR
  C:4C56H         LINE#         153
  C:4C56H         LINE#         154
  C:4C56H         LINE#         155
  -------         ENDPROC       _MOTORCTR
  -------         PROC          _IRDATADEAL
  C:4C7AH         LINE#         159
  C:4C7AH         LINE#         160
  C:4C7AH         LINE#         162
  -------         ENDPROC       _IRDATADEAL
  -------         PROC          _RXDATADEAL
  C:4C7BH         LINE#         165
  C:4C7BH         LINE#         166
  C:4C7BH         LINE#         168
  -------         ENDPROC       _RXDATADEAL
  -------         PROC          _ENTEREVENTDEAL
  C:4922H         LINE#         170
  C:4922H         LINE#         171
BL51 BANKED LINKER/LOCATER V6.22                                                      10/09/2015  15:13:05  PAGE 80


  C:4922H         LINE#         172
  C:4927H         LINE#         174
  C:492DH         LINE#         175
  C:4930H         LINE#         176
  C:4939H         LINE#         177
  C:4939H         LINE#         178
  C:493CH         LINE#         179
  C:493CH         LINE#         180
  -------         ENDPROC       _ENTEREVENTDEAL
  -------         PROC          _EXITEVENTDEAL
  C:4C7CH         LINE#         182
  C:4C7CH         LINE#         183
  C:4C7CH         LINE#         185
  -------         ENDPROC       _EXITEVENTDEAL
  -------         ENDMOD        STATE_TIMERLOOKUP

  -------         MODULE        STATE_WORK
  C:0000H         SYMBOL        _ICE_DUMMY_
  C:4210H         SYMBOL        _enterEventDeal
  X:01D5H         SYMBOL        countOfSec
  X:01D6H         SYMBOL        dustRecord10Index
  C:30A6H         SYMBOL        _keyActionDeal
  X:01D7H         SYMBOL        dustRecord30Index
  C:4958H         PUBLIC        State_Work
  C:4C7EH         SYMBOL        _exitEventDeal
  C:138AH         SYMBOL        _timeTick
  B:0023H.5       SYMBOL        IsAutoOffSta
  C:224AH         SYMBOL        _irDataDeal
  C:440BH         SYMBOL        _taskExe
  C:3E97H         SYMBOL        _motorCtr
  C:4C7DH         SYMBOL        _rxDataDeal
  C:1744H         SYMBOL        _displayControl
  X:01D8H         SYMBOL        AutoOffCnt
  X:01DAH         SYMBOL        memoryOffCounedown
  -------         PROC          _KEYACTIONDEAL
  C:30A6H         LINE#         11
  C:30A6H         LINE#         12
  C:30A6H         LINE#         14
  C:30ACH         LINE#         15
  C:30ACH         LINE#         16
  C:30AEH         LINE#         17
  C:30B4H         LINE#         19
  C:30BAH         LINE#         20
  C:30BDH         LINE#         22
  C:30BDH         LINE#         24
  C:30C3H         LINE#         26
  C:30C9H         LINE#         27
  C:30C9H         LINE#         29
  C:30C9H         LINE#         31
  C:30D1H         LINE#         32
  C:30D1H         LINE#         34
  C:30DCH         LINE#         35
  C:30DCH         LINE#         36
  C:30E7H         LINE#         37
  C:30E7H         LINE#         38
  C:30E7H         LINE#         39
  C:30EAH         LINE#         41
BL51 BANKED LINKER/LOCATER V6.22                                                      10/09/2015  15:13:05  PAGE 81


  C:30F5H         LINE#         42
  C:30F5H         LINE#         44
  C:30FDH         LINE#         45
  C:30FDH         LINE#         46
  C:3103H         LINE#         47
  C:3105H         LINE#         49
  C:3108H         LINE#         50
  C:3108H         LINE#         51
  C:310DH         LINE#         52
  C:310FH         LINE#         53
  C:3111H         LINE#         55
  C:3111H         LINE#         56
  C:3117H         LINE#         57
  C:311DH         LINE#         58
  C:311DH         LINE#         59
  C:311FH         LINE#         60
  C:3129H         LINE#         61
  C:3129H         LINE#         62
  C:312BH         LINE#         63
  C:312BH         LINE#         64
  C:312BH         LINE#         65
  C:312BH         LINE#         68
  C:3133H         LINE#         69
  C:3133H         LINE#         70
  C:3137H         LINE#         71
  C:3137H         LINE#         72
  C:3139H         LINE#         74
  C:313FH         LINE#         75
  C:313FH         LINE#         76
  C:3145H         LINE#         77
  C:3149H         LINE#         78
  C:3149H         LINE#         80
  C:3149H         LINE#         81
  C:314BH         LINE#         83
  C:3152H         LINE#         84
  C:3152H         LINE#         85
  C:3163H         LINE#         87
  C:3163H         LINE#         88
  C:3165H         LINE#         90
  C:316DH         LINE#         91
  C:316DH         LINE#         92
  C:317EH         LINE#         94
  C:317EH         LINE#         95
  C:317EH         LINE#         96
  C:3180H         LINE#         97
  C:3187H         LINE#         98
  C:3187H         LINE#         99
  C:318EH         LINE#         100
  C:318EH         LINE#         101
  C:3194H         LINE#         102
  C:3196H         LINE#         104
  C:319FH         LINE#         105
  C:319FH         LINE#         106
  C:319FH         LINE#         107
  -------         ENDPROC       _KEYACTIONDEAL
  -------         PROC          _DISPLAYCONTROL
  C:1744H         LINE#         109
BL51 BANKED LINKER/LOCATER V6.22                                                      10/09/2015  15:13:05  PAGE 82


  C:1744H         LINE#         110
  C:1744H         LINE#         112
  C:174AH         LINE#         113
  C:174AH         LINE#         114
  C:1750H         LINE#         115
  C:1750H         LINE#         116
  C:175EH         LINE#         117
  C:1765H         LINE#         118
  C:1773H         LINE#         119
  C:1781H         LINE#         121
  C:1786H         LINE#         122
  C:178DH         LINE#         123
  C:178EH         LINE#         125
  C:178EH         LINE#         128
  C:1791H         LINE#         131
  C:1798H         LINE#         132
  C:1798H         LINE#         133
  C:17A6H         LINE#         134
  C:17A6H         LINE#         137
  C:17ACH         LINE#         138
  C:17ACH         LINE#         139
  C:17BAH         LINE#         140
  C:17BAH         LINE#         143
  C:17CFH         LINE#         144
  C:17DAH         LINE#         145
  C:17DDH         LINE#         146
  C:17DDH         LINE#         147
  C:17E2H         LINE#         148
  C:17E4H         LINE#         150
  C:17E4H         LINE#         151
  C:17F1H         LINE#         152
  C:17F1H         LINE#         156
  C:17F8H         LINE#         157
  C:17FFH         LINE#         159
  C:180DH         LINE#         160
  C:1814H         LINE#         163
  C:1823H         LINE#         164
  C:1826H         LINE#         165
  C:1826H         LINE#         166
  C:182DH         LINE#         167
  C:182DH         LINE#         170
  C:183BH         LINE#         171
  C:1843H         LINE#         173
  C:1849H         LINE#         174
  C:1849H         LINE#         175
  C:1857H         LINE#         177
  C:185AH         LINE#         178
  C:185AH         LINE#         180
  C:185DH         LINE#         181
  C:185DH         LINE#         182
  C:1864H         LINE#         184
  C:186BH         LINE#         185
  C:1872H         LINE#         187
  C:1877H         LINE#         188
  C:187EH         LINE#         189
  C:1885H         LINE#         190
  C:188CH         LINE#         191
BL51 BANKED LINKER/LOCATER V6.22                                                      10/09/2015  15:13:05  PAGE 83


  C:188EH         LINE#         192
  C:1897H         LINE#         193
  C:1897H         LINE#         194
  C:189CH         LINE#         195
  C:189EH         LINE#         196
  C:18A0H         LINE#         197
  C:18A9H         LINE#         198
  C:18A9H         LINE#         199
  C:18AEH         LINE#         200
  C:18B0H         LINE#         201
  C:18B2H         LINE#         202
  C:18BBH         LINE#         203
  C:18BBH         LINE#         204
  C:18C0H         LINE#         205
  C:18C2H         LINE#         206
  C:18C4H         LINE#         208
  C:18C4H         LINE#         209
  C:18C9H         LINE#         210
  C:18CBH         LINE#         211
  C:18CBH         LINE#         212
  C:18CDH         LINE#         214
  C:18CDH         LINE#         215
  C:18D2H         LINE#         216
  C:18D4H         LINE#         217
  C:18D4H         LINE#         218
  C:18D6H         LINE#         220
  C:18D6H         LINE#         221
  C:18E3H         LINE#         222
  C:18E3H         LINE#         224
  C:18E6H         LINE#         225
  C:18E6H         LINE#         227
  C:18EDH         LINE#         228
  C:18EDH         LINE#         229
  C:18FBH         LINE#         230
  C:18FBH         LINE#         233
  C:1902H         LINE#         234
  C:1902H         LINE#         235
  C:1909H         LINE#         236
  C:1909H         LINE#         237
  C:1909H         LINE#         240
  C:190CH         LINE#         241
  C:190CH         LINE#         242
  C:191AH         LINE#         243
  C:191AH         LINE#         246
  C:1922H         LINE#         247
  C:1922H         LINE#         248
  C:192EH         LINE#         249
  C:1935H         LINE#         250
  C:1944H         LINE#         251
  C:1944H         LINE#         252
  C:1944H         LINE#         253
  C:194BH         LINE#         254
  C:194BH         LINE#         255
  C:194DH         LINE#         256
  C:194DH         LINE#         257
  C:1954H         LINE#         258
  C:1954H         LINE#         259
BL51 BANKED LINKER/LOCATER V6.22                                                      10/09/2015  15:13:05  PAGE 84


  C:1956H         LINE#         260
  C:1956H         LINE#         261
  C:195AH         LINE#         262
  C:195AH         LINE#         263
  C:195CH         LINE#         264
  C:195CH         LINE#         265
  C:195CH         LINE#         266
  C:1963H         LINE#         267
  C:196AH         LINE#         268
  C:196DH         LINE#         269
  C:1970H         LINE#         270
  C:1973H         LINE#         271
  C:1973H         LINE#         272
  C:1975H         LINE#         273
  C:1975H         LINE#         274
  C:1975H         LINE#         276
  C:1975H         LINE#         277
  C:197DH         LINE#         278
  C:197DH         LINE#         279
  C:1984H         LINE#         280
  C:1987H         LINE#         281
  C:1987H         LINE#         282
  C:199AH         LINE#         283
  C:199AH         LINE#         284
  C:19A1H         LINE#         285
  C:19A1H         LINE#         286
  C:19A3H         LINE#         287
  C:19ABH         LINE#         288
  C:19ABH         LINE#         289
  C:19BFH         LINE#         290
  C:19BFH         LINE#         291
  C:19C6H         LINE#         292
  C:19C6H         LINE#         293
  C:19C8H         LINE#         294
  C:19CCH         LINE#         295
  C:19CCH         LINE#         296
  C:19E0H         LINE#         297
  C:19E0H         LINE#         298
  C:19E7H         LINE#         299
  C:19E7H         LINE#         300
  C:19E7H         LINE#         301
  C:19E7H         LINE#         302
  C:19E7H         LINE#         305
  C:19F0H         LINE#         306
  C:19F0H         LINE#         307
  C:19F3H         LINE#         308
  C:19F7H         LINE#         309
  C:19FBH         LINE#         310
  C:19FCH         LINE#         312
  C:19FCH         LINE#         313
  C:1A00H         LINE#         314
  C:1A00H         LINE#         315
  -------         ENDPROC       _DISPLAYCONTROL
  -------         PROC          _TASKEXE
  C:440BH         LINE#         317
  C:440BH         LINE#         318
  C:440BH         LINE#         319
BL51 BANKED LINKER/LOCATER V6.22                                                      10/09/2015  15:13:05  PAGE 85


  C:4412H         LINE#         322
  C:4415H         LINE#         323
  C:4415H         LINE#         325
  C:4415H         LINE#         327
  C:441FH         LINE#         328
  C:441FH         LINE#         329
  C:4423H         LINE#         330
  C:4425H         LINE#         332
  C:4425H         LINE#         333
  C:4429H         LINE#         334
  C:4429H         LINE#         336
  C:4433H         LINE#         337
  C:4433H         LINE#         338
  C:4437H         LINE#         339
  C:4439H         LINE#         341
  C:4439H         LINE#         342
  C:443DH         LINE#         343
  C:443DH         LINE#         345
  C:4444H         LINE#         346
  C:4444H         LINE#         347
  C:4447H         LINE#         348
  C:4448H         LINE#         350
  C:4448H         LINE#         351
  C:444BH         LINE#         352
  C:444BH         LINE#         353
  -------         ENDPROC       _TASKEXE
  -------         PROC          _TIMETICK
  -------         DO            
  X:019BH         SYMBOL        index
  -------         ENDDO         
  C:138AH         LINE#         356
  C:138AH         LINE#         357
  C:138AH         LINE#         360
  C:1390H         LINE#         361
  C:1390H         LINE#         362
  C:1392H         LINE#         363
  C:1395H         LINE#         364
  C:1395H         LINE#         365
  C:13A0H         LINE#         366
  C:13A9H         LINE#         367
  C:13A9H         LINE#         368
  C:13A9H         LINE#         370
  C:13AFH         LINE#         371
  C:13AFH         LINE#         373
  C:13B2H         LINE#         374
  C:13B2H         LINE#         375
  C:13B9H         LINE#         376
  C:13B9H         LINE#         377
  C:13C7H         LINE#         378
  C:13D6H         LINE#         379
  C:13D6H         LINE#         380
  C:13D8H         LINE#         381
  C:13D8H         LINE#         382
  C:13DAH         LINE#         384
  C:13DAH         LINE#         385
  C:13DAH         LINE#         386
  C:13DAH         LINE#         387
BL51 BANKED LINKER/LOCATER V6.22                                                      10/09/2015  15:13:05  PAGE 86


  C:13DAH         LINE#         388
  C:13DCH         LINE#         390
  C:13DCH         LINE#         391
  C:13DEH         LINE#         392
  C:13E5H         LINE#         393
  C:13E5H         LINE#         396
  C:13EBH         LINE#         397
  C:13EBH         LINE#         398
  C:13EDH         LINE#         399
  C:13F0H         LINE#         400
  C:13F0H         LINE#         401
  C:13F2H         LINE#         402
  C:13F8H         LINE#         403
  C:13F8H         LINE#         404
  C:13F8H         LINE#         407
  C:13FEH         LINE#         408
  C:1404H         LINE#         409
  C:1404H         LINE#         410
  C:1406H         LINE#         412
  C:140CH         LINE#         413
  C:1411H         LINE#         414
  C:1411H         LINE#         415
  C:1413H         LINE#         417
  C:1419H         LINE#         418
  C:1419H         LINE#         419
  C:1419H         LINE#         420
  C:1419H         LINE#         422
  C:141FH         LINE#         423
  C:141FH         LINE#         425
  C:1428H         LINE#         426
  C:1428H         LINE#         427
  C:1438H         LINE#         428
  C:1438H         LINE#         429
  C:1462H         LINE#         430
  C:146AH         LINE#         431
  C:1479H         LINE#         432
  C:147BH         LINE#         434
  C:147BH         LINE#         435
  C:148CH         LINE#         436
  C:148CH         LINE#         437
  C:14AFH         LINE#         438
  C:14B7H         LINE#         439
  C:14B7H         LINE#         441
  C:14BDH         LINE#         442
  C:14C3H         LINE#         443
  C:14C3H         LINE#         444
  C:14C6H         LINE#         445
  C:14C6H         LINE#         449
  C:14CFH         LINE#         450
  C:14CFH         LINE#         451
  C:14DFH         LINE#         452
  C:14DFH         LINE#         453
  C:1509H         LINE#         454
  C:1511H         LINE#         455
  C:1520H         LINE#         456
  C:1522H         LINE#         458
  C:1522H         LINE#         459
BL51 BANKED LINKER/LOCATER V6.22                                                      10/09/2015  15:13:05  PAGE 87


  C:1533H         LINE#         460
  C:1533H         LINE#         461
  C:1556H         LINE#         462
  C:155EH         LINE#         463
  C:155EH         LINE#         465
  C:1565H         LINE#         466
  C:1565H         LINE#         467
  C:156BH         LINE#         468
  C:156BH         LINE#         470
  C:1574H         LINE#         471
  C:1574H         LINE#         472
  C:1577H         LINE#         473
  C:1577H         LINE#         477
  C:157EH         LINE#         478
  C:157EH         LINE#         479
  C:158AH         LINE#         480
  C:158AH         LINE#         481
  C:15CBH         LINE#         483
  C:15CBH         LINE#         484
  C:15CBH         LINE#         485
  C:15CBH         LINE#         486
  C:15CBH         LINE#         487
  C:15CBH         LINE#         488
  C:15CEH         LINE#         490
  C:15CEH         LINE#         491
  C:15D9H         LINE#         492
  C:15D9H         LINE#         493
  C:15DFH         LINE#         494
  C:15FDH         LINE#         495
  C:15FDH         LINE#         496
  C:1603H         LINE#         497
  C:1603H         LINE#         499
  C:160AH         LINE#         500
  C:160AH         LINE#         502
  C:1615H         LINE#         503
  C:1615H         LINE#         504
  C:1620H         LINE#         505
  C:1629H         LINE#         506
  C:1629H         LINE#         507
  C:162BH         LINE#         509
  C:162BH         LINE#         510
  C:1688H         LINE#         512
  C:1688H         LINE#         513
  C:1691H         LINE#         514
  C:169CH         LINE#         515
  C:169CH         LINE#         516
  C:169CH         LINE#         517
  C:169CH         LINE#         518
  C:169CH         LINE#         520
  C:16A2H         LINE#         521
  C:16A2H         LINE#         522
  C:16C1H         LINE#         524
  C:16DCH         LINE#         525
  C:16DCH         LINE#         526
  C:16E3H         LINE#         528
  C:170DH         LINE#         529
  C:170DH         LINE#         530
BL51 BANKED LINKER/LOCATER V6.22                                                      10/09/2015  15:13:05  PAGE 88


  C:170FH         LINE#         531
  C:170FH         LINE#         532
  C:1710H         LINE#         534
  C:1710H         LINE#         535
  C:1743H         LINE#         536
  C:1743H         LINE#         537
  C:1743H         LINE#         538
  C:1743H         LINE#         539
  -------         ENDPROC       _TIMETICK
  -------         PROC          _MOTORCTR
  C:3E97H         LINE#         542
  C:3E97H         LINE#         543
  C:3E97H         LINE#         545
  C:3E9AH         LINE#         546
  C:3E9AH         LINE#         547
  C:3E9DH         LINE#         548
  C:3E9DH         LINE#         550
  C:3E9DH         LINE#         551
  C:3EA0H         LINE#         552
  C:3EA0H         LINE#         553
  C:3EA3H         LINE#         554
  C:3EA3H         LINE#         555
  C:3EACH         LINE#         556
  C:3EACH         LINE#         557
  C:3EACH         LINE#         558
  C:3EAEH         LINE#         559
  C:3EB7H         LINE#         560
  C:3EB7H         LINE#         561
  C:3EB7H         LINE#         562
  C:3EB9H         LINE#         563
  C:3EC2H         LINE#         564
  C:3EC2H         LINE#         565
  C:3EC2H         LINE#         566
  C:3EC4H         LINE#         573
  C:3EC4H         LINE#         574
  C:3EC4H         LINE#         575
  C:3EC4H         LINE#         576
  C:3EC6H         LINE#         578
  C:3EC6H         LINE#         579
  C:3EDBH         LINE#         580
  C:3EDBH         LINE#         581
  C:3EDBH         LINE#         582
  C:3EDFH         LINE#         583
  C:3EE1H         LINE#         584
  C:3EE1H         LINE#         585
  C:3EE5H         LINE#         586
  C:3EE7H         LINE#         587
  C:3EE7H         LINE#         588
  C:3EEBH         LINE#         589
  C:3EEDH         LINE#         590
  C:3EEDH         LINE#         591
  C:3EF1H         LINE#         592
  C:3EF3H         LINE#         593
  C:3EF3H         LINE#         594
  C:3EFAH         LINE#         595
  C:3EFAH         LINE#         596
  C:3EFAH         LINE#         597
BL51 BANKED LINKER/LOCATER V6.22                                                      10/09/2015  15:13:05  PAGE 89


  C:3EFAH         LINE#         598
  C:3EFAH         LINE#         599
  C:3EFAH         LINE#         600
  C:3EFAH         LINE#         601
  -------         ENDPROC       _MOTORCTR
  -------         PROC          _IRDATADEAL
  C:224AH         LINE#         604
  C:224AH         LINE#         605
  C:224AH         LINE#         607
  C:2250H         LINE#         608
  C:2250H         LINE#         609
  C:2252H         LINE#         610
  C:2258H         LINE#         612
  C:225FH         LINE#         614
  C:225FH         LINE#         615
  C:2265H         LINE#         618
  C:2270H         LINE#         619
  C:2270H         LINE#         620
  C:2279H         LINE#         621
  C:2284H         LINE#         622
  C:2284H         LINE#         624
  C:2292H         LINE#         625
  C:2292H         LINE#         626
  C:2298H         LINE#         627
  C:229AH         LINE#         629
  C:229CH         LINE#         630
  C:22A6H         LINE#         631
  C:22A6H         LINE#         632
  C:22A8H         LINE#         633
  C:22A8H         LINE#         634
  C:22A8H         LINE#         635
  C:22ABH         LINE#         636
  C:22B7H         LINE#         637
  C:22B7H         LINE#         638
  C:22BEH         LINE#         639
  C:22C0H         LINE#         641
  C:22C5H         LINE#         643
  C:22C7H         LINE#         645
  C:22CCH         LINE#         646
  C:22D0H         LINE#         648
  C:22D0H         LINE#         650
  C:22D3H         LINE#         651
  C:22DFH         LINE#         652
  C:22DFH         LINE#         653
  C:22E6H         LINE#         654
  C:22E8H         LINE#         656
  C:22EEH         LINE#         658
  C:22F0H         LINE#         660
  C:22F4H         LINE#         661
  C:22F4H         LINE#         663
  C:22F4H         LINE#         664
  C:22F6H         LINE#         665
  C:2302H         LINE#         666
  C:2302H         LINE#         667
  C:2309H         LINE#         668
  C:230BH         LINE#         670
  C:2311H         LINE#         672
BL51 BANKED LINKER/LOCATER V6.22                                                      10/09/2015  15:13:05  PAGE 90


  C:2313H         LINE#         674
  C:2318H         LINE#         675
  C:2318H         LINE#         677
  C:2318H         LINE#         678
  C:231AH         LINE#         679
  C:2326H         LINE#         680
  C:2326H         LINE#         681
  C:232DH         LINE#         682
  C:232FH         LINE#         684
  C:2335H         LINE#         686
  C:2337H         LINE#         688
  C:233CH         LINE#         689
  C:233CH         LINE#         691
  C:233CH         LINE#         692
  C:233EH         LINE#         693
  C:234AH         LINE#         694
  C:234AH         LINE#         695
  C:2351H         LINE#         696
  C:2353H         LINE#         698
  C:2359H         LINE#         700
  C:235BH         LINE#         702
  C:2361H         LINE#         703
  C:2365H         LINE#         705
  C:236AH         LINE#         706
  C:236CH         LINE#         707
  C:2378H         LINE#         708
  C:2378H         LINE#         709
  C:2389H         LINE#         710
  C:238FH         LINE#         711
  C:2391H         LINE#         712
  C:239DH         LINE#         713
  C:239DH         LINE#         714
  C:23AEH         LINE#         715
  C:23B7H         LINE#         716
  C:23B7H         LINE#         717
  -------         ENDPROC       _IRDATADEAL
  -------         PROC          _RXDATADEAL
  C:4C7DH         LINE#         720
  C:4C7DH         LINE#         721
  C:4C7DH         LINE#         723
  -------         ENDPROC       _RXDATADEAL
  -------         PROC          _ENTEREVENTDEAL
  C:4210H         LINE#         725
  C:4210H         LINE#         726
  C:4210H         LINE#         727
  C:4216H         LINE#         729
  C:4218H         LINE#         730
  C:421AH         LINE#         731
  C:421FH         LINE#         733
  C:4225H         LINE#         735
  C:4229H         LINE#         736
  C:422BH         LINE#         738
  C:4231H         LINE#         740
  C:4237H         LINE#         741
  C:423AH         LINE#         744
  C:423DH         LINE#         745
  C:423DH         LINE#         746
BL51 BANKED LINKER/LOCATER V6.22                                                      10/09/2015  15:13:05  PAGE 91


  C:4243H         LINE#         747
  C:4249H         LINE#         748
  C:424DH         LINE#         749
  C:424DH         LINE#         751
  C:4252H         LINE#         753
  C:4258H         LINE#         755
  C:425CH         LINE#         756
  C:425EH         LINE#         757
  -------         ENDPROC       _ENTEREVENTDEAL
  -------         PROC          _EXITEVENTDEAL
  C:4C7EH         LINE#         759
  C:4C7EH         LINE#         760
  C:4C7EH         LINE#         762
  -------         ENDPROC       _EXITEVENTDEAL
  -------         ENDMOD        STATE_WORK

  -------         MODULE        ?C?FPMUL
  C:0FB3H         PUBLIC        ?C?FPMUL
  -------         ENDMOD        ?C?FPMUL

  -------         MODULE        ?C?FCAST
  C:10C3H         PUBLIC        ?C?FCASTC
  C:10BEH         PUBLIC        ?C?FCASTI
  C:10B9H         PUBLIC        ?C?FCASTL
  -------         ENDMOD        ?C?FCAST

  -------         MODULE        ?C?CASTF
  C:10F7H         PUBLIC        ?C?CASTF
  -------         ENDMOD        ?C?CASTF

  -------         MODULE        ?C?CLDPTR
  C:1178H         PUBLIC        ?C?CLDPTR
  -------         ENDMOD        ?C?CLDPTR

  -------         MODULE        ?C?CLDOPTR
  C:1191H         PUBLIC        ?C?CLDOPTR
  -------         ENDMOD        ?C?CLDOPTR

  -------         MODULE        ?C?CSTPTR
  C:11BEH         PUBLIC        ?C?CSTPTR
  -------         ENDMOD        ?C?CSTPTR

  -------         MODULE        ?C?CSTOPTR
  C:11D0H         PUBLIC        ?C?CSTOPTR
  -------         ENDMOD        ?C?CSTOPTR

  -------         MODULE        ?C?UIDIV
  C:11F2H         PUBLIC        ?C?UIDIV
  -------         ENDMOD        ?C?UIDIV

  -------         MODULE        ?C?ILDOPTR
  C:1247H         PUBLIC        ?C?ILDOPTR
  -------         ENDMOD        ?C?ILDOPTR

  -------         MODULE        ?C?ULDIV
  C:12BBH         PUBLIC        ?C?ULDIV
  -------         ENDMOD        ?C?ULDIV
BL51 BANKED LINKER/LOCATER V6.22                                                      10/09/2015  15:13:05  PAGE 92



  -------         MODULE        ?C?LNEG
  C:134DH         PUBLIC        ?C?LNEG
  -------         ENDMOD        ?C?LNEG

  -------         MODULE        ?C?ULCMP
  C:135BH         PUBLIC        ?C?ULCMP
  -------         ENDMOD        ?C?ULCMP

  -------         MODULE        ?C?LSTXDATA
  C:136CH         PUBLIC        ?C?LSTXDATA
  -------         ENDMOD        ?C?LSTXDATA

  -------         MODULE        ?C?OFFXADD
  C:1378H         PUBLIC        ?C?OFFXADD
  -------         ENDMOD        ?C?OFFXADD

  -------         MODULE        ?C?ICALL
  C:1384H         PUBLIC        ?C?ICALL
  C:1388H         PUBLIC        ?C?ICALL2
  -------         ENDMOD        ?C?ICALL

Program Size: data=29.6 xdata=501 code=19583
LINK/LOCATE RUN COMPLETE.  0 WARNING(S),  0 ERROR(S)
