BL51 BANKED LINKER/LOCATER V6.22                                                        10/17/2015  10:29:03  PAGE 1


BL51 BANKED LINKER/LOCATER V6.22, INVOKED BY:
C:\KEIL_V5\C51\BIN\BL51.EXE .\it.obj, startup.obj, .\main.obj, .\bsp_init.obj, .\aip1944.obj, .\display.obj, .\buzzer.ob
>> j, .\ir.obj, .\humidity.obj, .\dust.obj, .\motor.obj, .\system.obj, .\key.obj, .\fifo.obj, .\protocol.obj, .\uart.obj
>> , .\fsm.obj, .\state_test.obj, .\state_startup.obj, .\state_standby.obj, .\state_clockSetting.obj, .\state_echeck.obj
>> , .\state_timerSetting.obj, .\state_timerFnSetting.obj, .\state_timerLookup.obj, .\state_work.obj TO YTN-E608-WIFI-64
>> 32 RAMSIZE (256) DISABLEWARNING (16, 15, 13) CODE (0X0000-0X7FFF) XDATA (0X0000-0X02FF)




PROGRAM RECURSIONS REMOVED FROM CALL TREE
=========================================
+--> ?CO?STATE_STANDBY
|  | ?PR?_KEYACTIONDEAL?STATE_STANDBY
|  | ?CO?STATE_WORK
<--+ ?PR?_TIMETICK?STATE_WORK



MEMORY MODEL: LARGE WITH FLOATING POINT ARITHMETIC


INPUT MODULES INCLUDED:
  .\it.obj (IT)
  startup.obj (?C_STARTUP)
  .\main.obj (MAIN)
  .\bsp_init.obj (BSP_INIT)
  .\aip1944.obj (AIP1944)
  .\display.obj (DISPLAY)
  .\buzzer.obj (BUZZER)
  .\ir.obj (IR)
  .\humidity.obj (HUMIDITY)
  .\dust.obj (DUST)
  .\motor.obj (MOTOR)
  .\system.obj (SYSTEM)
  .\key.obj (KEY)
  .\fifo.obj (FIFO)
  .\protocol.obj (PROTOCOL)
  .\uart.obj (UART)
  .\fsm.obj (FSM)
  .\state_test.obj (STATE_TEST)
  .\state_startup.obj (STATE_STARTUP)
  .\state_standby.obj (STATE_STANDBY)
  .\state_clockSetting.obj (STATE_CLOCKSETTING)
  .\state_echeck.obj (STATE_ECHECK)
  .\state_timerSetting.obj (STATE_TIMERSETTING)
  .\state_timerFnSetting.obj (STATE_TIMERFNSETTING)
  .\state_timerLookup.obj (STATE_TIMERLOOKUP)
  .\state_work.obj (STATE_WORK)
  C:\KEIL_V5\C51\LIB\C51FPL.LIB (?C?FPMUL)
  C:\KEIL_V5\C51\LIB\C51FPL.LIB (?C?FCAST)
  C:\KEIL_V5\C51\LIB\C51FPL.LIB (?C?CASTF)
  C:\KEIL_V5\C51\LIB\C51FPL.LIB (?C?FPGETOPN)
  C:\KEIL_V5\C51\LIB\C51L.LIB (?C_INIT)
  C:\KEIL_V5\C51\LIB\C51L.LIB (?C?CLDPTR)
  C:\KEIL_V5\C51\LIB\C51L.LIB (?C?CLDOPTR)
  C:\KEIL_V5\C51\LIB\C51L.LIB (?C?CSTPTR)
  C:\KEIL_V5\C51\LIB\C51L.LIB (?C?CSTOPTR)
BL51 BANKED LINKER/LOCATER V6.22                                                      10/17/2015  10:29:03  PAGE 2


  C:\KEIL_V5\C51\LIB\C51L.LIB (?C?UIDIV)
  C:\KEIL_V5\C51\LIB\C51L.LIB (?C?ILDOPTR)
  C:\KEIL_V5\C51\LIB\C51L.LIB (?C?ULDIV)
  C:\KEIL_V5\C51\LIB\C51L.LIB (?C?LNEG)
  C:\KEIL_V5\C51\LIB\C51L.LIB (?C?ULCMP)
  C:\KEIL_V5\C51\LIB\C51L.LIB (?C?LSTXDATA)
  C:\KEIL_V5\C51\LIB\C51L.LIB (?C?LSTKXDATA)
  C:\KEIL_V5\C51\LIB\C51L.LIB (?C?OFFXADD)
  C:\KEIL_V5\C51\LIB\C51L.LIB (?C?ICALL)


LINK MAP OF MODULE:  YTN-E608-WIFI-6432 (IT)


            TYPE    BASE      LENGTH    RELOCATION   SEGMENT NAME
            -----------------------------------------------------

            * * * * * * *   D A T A   M E M O R Y   * * * * * * *
            REG     0000H     0008H     ABSOLUTE     "REG BANK 0"
            IDATA   0008H     000BH     UNIT         ?ID?IT
            IDATA   0013H     0003H     UNIT         ?ID?MAIN
            IDATA   0016H     0003H     UNIT         ?ID?HUMIDITY
                    0019H     0007H                  *** GAP ***
            BIT     0020H.0   0000H.7   UNIT         _BIT_GROUP_
            BIT     0020H.7   0000H.6   UNIT         ?BI?SYSTEM
            BIT     0021H.5   0000H.3   UNIT         ?BI?DISPLAY
            BIT     0022H.0   0000H.3   UNIT         ?BI?MOTOR
            BIT     0022H.3   0000H.2   UNIT         ?BI?HUMIDITY
            BIT     0022H.5   0000H.2   UNIT         ?BI?DUST
            BIT     0022H.7   0000H.2   UNIT         ?BI?UART
            BIT     0023H.1   0000H.1   UNIT         ?BI?BUZZER
            BIT     0023H.2   0000H.1   UNIT         ?BI?IR
            BIT     0023H.3   0000H.1   UNIT         ?BI?KEY
            BIT     0023H.4   0000H.1   UNIT         ?BI?PROTOCOL
            BIT     0023H.5   0000H.1   UNIT         ?BI?STATE_STANDBY
            BIT     0023H.6   0000H.1   UNIT         ?BI?STATE_ECHECK
            BIT     0023H.7   0000H.1   UNIT         ?BI?STATE_WORK
            IDATA   0024H     0001H     UNIT         ?STACK

            * * * * * * *  X D A T A   M E M O R Y  * * * * * * *
            XDATA   0000H     00D8H     UNIT         ?XD?UART
            XDATA   00D8H     007AH     UNIT         ?XD?SYSTEM
            XDATA   0152H     0042H     UNIT         ?XD?DISPLAY
            XDATA   0194H     0017H     UNIT         _XDATA_GROUP_
            XDATA   01ABH     0015H     UNIT         ?XD?DUST
            XDATA   01C0H     0012H     UNIT         ?XD?STATE_WORK
            XDATA   01D2H     0011H     UNIT         ?XD?HUMIDITY
            XDATA   01E3H     0008H     UNIT         ?XD?MOTOR
            XDATA   01EBH     0004H     UNIT         ?XD?IT
            XDATA   01EFH     0004H     UNIT         ?XD?BUZZER
            XDATA   01F3H     0004H     UNIT         ?XD?KEY
            XDATA   01F7H     0004H     UNIT         ?XD?PROTOCOL
            XDATA   01FBH     0002H     UNIT         ?XD?IR
            XDATA   01FDH     0002H     UNIT         ?XD?FSM
            XDATA   01FFH     0002H     UNIT         ?XD?STATE_STANDBY
            XDATA   0201H     0001H     UNIT         ?XD?AIP1944
            XDATA   0202H     0001H     UNIT         ?XD?STATE_CLOCKSETTING
BL51 BANKED LINKER/LOCATER V6.22                                                      10/17/2015  10:29:03  PAGE 3


            XDATA   0203H     0001H     UNIT         ?XD?STATE_TIMERSETTING
            XDATA   0204H     0001H     UNIT         ?XD?STATE_TIMERLOOKUP

            * * * * * * *   C O D E   M E M O R Y   * * * * * * *
            CODE    0000H     0003H     ABSOLUTE     
            CODE    0003H     0018H     UNIT         ?PR?TIMER1_INIT?BSP_INIT
            CODE    001BH     0003H     ABSOLUTE     
            CODE    001EH     0005H     UNIT         ?PR?CMD_GET_SYS_STA_DEAL?PROTOCOL
            CODE    0023H     0003H     ABSOLUTE     
            CODE    0026H     0044H     UNIT         ?PR?UART_SENDSTARTUP?UART
            CODE    006AH     0001H     UNIT         ?PR?CMD_DUMMY_DEAL?PROTOCOL
            CODE    006BH     0003H     ABSOLUTE     
            CODE    006EH     0034H     UNIT         ?PR?_DISPLAY_SPLEVEL?DISPLAY
            CODE    00A2H     0001H     UNIT         ?PR?TASK_DONOTHING?FSM
            CODE    00A3H     0003H     ABSOLUTE     
            CODE    00A6H     000DH     UNIT         ?PR?BIT_INIT?BSP_INIT
            CODE    00B3H     0003H     ABSOLUTE     
            CODE    00B6H     0AE7H     UNIT         ?CO?HUMIDITY
            CODE    0B9DH     0572H     UNIT         ?PR?_TIMETICK?STATE_WORK
            CODE    110FH     0417H     UNIT         ?PR?_PROTOCOL_STARESP?PROTOCOL
            CODE    1526H     0408H     UNIT         ?C?LIB_CODE
            CODE    192EH     02F3H     UNIT         ?PR?_DISPLAYCONTROL?STATE_WORK
            CODE    1C21H     01E1H     UNIT         ?PR?_IRDATADEAL?STATE_WORK
            CODE    1E02H     01B3H     UNIT         ?PR?_KEYACTIONDEAL?STATE_TIMERSETTING
            CODE    1FB5H     01ABH     UNIT         ?PR?CMD_GET_DEVICE_INFO_DEAL?PROTOCOL
            CODE    2160H     01A5H     UNIT         ?PR?MOTOR_CTR?MOTOR
            CODE    2305H     01A1H     UNIT         ?PR?PROTOCOL_TASK?PROTOCOL
            CODE    24A6H     019BH     UNIT         ?PR?INT_BIT?IT
            CODE    2641H     015FH     UNIT         ?PR?CMD_GET_PM_DATAS_DEAL?PROTOCOL
            CODE    27A0H     0148H     UNIT         ?PR?_DISPLAYCONTROL?STATE_TIMERSETTING
            CODE    28E8H     011EH     UNIT         ?PR?_DISPLAYCONTROL?STATE_TIMERLOOKUP
            CODE    2A06H     0117H     UNIT         ?CO?DISPLAY
            CODE    2B1DH     010FH     UNIT         ?PR?_IRDATADEAL?STATE_STANDBY
            CODE    2C2CH     010EH     UNIT         ?PR?_TIMETICK?STATE_STANDBY
            CODE    2D3AH     010DH     UNIT         ?PR?_KEYACTIONDEAL?STATE_WORK
            CODE    2E47H     0104H     UNIT         ?PR?INT_WT?IT
            CODE    2F4BH     0102H     UNIT         ?PR?_DISPLAY_DUSTDATA?DISPLAY
            CODE    304DH     0102H     UNIT         ?PR?_KEYACTIONDEAL?STATE_STANDBY
            CODE    314FH     0102H     UNIT         ?PR?_DISPLAYCONTROL?STATE_STANDBY
            CODE    3251H     00FEH     UNIT         ?PR?_DISPLAY_SHOWNUMINRTCAREA?DISPLAY
            CODE    334FH     00FEH     UNIT         ?PR?_HUMIDITY_AD2H?HUMIDITY
            CODE    344DH     00FAH     UNIT         ?PR?_DISPLAYCONTROL?STATE_TEST
            CODE    3547H     00F3H     UNIT         ?PR?SYS_UPDATETIMERONINDEX?SYSTEM
            CODE    363AH     00E3H     UNIT         ?PR?PROTOCOL_RESETWIFIMODE?PROTOCOL
            CODE    371DH     00D1H     UNIT         ?PR?MAIN?MAIN
            CODE    37EEH     00CEH     UNIT         ?PR?_DISPLAY_SHOWRT?DISPLAY
            CODE    38BCH     00CCH     UNIT         ?PR?KEY_ACTIONDETECT?KEY
            CODE    3988H     00B2H     UNIT         ?PR?DISPLAY_LEDDRIVE?DISPLAY
            CODE    3A3AH     00B1H     UNIT         ?PR?DUST_LEVELUPDATE?DUST
            CODE    3AEBH     00ADH     UNIT         ?PR?DUST_DATAUPDATE?DUST
            CODE    3B98H     00ADH     UNIT         ?PR?CMD_GET_ENE_DATAS_DEAL?PROTOCOL
            CODE    3C45H     00ACH     UNIT         ?PR?INT_USI1_RX?IT
            CODE    3CF1H     00A5H     UNIT         ?PR?_TASKEXE?STATE_WORK
            CODE    3D96H     00A3H     UNIT         ?PR?PROTOCOL_ENTERATMODE?PROTOCOL
            CODE    3E39H     00A0H     UNIT         ?PR?HUMIDITY_GETCURRENTH?HUMIDITY
            CODE    3ED9H     009BH     UNIT         ?PR?_ENTEREVENTDEAL?STATE_WORK
            CODE    3F74H     009AH     UNIT         ?C_C51STARTUP
BL51 BANKED LINKER/LOCATER V6.22                                                      10/17/2015  10:29:03  PAGE 4


            CODE    400EH     008FH     UNIT         ?PR?INT_USI1_TX?IT
            CODE    409DH     0089H     UNIT         ?PR?HUMIDITY_GETCURRENTT?HUMIDITY
            CODE    4126H     007EH     UNIT         ?PR?_KEYACTIONDEAL?STATE_CLOCKSETTING
            CODE    41A4H     007AH     UNIT         ?PR?CMD_TIMER_CTR_DEAL?PROTOCOL
            CODE    421EH     0079H     UNIT         ?PR?SYS_RESET?SYSTEM
            CODE    4297H     0075H     UNIT         ?PR?_HUMIDITY_GETH?HUMIDITY
            CODE    430CH     0064H     UNIT         ?PR?_MOTORCTR?STATE_WORK
            CODE    4370H     0061H     UNIT         ?PR?_ENQUEUE?FIFO
            CODE    43D1H     005FH     UNIT         ?PR?_DISPLAY_SHOWTEMPERATURE?DISPLAY
            CODE    4430H     005FH     UNIT         ?PR?_DISPLAY_SHOWHUMIDITY?DISPLAY
            CODE    448FH     005FH     UNIT         ?PR?CMD_FAN_CTR_DEAL?PROTOCOL
            CODE    44EEH     005DH     UNIT         ?PR?_DEQUEUE?FIFO
            CODE    454BH     0053H     UNIT         ?PR?SYS_LOADCTR?SYSTEM
            CODE    459EH     0053H     UNIT         ?PR?KEY_READ?KEY
            CODE    45F1H     0052H     UNIT         ?PR?_STATE_TRANSITIONTO?FSM
            CODE    4643H     0051H     UNIT         ?PR?PORT_INIT?BSP_INIT
            CODE    4694H     0050H     UNIT         ?PR?_AIP1944_WRITEDISPDATAS?AIP1944
            CODE    46E4H     004BH     UNIT         ?PR?DUST_GETRTLEVEL?DUST
            CODE    472FH     004BH     UNIT         ?CO?PROTOCOL
            CODE    477AH     004AH     UNIT         ?PR?_DISPLAY_CIRCLERUN?DISPLAY
            CODE    47C4H     0043H     UNIT         ?PR?BUZZ_CTR?BUZZER
            CODE    4807H     0043H     UNIT         ?PR?CMD_RT_SET_DEAL?PROTOCOL
            CODE    484AH     003EH     UNIT         ?PR?_DISPLAY_DUSTLEVEL?DISPLAY
            CODE    4888H     003CH     UNIT         ?PR?_KEYACTIONDEAL?STATE_ECHECK
            CODE    48C4H     003AH     UNIT         ?PR?_KEYACTIONDEAL?STATE_TIMERLOOKUP
            CODE    48FEH     0039H     UNIT         ?PR?_QUEUEISFULL?FIFO
            CODE    4937H     0036H     UNIT         ?PR?_ENTEREVENTDEAL?STATE_STANDBY
            CODE    496DH     0034H     UNIT         ?PR?UART_MEMORYINIT?UART
            CODE    49A1H     0034H     UNIT         ?PR?_DISPLAYCONTROL?STATE_TIMERFNSETTING
            CODE    49D5H     0033H     UNIT         ?PR?DISPLAY_CTR?DISPLAY
            CODE    4A08H     0033H     UNIT         ?PR?GETNEXTACTIVETIMERINDEX?STATE_TIMERLOOKUP
            CODE    4A3BH     0032H     UNIT         ?PR?INITALL?MAIN
            CODE    4A6DH     002EH     UNIT         ?PR?BSP_INIT?BSP_INIT
            CODE    4A9BH     002EH     UNIT         ?PR?SYS_ENTERSTOPMODE?SYSTEM
            CODE    4AC9H     002DH     UNIT         ?C_INITSEG
            CODE    4AF6H     002CH     UNIT         ?PR?_DISPLAYCONTROL?STATE_CLOCKSETTING
            CODE    4B22H     002BH     UNIT         ?PR?CMD_POWER_CTR_DEAL?PROTOCOL
            CODE    4B4DH     002BH     UNIT         ?PR?_DISPLAYCONTROL?STATE_ECHECK
            CODE    4B78H     0026H     UNIT         ?PR?_HUMIDITY_AD2T?HUMIDITY
            CODE    4B9EH     0020H     UNIT         ?PR?DISPLAY_SETLINE?DISPLAY
            CODE    4BBEH     001FH     UNIT         ?PR?_KEYACTIONDEAL?STATE_TIMERFNSETTING
            CODE    4BDDH     001EH     UNIT         ?CO?SYSTEM
            CODE    4BFBH     001DH     UNIT         ?PR?_MOTOR_RUN?MOTOR
            CODE    4C18H     001DH     UNIT         ?PR?CMD_AION_CTR_DEAL?PROTOCOL
            CODE    4C35H     001DH     UNIT         ?PR?CMD_UV_CTR_DEAL?PROTOCOL
            CODE    4C52H     001CH     UNIT         ?PR?CMD_REST_DEAL?PROTOCOL
            CODE    4C6EH     001BH     UNIT         ?PR?_BUZZ_SET?BUZZER
            CODE    4C89H     001BH     UNIT         ?PR?CMD_MEM_SET_DEAL?PROTOCOL
            CODE    4CA4H     001BH     UNIT         ?CO?FSM
            CODE    4CBFH     001BH     UNIT         ?CO?STATE_TEST
            CODE    4CDAH     001BH     UNIT         ?CO?STATE_STARTUP
            CODE    4CF5H     001BH     UNIT         ?CO?STATE_STANDBY
            CODE    4D10H     001BH     UNIT         ?CO?STATE_CLOCKSETTING
            CODE    4D2BH     001BH     UNIT         ?CO?STATE_ECHECK
            CODE    4D46H     001BH     UNIT         ?CO?STATE_TIMERSETTING
            CODE    4D61H     001BH     UNIT         ?CO?STATE_TIMERFNSETTING
            CODE    4D7CH     001BH     UNIT         ?PR?_ENTEREVENTDEAL?STATE_TIMERLOOKUP
BL51 BANKED LINKER/LOCATER V6.22                                                      10/17/2015  10:29:03  PAGE 5


            CODE    4D97H     001BH     UNIT         ?CO?STATE_TIMERLOOKUP
            CODE    4DB2H     001BH     UNIT         ?CO?STATE_WORK
            CODE    4DCDH     001AH     UNIT         ?PR?_AIP1944_WRITEBYTE?AIP1944
            CODE    4DE7H     001AH     UNIT         ?PR?_QUEUELEN?FIFO
            CODE    4E01H     0019H     UNIT         ?PR?CMD_WIFI_STA_CHANGE_DEAL?PROTOCOL
            CODE    4E1AH     0018H     UNIT         ?PR?_TIMETICK?STATE_STARTUP
            CODE    4E32H     0018H     UNIT         ?PR?_TIMETICK?STATE_CLOCKSETTING
            CODE    4E4AH     0018H     UNIT         ?PR?_TIMETICK?STATE_ECHECK
            CODE    4E62H     0018H     UNIT         ?PR?_TIMETICK?STATE_TIMERSETTING
            CODE    4E7AH     0018H     UNIT         ?PR?_TIMETICK?STATE_TIMERFNSETTING
            CODE    4E92H     0018H     UNIT         ?PR?_TIMETICK?STATE_TIMERLOOKUP
            CODE    4EAAH     0016H     UNIT         ?PR?UART_INIT?BSP_INIT
            CODE    4EC0H     0016H     UNIT         ?PR?_UTILS_GETADVALUE?HUMIDITY
            CODE    4ED6H     0016H     UNIT         ?PR?CMD_FIX_CTR_DEAL?PROTOCOL
            CODE    4EECH     0016H     UNIT         ?PR?CMD_CLEAN_CTR_DEAL?PROTOCOL
            CODE    4F02H     0015H     UNIT         ?PR?_QUEUEISEMPTY?FIFO
            CODE    4F17H     0014H     UNIT         ?PR?_DISPLAY_SETALL?DISPLAY
            CODE    4F2BH     0014H     UNIT         ?PR?DUST_DEVICEINIT?DUST
            CODE    4F3FH     0013H     UNIT         ?PR?INT_TIMER0?IT
            CODE    4F52H     0012H     UNIT         ?PR?_BUZ_ONOFF?BSP_INIT
            CODE    4F64H     0012H     UNIT         ?PR?BUZZ_DEVICEINIT?BUZZER
            CODE    4F76H     0010H     UNIT         ?PR?HUMIDITY_DEVICEINIT?HUMIDITY
            CODE    4F86H     0010H     UNIT         ?PR?HOURDEC?STATE_CLOCKSETTING
            CODE    4F96H     0010H     UNIT         ?PR?MINDEC?STATE_CLOCKSETTING
            CODE    4FA6H     000FH     UNIT         ?PR?_ADC_START?BSP_INIT
            CODE    4FB5H     000FH     UNIT         ?PR?HOURINC?STATE_CLOCKSETTING
            CODE    4FC4H     000FH     UNIT         ?PR?MININC?STATE_CLOCKSETTING
            CODE    4FD3H     000EH     UNIT         ?PR?_INITQUEUE?FIFO
            CODE    4FE1H     000EH     UNIT         ?PR?_ENTEREVENTDEAL?STATE_STARTUP
            CODE    4FEFH     000DH     UNIT         ?PR?TIMER0_INIT?BSP_INIT
            CODE    4FFCH     000DH     UNIT         ?PR?WT_INIT?BSP_INIT
            CODE    5009H     000AH     UNIT         ?PR?MOTOR_STOP?MOTOR
            CODE    5013H     000AH     UNIT         ?PR?_DISPLAYCONTROL?STATE_STARTUP
            CODE    501DH     000AH     UNIT         ?PR?_ENTEREVENTDEAL?STATE_CLOCKSETTING
            CODE    5027H     000AH     UNIT         ?PR?_ENTEREVENTDEAL?STATE_TIMERSETTING
            CODE    5031H     0009H     UNIT         ?PR?WDT_INIT?BSP_INIT
            CODE    503AH     0009H     UNIT         ?PR?UART_RXDATSDEAL?UART
            CODE    5043H     0008H     UNIT         ?PR?LCD_INIT?BSP_INIT
            CODE    504BH     0008H     UNIT         ?PR?PROTOCOL_INIT?PROTOCOL
            CODE    5053H     0008H     UNIT         ?PR?_ENTEREVENTDEAL?STATE_ECHECK
            CODE    505BH     0007H     UNIT         ?PR?ADC_INIT?BSP_INIT
            CODE    5062H     0007H     UNIT         ?PR?BUZ_INIT?BSP_INIT
            CODE    5069H     0007H     UNIT         ?PR?CLOCK_INIT?BSP_INIT
            CODE    5070H     0006H     UNIT         ?PR?_ENTEREVENTDEAL?STATE_TIMERFNSETTING
            CODE    5076H     0004H     UNIT         ?PR?WDT_CLEAR?BSP_INIT
            CODE    507AH     0003H     UNIT         ?PR?_MOTORCTR?STATE_STARTUP
            CODE    507DH     0003H     UNIT         ?PR?_MOTORCTR?STATE_STANDBY
            CODE    5080H     0003H     UNIT         ?PR?_MOTORCTR?STATE_CLOCKSETTING
            CODE    5083H     0003H     UNIT         ?PR?_MOTORCTR?STATE_ECHECK
            CODE    5086H     0003H     UNIT         ?PR?_MOTORCTR?STATE_TIMERSETTING
            CODE    5089H     0003H     UNIT         ?PR?_MOTORCTR?STATE_TIMERFNSETTING
            CODE    508CH     0003H     UNIT         ?PR?_MOTORCTR?STATE_TIMERLOOKUP
            CODE    508FH     0001H     UNIT         ?PR?_KEYACTIONDEAL?STATE_TEST
            CODE    5090H     0001H     UNIT         ?PR?_TASKEXE?STATE_TEST
            CODE    5091H     0001H     UNIT         ?PR?_TIMETICK?STATE_TEST
            CODE    5092H     0001H     UNIT         ?PR?_MOTORCTR?STATE_TEST
            CODE    5093H     0001H     UNIT         ?PR?_IRDATADEAL?STATE_TEST
BL51 BANKED LINKER/LOCATER V6.22                                                      10/17/2015  10:29:03  PAGE 6


            CODE    5094H     0001H     UNIT         ?PR?_RXDATADEAL?STATE_TEST
            CODE    5095H     0001H     UNIT         ?PR?_ENTEREVENTDEAL?STATE_TEST
            CODE    5096H     0001H     UNIT         ?PR?_EXITEVENTDEAL?STATE_TEST
            CODE    5097H     0001H     UNIT         ?PR?_KEYACTIONDEAL?STATE_STARTUP
            CODE    5098H     0001H     UNIT         ?PR?_TASKEXE?STATE_STARTUP
            CODE    5099H     0001H     UNIT         ?PR?_IRDATADEAL?STATE_STARTUP
            CODE    509AH     0001H     UNIT         ?PR?_RXDATADEAL?STATE_STARTUP
            CODE    509BH     0001H     UNIT         ?PR?_EXITEVENTDEAL?STATE_STARTUP
            CODE    509CH     0001H     UNIT         ?PR?_TASKEXE?STATE_STANDBY
            CODE    509DH     0001H     UNIT         ?PR?_RXDATADEAL?STATE_STANDBY
            CODE    509EH     0001H     UNIT         ?PR?_EXITEVENTDEAL?STATE_STANDBY
            CODE    509FH     0001H     UNIT         ?PR?_TASKEXE?STATE_CLOCKSETTING
            CODE    50A0H     0001H     UNIT         ?PR?_IRDATADEAL?STATE_CLOCKSETTING
            CODE    50A1H     0001H     UNIT         ?PR?_RXDATADEAL?STATE_CLOCKSETTING
            CODE    50A2H     0001H     UNIT         ?PR?_EXITEVENTDEAL?STATE_CLOCKSETTING
            CODE    50A3H     0001H     UNIT         ?PR?_TASKEXE?STATE_ECHECK
            CODE    50A4H     0001H     UNIT         ?PR?_IRDATADEAL?STATE_ECHECK
            CODE    50A5H     0001H     UNIT         ?PR?_RXDATADEAL?STATE_ECHECK
            CODE    50A6H     0001H     UNIT         ?PR?_EXITEVENTDEAL?STATE_ECHECK
            CODE    50A7H     0001H     UNIT         ?PR?_TASKEXE?STATE_TIMERSETTING
            CODE    50A8H     0001H     UNIT         ?PR?_IRDATADEAL?STATE_TIMERSETTING
            CODE    50A9H     0001H     UNIT         ?PR?_RXDATADEAL?STATE_TIMERSETTING
            CODE    50AAH     0001H     UNIT         ?PR?_EXITEVENTDEAL?STATE_TIMERSETTING
            CODE    50ABH     0001H     UNIT         ?PR?_TASKEXE?STATE_TIMERFNSETTING
            CODE    50ACH     0001H     UNIT         ?PR?_IRDATADEAL?STATE_TIMERFNSETTING
            CODE    50ADH     0001H     UNIT         ?PR?_RXDATADEAL?STATE_TIMERFNSETTING
            CODE    50AEH     0001H     UNIT         ?PR?_EXITEVENTDEAL?STATE_TIMERFNSETTING
            CODE    50AFH     0001H     UNIT         ?PR?_TASKEXE?STATE_TIMERLOOKUP
            CODE    50B0H     0001H     UNIT         ?PR?_IRDATADEAL?STATE_TIMERLOOKUP
            CODE    50B1H     0001H     UNIT         ?PR?_RXDATADEAL?STATE_TIMERLOOKUP
            CODE    50B2H     0001H     UNIT         ?PR?_EXITEVENTDEAL?STATE_TIMERLOOKUP
            CODE    50B3H     0001H     UNIT         ?PR?_RXDATADEAL?STATE_WORK
            CODE    50B4H     0001H     UNIT         ?PR?_EXITEVENTDEAL?STATE_WORK



OVERLAY MAP OF MODULE:   YTN-E608-WIFI-6432 (IT)


SEGMENT                                             BIT_GROUP          XDATA_GROUP
  +--> CALLED SEGMENT                            START    LENGTH     START    LENGTH
------------------------------------------------------------------------------------
?PR?INT_WT?IT                                    -----    -----      -----    -----
  +--> ?PR?INITALL?MAIN

?PR?INITALL?MAIN                                 -----    -----      -----    -----
  +--> ?PR?BSP_INIT?BSP_INIT
  +--> ?PR?BUZZ_DEVICEINIT?BUZZER
  +--> ?PR?UART_MEMORYINIT?UART
  +--> ?PR?PROTOCOL_INIT?PROTOCOL
  +--> ?PR?HUMIDITY_DEVICEINIT?HUMIDITY
  +--> ?PR?DUST_DEVICEINIT?DUST
  +--> ?CO?STATE_STANDBY
  +--> ?PR?_STATE_TRANSITIONTO?FSM
  +--> ?PR?_BUZZ_SET?BUZZER

?PR?BSP_INIT?BSP_INIT                            -----    -----      -----    -----
BL51 BANKED LINKER/LOCATER V6.22                                                      10/17/2015  10:29:03  PAGE 7


  +--> ?PR?PORT_INIT?BSP_INIT
  +--> ?PR?CLOCK_INIT?BSP_INIT
  +--> ?PR?WT_INIT?BSP_INIT
  +--> ?PR?ADC_INIT?BSP_INIT
  +--> ?PR?BIT_INIT?BSP_INIT
  +--> ?PR?BUZ_INIT?BSP_INIT
  +--> ?PR?LCD_INIT?BSP_INIT
  +--> ?PR?TIMER0_INIT?BSP_INIT
  +--> ?PR?TIMER1_INIT?BSP_INIT
  +--> ?PR?UART_INIT?BSP_INIT

?PR?UART_MEMORYINIT?UART                         -----    -----      -----    -----
  +--> ?PR?_INITQUEUE?FIFO

?PR?HUMIDITY_DEVICEINIT?HUMIDITY                 -----    -----      -----    -----
  +--> ?PR?_UTILS_GETADVALUE?HUMIDITY
  +--> ?PR?_HUMIDITY_AD2T?HUMIDITY
  +--> ?PR?_HUMIDITY_AD2H?HUMIDITY

?PR?_HUMIDITY_AD2T?HUMIDITY                      -----    -----      -----    -----
  +--> ?CO?HUMIDITY

?PR?_HUMIDITY_AD2H?HUMIDITY                      -----    -----      019CH    0003H
  +--> ?PR?_HUMIDITY_GETH?HUMIDITY

?PR?_HUMIDITY_GETH?HUMIDITY                      -----    -----      019FH    0003H
  +--> ?CO?HUMIDITY

?CO?STATE_STANDBY                                -----    -----      -----    -----
  +--> ?PR?_KEYACTIONDEAL?STATE_STANDBY
  +--> ?PR?_DISPLAYCONTROL?STATE_STANDBY
  +--> ?PR?_TASKEXE?STATE_STANDBY
  +--> ?PR?_TIMETICK?STATE_STANDBY
  +--> ?PR?_MOTORCTR?STATE_STANDBY
  +--> ?PR?_IRDATADEAL?STATE_STANDBY
  +--> ?PR?_RXDATADEAL?STATE_STANDBY
  +--> ?PR?_ENTEREVENTDEAL?STATE_STANDBY
  +--> ?PR?_EXITEVENTDEAL?STATE_STANDBY

?PR?_KEYACTIONDEAL?STATE_STANDBY                 -----    -----      -----    -----
  +--> ?PR?_BUZZ_SET?BUZZER
  +--> ?CO?STATE_WORK
  +--> ?CO?STATE_ECHECK
  +--> ?CO?STATE_TIMERLOOKUP
  +--> ?CO?STATE_CLOCKSETTING
  +--> ?CO?STATE_TIMERSETTING
  +--> ?CO?STATE_TIMERFNSETTING
  +--> ?PR?_STATE_TRANSITIONTO?FSM
  +--> ?PR?PROTOCOL_ENTERATMODE?PROTOCOL
  +--> ?PR?SYS_RESET?SYSTEM

?CO?STATE_WORK                                   -----    -----      -----    -----
  +--> ?PR?_KEYACTIONDEAL?STATE_WORK
  +--> ?PR?_DISPLAYCONTROL?STATE_WORK
  +--> ?PR?_TASKEXE?STATE_WORK
  +--> ?PR?_TIMETICK?STATE_WORK
  +--> ?PR?_MOTORCTR?STATE_WORK
BL51 BANKED LINKER/LOCATER V6.22                                                      10/17/2015  10:29:03  PAGE 8


  +--> ?PR?_IRDATADEAL?STATE_WORK
  +--> ?PR?_RXDATADEAL?STATE_WORK
  +--> ?PR?_ENTEREVENTDEAL?STATE_WORK
  +--> ?PR?_EXITEVENTDEAL?STATE_WORK

?PR?_KEYACTIONDEAL?STATE_WORK                    -----    -----      -----    -----
  +--> ?PR?_STATE_TRANSITIONTO?FSM
  +--> ?PR?_BUZZ_SET?BUZZER

?PR?_STATE_TRANSITIONTO?FSM                      0020H.4  0000H.2    01A0H    0002H

?PR?_DISPLAYCONTROL?STATE_WORK                   -----    -----      -----    -----
  +--> ?PR?_DISPLAY_SPLEVEL?DISPLAY
  +--> ?PR?DISPLAY_SETLINE?DISPLAY
  +--> ?PR?_DISPLAY_DUSTDATA?DISPLAY
  +--> ?PR?_DISPLAY_DUSTLEVEL?DISPLAY
  +--> ?PR?_DISPLAY_SHOWTEMPERATURE?DISPLAY
  +--> ?PR?_DISPLAY_SHOWHUMIDITY?DISPLAY
  +--> ?PR?_DISPLAY_SHOWRT?DISPLAY
  +--> ?PR?_DISPLAY_CIRCLERUN?DISPLAY
  +--> ?CO?SYSTEM

?PR?_DISPLAY_DUSTDATA?DISPLAY                    -----    -----      019FH    0003H
  +--> ?CO?DISPLAY

?PR?_DISPLAY_SHOWTEMPERATURE?DISPLAY             -----    -----      -----    -----
  +--> ?CO?DISPLAY

?PR?_DISPLAY_SHOWHUMIDITY?DISPLAY                -----    -----      -----    -----
  +--> ?CO?DISPLAY

?PR?_DISPLAY_SHOWRT?DISPLAY                      0020H.5  0000H.2    -----    -----
  +--> ?CO?DISPLAY

?PR?_TIMETICK?STATE_WORK                         -----    -----      019FH    0001H
  +--> ?PR?_STATE_TRANSITIONTO?FSM
  +--> ?PR?_BUZZ_SET?BUZZER
  +--> ?CO?SYSTEM

?PR?_MOTORCTR?STATE_WORK                         -----    -----      -----    -----
  +--> ?PR?MOTOR_STOP?MOTOR
  +--> ?PR?_MOTOR_RUN?MOTOR

?PR?_IRDATADEAL?STATE_WORK                       -----    -----      -----    -----
  +--> ?PR?_BUZZ_SET?BUZZER
  +--> ?PR?_STATE_TRANSITIONTO?FSM

?PR?_ENTEREVENTDEAL?STATE_WORK                   -----    -----      -----    -----
  +--> ?PR?DUST_DEVICEINIT?DUST

?CO?STATE_ECHECK                                 -----    -----      -----    -----
  +--> ?PR?_KEYACTIONDEAL?STATE_ECHECK
  +--> ?PR?_DISPLAYCONTROL?STATE_ECHECK
  +--> ?PR?_TASKEXE?STATE_ECHECK
  +--> ?PR?_TIMETICK?STATE_ECHECK
  +--> ?PR?_MOTORCTR?STATE_ECHECK
  +--> ?PR?_IRDATADEAL?STATE_ECHECK
BL51 BANKED LINKER/LOCATER V6.22                                                      10/17/2015  10:29:03  PAGE 9


  +--> ?PR?_RXDATADEAL?STATE_ECHECK
  +--> ?PR?_ENTEREVENTDEAL?STATE_ECHECK
  +--> ?PR?_EXITEVENTDEAL?STATE_ECHECK

?PR?_KEYACTIONDEAL?STATE_ECHECK                  -----    -----      -----    -----
  +--> ?PR?_BUZZ_SET?BUZZER

?PR?_DISPLAYCONTROL?STATE_ECHECK                 -----    -----      -----    -----
  +--> ?PR?_DISPLAY_SHOWNUMINRTCAREA?DISPLAY

?PR?_DISPLAY_SHOWNUMINRTCAREA?DISPLAY            -----    -----      019FH    0003H
  +--> ?CO?DISPLAY

?PR?_TIMETICK?STATE_ECHECK                       -----    -----      -----    -----
  +--> ?PR?_STATE_TRANSITIONTO?FSM

?PR?_MOTORCTR?STATE_ECHECK                       -----    -----      -----    -----
  +--> ?PR?MOTOR_STOP?MOTOR

?CO?STATE_TIMERLOOKUP                            -----    -----      -----    -----
  +--> ?PR?_KEYACTIONDEAL?STATE_TIMERLOOKUP
  +--> ?PR?_DISPLAYCONTROL?STATE_TIMERLOOKUP
  +--> ?PR?_TASKEXE?STATE_TIMERLOOKUP
  +--> ?PR?_TIMETICK?STATE_TIMERLOOKUP
  +--> ?PR?_MOTORCTR?STATE_TIMERLOOKUP
  +--> ?PR?_IRDATADEAL?STATE_TIMERLOOKUP
  +--> ?PR?_RXDATADEAL?STATE_TIMERLOOKUP
  +--> ?PR?_ENTEREVENTDEAL?STATE_TIMERLOOKUP
  +--> ?PR?_EXITEVENTDEAL?STATE_TIMERLOOKUP

?PR?_KEYACTIONDEAL?STATE_TIMERLOOKUP             -----    -----      -----    -----
  +--> ?PR?GETNEXTACTIVETIMERINDEX?STATE_TIM...
  +--> ?PR?_BUZZ_SET?BUZZER

?PR?GETNEXTACTIVETIMERINDEX?STATE_TIM...         -----    -----      -----    -----
  +--> ?CO?SYSTEM

?PR?_DISPLAYCONTROL?STATE_TIMERLOOKUP            -----    -----      -----    -----
  +--> ?PR?_DISPLAY_SHOWNUMINRTCAREA?DISPLAY
  +--> ?CO?SYSTEM
  +--> ?PR?_DISPLAY_SHOWRT?DISPLAY

?PR?_TIMETICK?STATE_TIMERLOOKUP                  -----    -----      -----    -----
  +--> ?PR?_STATE_TRANSITIONTO?FSM

?PR?_MOTORCTR?STATE_TIMERLOOKUP                  -----    -----      -----    -----
  +--> ?PR?MOTOR_STOP?MOTOR

?PR?_ENTEREVENTDEAL?STATE_TIMERLOOKUP            -----    -----      -----    -----
  +--> ?PR?GETNEXTACTIVETIMERINDEX?STATE_TIM...

?CO?STATE_CLOCKSETTING                           -----    -----      -----    -----
  +--> ?PR?_KEYACTIONDEAL?STATE_CLOCKSETTING
  +--> ?PR?_DISPLAYCONTROL?STATE_CLOCKSETTING
  +--> ?PR?_TASKEXE?STATE_CLOCKSETTING
  +--> ?PR?_TIMETICK?STATE_CLOCKSETTING
  +--> ?PR?_MOTORCTR?STATE_CLOCKSETTING
BL51 BANKED LINKER/LOCATER V6.22                                                      10/17/2015  10:29:03  PAGE 10


  +--> ?PR?_IRDATADEAL?STATE_CLOCKSETTING
  +--> ?PR?_RXDATADEAL?STATE_CLOCKSETTING
  +--> ?PR?_ENTEREVENTDEAL?STATE_CLOCKSETTING
  +--> ?PR?_EXITEVENTDEAL?STATE_CLOCKSETTING

?PR?_KEYACTIONDEAL?STATE_CLOCKSETTING            -----    -----      -----    -----
  +--> ?PR?HOURINC?STATE_CLOCKSETTING
  +--> ?PR?MININC?STATE_CLOCKSETTING
  +--> ?PR?HOURDEC?STATE_CLOCKSETTING
  +--> ?PR?MINDEC?STATE_CLOCKSETTING
  +--> ?PR?_BUZZ_SET?BUZZER

?PR?_DISPLAYCONTROL?STATE_CLOCKSETTING           -----    -----      -----    -----
  +--> ?PR?_DISPLAY_SHOWRT?DISPLAY

?PR?_TIMETICK?STATE_CLOCKSETTING                 -----    -----      -----    -----
  +--> ?PR?_STATE_TRANSITIONTO?FSM

?PR?_MOTORCTR?STATE_CLOCKSETTING                 -----    -----      -----    -----
  +--> ?PR?MOTOR_STOP?MOTOR

?CO?STATE_TIMERSETTING                           -----    -----      -----    -----
  +--> ?PR?_KEYACTIONDEAL?STATE_TIMERSETTING
  +--> ?PR?_DISPLAYCONTROL?STATE_TIMERSETTING
  +--> ?PR?_TASKEXE?STATE_TIMERSETTING
  +--> ?PR?_TIMETICK?STATE_TIMERSETTING
  +--> ?PR?_MOTORCTR?STATE_TIMERSETTING
  +--> ?PR?_IRDATADEAL?STATE_TIMERSETTING
  +--> ?PR?_RXDATADEAL?STATE_TIMERSETTING
  +--> ?PR?_ENTEREVENTDEAL?STATE_TIMERSETTING
  +--> ?PR?_EXITEVENTDEAL?STATE_TIMERSETTING

?PR?_KEYACTIONDEAL?STATE_TIMERSETTING            0020H.4  0000H.1    019FH    0003H
  +--> ?CO?SYSTEM
  +--> ?PR?_BUZZ_SET?BUZZER

?PR?_DISPLAYCONTROL?STATE_TIMERSETTING           0020H.4  0000H.1    -----    -----
  +--> ?PR?_DISPLAY_SHOWNUMINRTCAREA?DISPLAY
  +--> ?CO?SYSTEM
  +--> ?PR?_DISPLAY_SHOWRT?DISPLAY

?PR?_TIMETICK?STATE_TIMERSETTING                 -----    -----      -----    -----
  +--> ?PR?_STATE_TRANSITIONTO?FSM

?PR?_MOTORCTR?STATE_TIMERSETTING                 -----    -----      -----    -----
  +--> ?PR?MOTOR_STOP?MOTOR

?CO?STATE_TIMERFNSETTING                         -----    -----      -----    -----
  +--> ?PR?_KEYACTIONDEAL?STATE_TIMERFNSETTING
  +--> ?PR?_DISPLAYCONTROL?STATE_TIMERFNSETTING
  +--> ?PR?_TASKEXE?STATE_TIMERFNSETTING
  +--> ?PR?_TIMETICK?STATE_TIMERFNSETTING
  +--> ?PR?_MOTORCTR?STATE_TIMERFNSETTING
  +--> ?PR?_IRDATADEAL?STATE_TIMERFNSETTING
  +--> ?PR?_RXDATADEAL?STATE_TIMERFNSETTING
  +--> ?PR?_ENTEREVENTDEAL?STATE_TIMERFNSETTING
  +--> ?PR?_EXITEVENTDEAL?STATE_TIMERFNSETTING
BL51 BANKED LINKER/LOCATER V6.22                                                      10/17/2015  10:29:03  PAGE 11



?PR?_KEYACTIONDEAL?STATE_TIMERFNSETTING          -----    -----      -----    -----
  +--> ?PR?_BUZZ_SET?BUZZER

?PR?_TIMETICK?STATE_TIMERFNSETTING               -----    -----      -----    -----
  +--> ?PR?_STATE_TRANSITIONTO?FSM

?PR?_MOTORCTR?STATE_TIMERFNSETTING               -----    -----      -----    -----
  +--> ?PR?MOTOR_STOP?MOTOR

?PR?PROTOCOL_ENTERATMODE?PROTOCOL                -----    -----      -----    -----
  +--> ?PR?_ENQUEUE?FIFO
  +--> ?PR?UART_SENDSTARTUP?UART

?PR?_ENQUEUE?FIFO                                -----    -----      01A4H    0004H
  +--> ?PR?_QUEUEISFULL?FIFO

?PR?_QUEUEISFULL?FIFO                            -----    -----      01A8H    0003H

?PR?UART_SENDSTARTUP?UART                        -----    -----      -----    -----
  +--> ?PR?_QUEUELEN?FIFO
  +--> ?PR?_DEQUEUE?FIFO

?PR?_DEQUEUE?FIFO                                -----    -----      01A4H    0004H
  +--> ?PR?_QUEUEISEMPTY?FIFO

?PR?_DISPLAYCONTROL?STATE_STANDBY                -----    -----      -----    -----
  +--> ?PR?_DISPLAY_DUSTDATA?DISPLAY
  +--> ?PR?_DISPLAY_SHOWRT?DISPLAY

?PR?_TIMETICK?STATE_STANDBY                      -----    -----      -----    -----
  +--> ?PR?PROTOCOL_RESETWIFIMODE?PROTOCOL
  +--> ?CO?SYSTEM
  +--> ?PR?_BUZZ_SET?BUZZER
  +--> ?CO?STATE_WORK
  +--> ?PR?_STATE_TRANSITIONTO?FSM

?PR?PROTOCOL_RESETWIFIMODE?PROTOCOL              -----    -----      -----    -----
  +--> ?PR?_ENQUEUE?FIFO
  +--> ?PR?UART_SENDSTARTUP?UART

?PR?_MOTORCTR?STATE_STANDBY                      -----    -----      -----    -----
  +--> ?PR?MOTOR_STOP?MOTOR

?PR?_IRDATADEAL?STATE_STANDBY                    -----    -----      -----    -----
  +--> ?PR?_BUZZ_SET?BUZZER
  +--> ?CO?STATE_WORK
  +--> ?PR?_STATE_TRANSITIONTO?FSM

?PR?_ENTEREVENTDEAL?STATE_STANDBY                -----    -----      -----    -----
  +--> ?PR?SYS_UPDATETIMERONINDEX?SYSTEM

?PR?SYS_UPDATETIMERONINDEX?SYSTEM                -----    -----      019FH    0005H
  +--> ?CO?SYSTEM

*** NEW ROOT ***************************************************

BL51 BANKED LINKER/LOCATER V6.22                                                      10/17/2015  10:29:03  PAGE 12


?PR?INT_BIT?IT                                   -----    -----      -----    -----
  +--> ?PR?DISPLAY_LEDDRIVE?DISPLAY

?PR?DISPLAY_LEDDRIVE?DISPLAY                     0020H.4  0000H.1    -----    -----

*** NEW ROOT ***************************************************

?C_C51STARTUP                                    -----    -----      -----    -----
  +--> ?PR?MAIN?MAIN
  +--> ?C_INITSEG

?PR?MAIN?MAIN                                    -----    -----      -----    -----
  +--> ?PR?INITALL?MAIN
  +--> ?PR?UART_RXDATSDEAL?UART
  +--> ?PR?_UTILS_GETADVALUE?HUMIDITY
  +--> ?PR?KEY_ACTIONDETECT?KEY
  +--> ?PR?DISPLAY_LEDDRIVE?DISPLAY
  +--> ?PR?BUZZ_CTR?BUZZER
  +--> ?PR?DUST_DATAUPDATE?DUST
  +--> ?PR?MOTOR_CTR?MOTOR
  +--> ?PR?SYS_LOADCTR?SYSTEM
  +--> ?PR?SYS_ENTERSTOPMODE?SYSTEM
  +--> ?PR?DISPLAY_CTR?DISPLAY
  +--> ?PR?HUMIDITY_GETCURRENTT?HUMIDITY
  +--> ?PR?HUMIDITY_GETCURRENTH?HUMIDITY
  +--> ?PR?DUST_LEVELUPDATE?DUST

?PR?UART_RXDATSDEAL?UART                         -----    -----      -----    -----
  +--> ?PR?PROTOCOL_TASK?PROTOCOL

?PR?PROTOCOL_TASK?PROTOCOL                       -----    -----      019BH    0004H
  +--> ?PR?CMD_DUMMY_DEAL?PROTOCOL
  +--> ?CO?PROTOCOL

?CO?PROTOCOL                                     -----    -----      -----    -----
  +--> ?PR?CMD_GET_SYS_STA_DEAL?PROTOCOL
  +--> ?PR?CMD_POWER_CTR_DEAL?PROTOCOL
  +--> ?PR?CMD_FAN_CTR_DEAL?PROTOCOL
  +--> ?PR?CMD_FIX_CTR_DEAL?PROTOCOL
  +--> ?PR?CMD_CLEAN_CTR_DEAL?PROTOCOL
  +--> ?PR?CMD_AION_CTR_DEAL?PROTOCOL
  +--> ?PR?CMD_UV_CTR_DEAL?PROTOCOL
  +--> ?PR?CMD_TIMER_CTR_DEAL?PROTOCOL
  +--> ?PR?CMD_GET_PM_DATAS_DEAL?PROTOCOL
  +--> ?PR?CMD_GET_ENE_DATAS_DEAL?PROTOCOL
  +--> ?PR?CMD_RT_SET_DEAL?PROTOCOL
  +--> ?PR?CMD_MEM_SET_DEAL?PROTOCOL
  +--> ?PR?CMD_REST_DEAL?PROTOCOL
  +--> ?PR?CMD_GET_DEVICE_INFO_DEAL?PROTOCOL
  +--> ?PR?CMD_WIFI_STA_CHANGE_DEAL?PROTOCOL

?PR?CMD_GET_SYS_STA_DEAL?PROTOCOL                -----    -----      -----    -----
  +--> ?PR?_PROTOCOL_STARESP?PROTOCOL

?PR?_PROTOCOL_STARESP?PROTOCOL                   -----    -----      019FH    0002H
  +--> ?PR?_ENQUEUE?FIFO
  +--> ?PR?UART_SENDSTARTUP?UART
BL51 BANKED LINKER/LOCATER V6.22                                                      10/17/2015  10:29:03  PAGE 13



?PR?CMD_POWER_CTR_DEAL?PROTOCOL                  -----    -----      -----    -----
  +--> ?CO?STATE_WORK
  +--> ?CO?STATE_STANDBY
  +--> ?PR?_STATE_TRANSITIONTO?FSM
  +--> ?PR?_BUZZ_SET?BUZZER
  +--> ?PR?_PROTOCOL_STARESP?PROTOCOL

?PR?CMD_FAN_CTR_DEAL?PROTOCOL                    -----    -----      -----    -----
  +--> ?PR?_BUZZ_SET?BUZZER
  +--> ?PR?_PROTOCOL_STARESP?PROTOCOL

?PR?CMD_FIX_CTR_DEAL?PROTOCOL                    -----    -----      -----    -----
  +--> ?PR?_BUZZ_SET?BUZZER
  +--> ?PR?_PROTOCOL_STARESP?PROTOCOL

?PR?CMD_CLEAN_CTR_DEAL?PROTOCOL                  -----    -----      -----    -----
  +--> ?PR?_BUZZ_SET?BUZZER
  +--> ?PR?_PROTOCOL_STARESP?PROTOCOL

?PR?CMD_AION_CTR_DEAL?PROTOCOL                   -----    -----      -----    -----
  +--> ?PR?_BUZZ_SET?BUZZER
  +--> ?PR?_PROTOCOL_STARESP?PROTOCOL

?PR?CMD_UV_CTR_DEAL?PROTOCOL                     -----    -----      -----    -----
  +--> ?PR?_BUZZ_SET?BUZZER
  +--> ?PR?_PROTOCOL_STARESP?PROTOCOL

?PR?CMD_TIMER_CTR_DEAL?PROTOCOL                  -----    -----      -----    -----
  +--> ?PR?SYS_UPDATETIMERONINDEX?SYSTEM
  +--> ?PR?_BUZZ_SET?BUZZER
  +--> ?PR?_PROTOCOL_STARESP?PROTOCOL

?PR?CMD_GET_PM_DATAS_DEAL?PROTOCOL               -----    -----      019FH    0005H
  +--> ?PR?_ENQUEUE?FIFO
  +--> ?PR?_BUZZ_SET?BUZZER
  +--> ?PR?UART_SENDSTARTUP?UART

?PR?CMD_GET_ENE_DATAS_DEAL?PROTOCOL              -----    -----      019FH    0002H
  +--> ?PR?_ENQUEUE?FIFO
  +--> ?PR?_BUZZ_SET?BUZZER
  +--> ?PR?UART_SENDSTARTUP?UART

?PR?CMD_RT_SET_DEAL?PROTOCOL                     -----    -----      -----    -----
  +--> ?PR?_BUZZ_SET?BUZZER
  +--> ?PR?_PROTOCOL_STARESP?PROTOCOL

?PR?CMD_MEM_SET_DEAL?PROTOCOL                    -----    -----      -----    -----
  +--> ?CO?STATE_STANDBY
  +--> ?PR?_STATE_TRANSITIONTO?FSM
  +--> ?PR?_BUZZ_SET?BUZZER
  +--> ?PR?_PROTOCOL_STARESP?PROTOCOL

?PR?CMD_REST_DEAL?PROTOCOL                       -----    -----      -----    -----
  +--> ?PR?SYS_RESET?SYSTEM
  +--> ?CO?STATE_STANDBY
  +--> ?PR?_STATE_TRANSITIONTO?FSM
BL51 BANKED LINKER/LOCATER V6.22                                                      10/17/2015  10:29:03  PAGE 14


  +--> ?PR?_BUZZ_SET?BUZZER
  +--> ?PR?_PROTOCOL_STARESP?PROTOCOL

?PR?CMD_GET_DEVICE_INFO_DEAL?PROTOCOL            -----    -----      019FH    0001H
  +--> ?PR?_ENQUEUE?FIFO
  +--> ?PR?UART_SENDSTARTUP?UART

?PR?KEY_ACTIONDETECT?KEY                         -----    -----      019BH    0001H
  +--> ?PR?KEY_READ?KEY

?PR?DUST_DATAUPDATE?DUST                         -----    -----      -----    -----
  +--> ?PR?DUST_GETRTLEVEL?DUST

?PR?MOTOR_CTR?MOTOR                              -----    -----      019BH    0006H

?PR?DISPLAY_CTR?DISPLAY                          -----    -----      -----    -----
  +--> ?PR?_DISPLAY_SETALL?DISPLAY
  +--> ?PR?_AIP1944_WRITEDISPDATAS?AIP1944

?PR?_AIP1944_WRITEDISPDATAS?AIP1944              -----    -----      019BH    0005H
  +--> ?PR?_AIP1944_WRITEBYTE?AIP1944

?PR?HUMIDITY_GETCURRENTT?HUMIDITY                -----    -----      -----    -----
  +--> ?PR?_UTILS_GETADVALUE?HUMIDITY
  +--> ?PR?_HUMIDITY_AD2T?HUMIDITY

?PR?HUMIDITY_GETCURRENTH?HUMIDITY                -----    -----      019BH    0001H
  +--> ?PR?_HUMIDITY_AD2H?HUMIDITY

?PR?DUST_LEVELUPDATE?DUST                        -----    -----      -----    -----
  +--> ?PR?DUST_GETRTLEVEL?DUST

?C_INITSEG                                       -----    -----      -----    -----
  +--> ?CO?FSM

?CO?FSM                                          -----    -----      -----    -----
  +--> ?PR?TASK_DONOTHING?FSM



SYMBOL TABLE OF MODULE:  YTN-E608-WIFI-6432 (IT)

  VALUE           TYPE          NAME
  ----------------------------------

  -------         MODULE        IT
  C:0000H         SYMBOL        _ICE_DUMMY_
  D:0080H         PUBLIC        P0
  C:4F3FH         PUBLIC        INT_Timer0
  D:0088H         PUBLIC        P1
  D:0090H         PUBLIC        P2
  D:0098H         PUBLIC        P3
  D:00A0H         PUBLIC        P4
  D:00B0H         PUBLIC        P5
  D:008DH         PUBLIC        WDTCR
  D:00A8H         PUBLIC        IE
  D:00B2H         PUBLIC        T0CR
BL51 BANKED LINKER/LOCATER V6.22                                                      10/17/2015  10:29:03  PAGE 15


  C:3C45H         PUBLIC        INT_USI1_Rx
  C:400EH         PUBLIC        INT_USI1_Tx
  C:24A6H         PUBLIC        INT_BIT
  D:0087H         PUBLIC        PCON
  B:0090H.2       PUBLIC        P22
  B:0090H.3       PUBLIC        P23
  D:00F5H         PUBLIC        USI1DR
  D:00ABH         PUBLIC        IE3
  X:01EDH         PUBLIC        SysTick_4ms
  X:01EEH         SYMBOL        pgCntH
  I:0011H         PUBLIC        SquGen_Cnt
  D:00B3H         PUBLIC        T0CNT
  I:0012H         SYMBOL        IR_Flags
  D:00EAH         PUBLIC        USI1CR2
  C:2E47H         PUBLIC        INT_WT
  -------         PROC          INT_USI1_RX
  -------         DO            
  D:0007H         SYMBOL        len
  -------         ENDDO         
  C:3C45H         LINE#         7
  C:3C62H         LINE#         12
  C:3C68H         LINE#         15
  C:3C83H         LINE#         16
  C:3CAAH         LINE#         19
  C:3CCEH         LINE#         20
  C:3CD4H         LINE#         21
  C:3CD4H         LINE#         22
  C:3CD6H         LINE#         23
  C:3CD6H         LINE#         24
  -------         ENDPROC       INT_USI1_RX
  -------         PROC          INT_USI1_TX
  C:400EH         LINE#         26
  C:402BH         LINE#         31
  C:4046H         LINE#         32
  C:406DH         LINE#         35
  C:407DH         LINE#         36
  C:407DH         LINE#         37
  C:407FH         LINE#         38
  C:4082H         LINE#         39
  C:4082H         LINE#         40
  -------         ENDPROC       INT_USI1_TX
  -------         PROC          INT_TIMER0
  C:4F3FH         LINE#         43
  C:4F45H         LINE#         46
  C:4F4BH         LINE#         47
  -------         ENDPROC       INT_TIMER0
  -------         PROC          INT_WT
  -------         DO            
  X:01EBH         SYMBOL        rt_05sCnt
  X:01ECH         SYMBOL        clearMemoryDataCnt
  -------         ENDDO         
  C:2E47H         LINE#         51
  C:2E64H         LINE#         58
  C:2E79H         LINE#         59
  C:2E7CH         LINE#         60
  C:2E81H         LINE#         62
  C:2E8BH         LINE#         63
BL51 BANKED LINKER/LOCATER V6.22                                                      10/17/2015  10:29:03  PAGE 16


  C:2E8BH         LINE#         64
  C:2E8DH         LINE#         65
  C:2E8FH         LINE#         66
  C:2E9EH         LINE#         67
  C:2E9EH         LINE#         68
  C:2EA0H         LINE#         69
  C:2EA0H         LINE#         71
  C:2EA2H         LINE#         74
  C:2EA4H         LINE#         77
  C:2EAAH         LINE#         78
  C:2EB0H         LINE#         79
  C:2EB0H         LINE#         80
  C:2EB2H         LINE#         82
  C:2EB8H         LINE#         84
  C:2EBEH         LINE#         85
  C:2EC3H         LINE#         86
  C:2EC3H         LINE#         87
  C:2EC5H         LINE#         89
  C:2EC7H         LINE#         91
  C:2ECDH         LINE#         92
  C:2ED2H         LINE#         93
  C:2ED2H         LINE#         94
  C:2ED4H         LINE#         96
  C:2EDAH         LINE#         97
  C:2EDFH         LINE#         98
  C:2EDFH         LINE#         99
  C:2EE1H         LINE#         100
  C:2EE1H         LINE#         101
  C:2EE1H         LINE#         102
  C:2EE1H         LINE#         103
  C:2EE1H         LINE#         106
  C:2EE4H         LINE#         108
  C:2EE9H         LINE#         109
  C:2EE9H         LINE#         111
  C:2EECH         LINE#         112
  C:2EF0H         LINE#         113
  C:2EF4H         LINE#         115
  C:2EF7H         LINE#         116
  C:2EFAH         LINE#         117
  C:2EFDH         LINE#         119
  C:2F00H         LINE#         120
  C:2F03H         LINE#         121
  C:2F06H         LINE#         122
  C:2F09H         LINE#         123
  C:2F0CH         LINE#         124
  C:2F0FH         LINE#         128
  C:2F15H         LINE#         129
  C:2F1BH         LINE#         130
  C:2F1BH         LINE#         131
  C:2F1EH         LINE#         132
  C:2F20H         LINE#         133
  C:2F20H         LINE#         134
  C:2F22H         LINE#         136
  C:2F22H         LINE#         137
  C:2F28H         LINE#         138
  C:2F28H         LINE#         139
  C:2F2BH         LINE#         140
BL51 BANKED LINKER/LOCATER V6.22                                                      10/17/2015  10:29:03  PAGE 17


  C:2F2BH         LINE#         142
  C:2F30H         LINE#         143
  C:2F30H         LINE#         144
  -------         ENDPROC       INT_WT
  -------         PROC          INT_BIT
  -------         DO            
  I:0008H         SYMBOL        t_128usCnt
  I:0009H         SYMBOL        rx_mode
  I:000AH         SYMBOL        rxCount
  I:000CH         SYMBOL        dataCount
  I:000DH         SYMBOL        rxData
  I:000FH         SYMBOL        Dust_SignalLowHoldCnt
  -------         ENDDO         
  C:24A6H         LINE#         172
  C:24C3H         LINE#         185
  C:24C8H         LINE#         186
  C:24C8H         LINE#         187
  C:24CEH         LINE#         188
  C:24D1H         LINE#         190
  C:24DAH         LINE#         191
  C:24DAH         LINE#         192
  C:24DDH         LINE#         193
  C:24E0H         LINE#         196
  C:24E6H         LINE#         197
  C:24E6H         LINE#         199
  C:24F5H         LINE#         200
  C:24F5H         LINE#         201
  C:24F8H         LINE#         202
  C:24FCH         LINE#         203
  C:2502H         LINE#         204
  C:2509H         LINE#         205
  C:2509H         LINE#         206
  C:250BH         LINE#         208
  C:2510H         LINE#         209
  C:2510H         LINE#         210
  C:251DH         LINE#         212
  C:2529H         LINE#         213
  C:2529H         LINE#         214
  C:252FH         LINE#         215
  C:252FH         LINE#         216
  C:2536H         LINE#         218
  C:2538H         LINE#         220
  C:253EH         LINE#         221
  C:253EH         LINE#         222
  C:254BH         LINE#         224
  C:254FH         LINE#         225
  C:2555H         LINE#         226
  C:2558H         LINE#         228
  C:255AH         LINE#         229
  C:255AH         LINE#         230
  C:255CH         LINE#         232
  C:2562H         LINE#         233
  C:2562H         LINE#         234
  C:256EH         LINE#         235
  C:256EH         LINE#         236
  C:2571H         LINE#         237
  C:2577H         LINE#         238
BL51 BANKED LINKER/LOCATER V6.22                                                      10/17/2015  10:29:03  PAGE 18


  C:257AH         LINE#         239
  C:257AH         LINE#         240
  C:257AH         LINE#         241
  C:257AH         LINE#         243
  C:2581H         LINE#         244
  C:2581H         LINE#         245
  C:2589H         LINE#         247
  C:2595H         LINE#         248
  C:2595H         LINE#         249
  C:259AH         LINE#         250
  C:25A0H         LINE#         251
  C:25A4H         LINE#         252
  C:25A9H         LINE#         253
  C:25A9H         LINE#         254
  C:25A9H         LINE#         257
  C:25ACH         LINE#         258
  C:25B2H         LINE#         259
  C:25B2H         LINE#         260
  C:25B4H         LINE#         261
  C:25B6H         LINE#         262
  C:25B8H         LINE#         263
  C:25C0H         LINE#         264
  C:25C0H         LINE#         265
  C:25C2H         LINE#         266
  C:25C4H         LINE#         267
  C:25C8H         LINE#         268
  C:25C8H         LINE#         269
  C:25CAH         LINE#         270
  C:25CAH         LINE#         271
  C:25CAH         LINE#         274
  C:25CFH         LINE#         275
  C:25CFH         LINE#         276
  C:25D9H         LINE#         277
  C:25D9H         LINE#         278
  C:25E1H         LINE#         279
  C:25E3H         LINE#         280
  C:25E3H         LINE#         281
  C:25EAH         LINE#         282
  C:25ECH         LINE#         284
  C:25ECH         LINE#         285
  C:25F4H         LINE#         286
  C:25F4H         LINE#         291
  C:25F7H         LINE#         292
  C:25FDH         LINE#         293
  C:25FDH         LINE#         294
  C:25FFH         LINE#         296
  C:2605H         LINE#         298
  C:260AH         LINE#         300
  C:2610H         LINE#         301
  C:2610H         LINE#         302
  C:2613H         LINE#         303
  C:2616H         LINE#         304
  C:2616H         LINE#         305
  C:2618H         LINE#         306
  C:2618H         LINE#         307
  C:2618H         LINE#         308
  C:2618H         LINE#         310
BL51 BANKED LINKER/LOCATER V6.22                                                      10/17/2015  10:29:03  PAGE 19


  C:261BH         LINE#         311
  C:261BH         LINE#         312
  C:2623H         LINE#         313
  C:2623H         LINE#         314
  C:2626H         LINE#         315
  C:2626H         LINE#         316
  C:2626H         LINE#         317
  -------         ENDPROC       INT_BIT
  -------         ENDMOD        IT

  -------         MODULE        ?C_STARTUP
  C:3F74H         SEGMENT       ?C_C51STARTUP
  I:0024H         SEGMENT       ?STACK
  C:0000H         PUBLIC        ?C_STARTUP
  D:00E0H         SYMBOL        ACC
  D:00F0H         SYMBOL        B
  D:0083H         SYMBOL        DPH
  D:0082H         SYMBOL        DPL
  N:0000H         SYMBOL        IBPSTACK
  N:0100H         SYMBOL        IBPSTACKTOP
  N:0100H         SYMBOL        IDATALEN
  C:3F77H         SYMBOL        IDATALOOP
  N:0000H         SYMBOL        PBPSTACK
  N:0000H         SYMBOL        PBPSTACKTOP
  N:0000H         SYMBOL        PDATALEN
  N:0000H         SYMBOL        PDATASTART
  N:0000H         SYMBOL        PPAGE
  N:0000H         SYMBOL        PPAGEENABLE
  D:00A0H         SYMBOL        PPAGE_SFR
  D:0081H         SYMBOL        SP
  C:3F74H         SYMBOL        STARTUP1
  N:0000H         SYMBOL        XBPSTACK
  N:0000H         SYMBOL        XBPSTACKTOP
  N:02E5H         SYMBOL        XDATALEN
  C:3F82H         SYMBOL        XDATALOOP
  N:001BH         SYMBOL        XDATASTART
  C:0000H         LINE#         94
  C:3F74H         LINE#         101
  C:3F76H         LINE#         102
  C:3F77H         LINE#         103
  C:3F78H         LINE#         104
  C:3F7AH         LINE#         108
  C:3F7DH         LINE#         109
  C:3F7FH         LINE#         111
  C:3F81H         LINE#         115
  C:3F82H         LINE#         116
  C:3F83H         LINE#         117
  C:3F84H         LINE#         118
  C:3F86H         LINE#         119
  C:3F88H         LINE#         153
  C:3F8BH         LINE#         157
  -------         ENDMOD        ?C_STARTUP

  -------         MODULE        MAIN
  C:0000H         SYMBOL        _ICE_DUMMY_
  D:008DH         PUBLIC        WDTCR
  D:00A8H         PUBLIC        IE
BL51 BANKED LINKER/LOCATER V6.22                                                      10/17/2015  10:29:03  PAGE 20


  C:371DH         PUBLIC        main
  C:4A3BH         PUBLIC        initAll
  -------         PROC          INITALL
  C:4A3BH         LINE#         3
  C:4A3BH         LINE#         4
  C:4A3BH         LINE#         5
  C:4A3EH         LINE#         6
  C:4A41H         LINE#         7
  C:4A44H         LINE#         8
  C:4A47H         LINE#         9
  C:4A4AH         LINE#         10
  C:4A4DH         LINE#         12
  C:4A53H         LINE#         13
  C:4A55H         LINE#         17
  C:4A60H         LINE#         21
  C:4A69H         LINE#         23
  C:4A6CH         LINE#         24
  -------         ENDPROC       INITALL
  -------         PROC          MAIN
  -------         DO            
  I:0013H         SYMBOL        taskIndex
  I:0014H         SYMBOL        taskIndexExt
  I:0015H         SYMBOL        HSampleT_Cnt
  -------         ENDDO         
  C:371DH         LINE#         26
  C:371DH         LINE#         27
  C:371DH         LINE#         33
  C:3720H         LINE#         35
  C:3720H         LINE#         36
  C:3720H         LINE#         37
  C:3723H         LINE#         39
  C:3726H         LINE#         41
  C:372EH         LINE#         42
  C:372EH         LINE#         43
  C:3735H         LINE#         44
  C:3735H         LINE#         45
  C:373EH         LINE#         46
  C:3742H         LINE#         47
  C:3742H         LINE#         48
  C:3742H         LINE#         50
  C:3748H         LINE#         51
  C:3748H         LINE#         52
  C:374AH         LINE#         54
  C:374DH         LINE#         55
  C:374DH         LINE#         56
  C:374FH         LINE#         58
  C:3769H         LINE#         59
  C:3769H         LINE#         61
  C:376CH         LINE#         62
  C:376EH         LINE#         64
  C:3770H         LINE#         66
  C:3784H         LINE#         67
  C:3784H         LINE#         68
  C:3784H         LINE#         69
  C:3787H         LINE#         70
  C:378CH         LINE#         71
  C:378EH         LINE#         72
BL51 BANKED LINKER/LOCATER V6.22                                                      10/17/2015  10:29:03  PAGE 21


  C:378EH         LINE#         73
  C:3791H         LINE#         74
  C:3793H         LINE#         75
  C:3793H         LINE#         76
  C:3796H         LINE#         77
  C:3798H         LINE#         78
  C:3798H         LINE#         79
  C:379BH         LINE#         80
  C:379DH         LINE#         81
  C:379DH         LINE#         82
  C:37A0H         LINE#         83
  C:37A3H         LINE#         84
  C:37A3H         LINE#         85
  C:37A7H         LINE#         87
  C:37A7H         LINE#         88
  C:37A7H         LINE#         90
  C:37B2H         LINE#         91
  C:37B2H         LINE#         92
  C:37B4H         LINE#         94
  C:37B7H         LINE#         96
  C:37BAH         LINE#         97
  C:37BDH         LINE#         98
  C:37C0H         LINE#         100
  C:37DAH         LINE#         102
  C:37E0H         LINE#         103
  C:37E0H         LINE#         104
  C:37E3H         LINE#         105
  C:37E3H         LINE#         107
  C:37E9H         LINE#         108
  C:37E9H         LINE#         109
  C:37EBH         LINE#         110
  C:37EBH         LINE#         111
  C:37EBH         LINE#         112
  C:37EBH         LINE#         113
  -------         ENDPROC       MAIN
  -------         ENDMOD        MAIN

  -------         MODULE        BSP_INIT
  C:0000H         SYMBOL        _ICE_DUMMY_
  D:0080H         PUBLIC        P0
  D:0088H         PUBLIC        P1
  D:0090H         PUBLIC        P2
  D:0098H         PUBLIC        P3
  D:00A0H         PUBLIC        P4
  D:00B0H         PUBLIC        P5
  D:008DH         PUBLIC        WDTCR
  C:5031H         SYMBOL        WDT_init
  D:008EH         PUBLIC        WDTDR
  D:00DEH         PUBLIC        P0DB
  D:0097H         PUBLIC        BUZCR
  C:5062H         SYMBOL        BUZ_init
  D:008FH         PUBLIC        BUZDR
  D:00D8H         PUBLIC        LVRCR
  D:00A8H         PUBLIC        IE
  D:0091H         PUBLIC        P0OD
  D:0092H         PUBLIC        P1OD
  D:0093H         PUBLIC        P2OD
BL51 BANKED LINKER/LOCATER V6.22                                                      10/17/2015  10:29:03  PAGE 22


  D:0094H         PUBLIC        P4OD
  D:00A1H         PUBLIC        P0IO
  D:00B2H         PUBLIC        T0CR
  D:00B1H         PUBLIC        P1IO
  D:00B4H         PUBLIC        T0DR
  D:00B9H         PUBLIC        P2IO
  D:00C1H         PUBLIC        P3IO
  D:00C9H         PUBLIC        P4IO
  D:00D1H         PUBLIC        P5IO
  C:5069H         SYMBOL        clock_init
  D:00BDH         PUBLIC        T1ADRH
  D:00ACH         PUBLIC        P0PU
  D:009DH         PUBLIC        ADCCRH
  D:00BFH         PUBLIC        T1BDRH
  D:00ADH         PUBLIC        P1PU
  D:00AEH         PUBLIC        P2PU
  D:00AFH         PUBLIC        P3PU
  D:00F3H         PUBLIC        USI1BD
  D:00BCH         PUBLIC        T1ADRL
  D:00A3H         PUBLIC        P4PU
  D:009CH         PUBLIC        ADCCRL
  D:00BEH         PUBLIC        T1BDRL
  D:0095H         PUBLIC        P5PU
  D:008AH         PUBLIC        SCCR
  C:4F52H         SYMBOL        _BUZ_OnOff
  D:009BH         PUBLIC        LCDCCR
  D:009AH         PUBLIC        LCDCRH
  D:00D3H         PUBLIC        P0FSRH
  D:0099H         PUBLIC        LCDCRL
  D:00D5H         PUBLIC        P1FSRH
  D:00D7H         PUBLIC        P2FSRH
  D:00D2H         PUBLIC        P0FSRL
  D:00D4H         PUBLIC        P1FSRL
  D:00D6H         PUBLIC        P2FSRL
  D:00DFH         PUBLIC        P15DB
  D:00AAH         PUBLIC        IE2
  D:00ABH         PUBLIC        IE3
  D:0096H         PUBLIC        WTCR
  C:4FFCH         SYMBOL        WT_init
  D:0089H         PUBLIC        WTDR
  C:4FEFH         SYMBOL        Timer0_init
  C:0003H         SYMBOL        Timer1_init
  C:4EAAH         SYMBOL        UART_init
  C:5076H         SYMBOL        WDT_clear
  C:4FA6H         SYMBOL        _ADC_start
  C:4A6DH         PUBLIC        BSP_Init
  C:4643H         SYMBOL        port_init
  C:505BH         SYMBOL        ADC_init
  D:00BBH         PUBLIC        T1CRH
  D:00BAH         PUBLIC        T1CRL
  C:5043H         SYMBOL        LCD_init
  D:00E9H         PUBLIC        USI1CR1
  D:00EAH         PUBLIC        USI1CR2
  D:00EBH         PUBLIC        USI1CR3
  D:00EEH         PUBLIC        P3FSR
  D:00EFH         PUBLIC        P4FSR
  D:00FFH         PUBLIC        P5FSR
BL51 BANKED LINKER/LOCATER V6.22                                                      10/17/2015  10:29:03  PAGE 23


  D:008BH         PUBLIC        BITCR
  C:00A6H         SYMBOL        BIT_init
  D:00C8H         PUBLIC        OSCCR
  -------         PROC          ADC_INIT
  C:505BH         LINE#         4
  C:505BH         LINE#         5
  C:505BH         LINE#         7
  C:505EH         LINE#         8
  C:5061H         LINE#         9
  -------         ENDPROC       ADC_INIT
  -------         PROC          _ADC_START
  D:0007H         SYMBOL        ch
  C:4FA6H         LINE#         11
  C:4FA6H         LINE#         12
  C:4FA6H         LINE#         14
  C:4FB1H         LINE#         15
  C:4FB4H         LINE#         16
  -------         ENDPROC       _ADC_START
  -------         PROC          BIT_INIT
  C:00A6H         LINE#         18
  C:00A6H         LINE#         19
  C:00A6H         LINE#         21
  C:00A9H         LINE#         22
  C:00ACH         LINE#         23
  C:00AFH         LINE#         24
  C:00B2H         LINE#         25
  -------         ENDPROC       BIT_INIT
  -------         PROC          _BUZ_ONOFF
  D:0007H         SYMBOL        On
  C:4F52H         LINE#         27
  C:4F52H         LINE#         28
  C:4F52H         LINE#         30
  C:4F63H         LINE#         31
  -------         ENDPROC       _BUZ_ONOFF
  -------         PROC          BUZ_INIT
  C:5062H         LINE#         33
  C:5062H         LINE#         34
  C:5062H         LINE#         37
  C:5065H         LINE#         38
  C:5068H         LINE#         39
  -------         ENDPROC       BUZ_INIT
  -------         PROC          LCD_INIT
  C:5043H         LINE#         41
  C:5043H         LINE#         42
  C:5043H         LINE#         45
  C:5046H         LINE#         46
  C:5048H         LINE#         47
  C:504AH         LINE#         48
  -------         ENDPROC       LCD_INIT
  -------         PROC          TIMER0_INIT
  C:4FEFH         LINE#         50
  C:4FEFH         LINE#         51
  C:4FEFH         LINE#         54
  C:4FF2H         LINE#         55
  C:4FF5H         LINE#         56
  C:4FF8H         LINE#         57
  C:4FFBH         LINE#         58
BL51 BANKED LINKER/LOCATER V6.22                                                      10/17/2015  10:29:03  PAGE 24


  -------         ENDPROC       TIMER0_INIT
  -------         PROC          TIMER1_INIT
  C:0003H         LINE#         60
  C:0003H         LINE#         61
  C:0003H         LINE#         65
  C:0006H         LINE#         66
  C:0009H         LINE#         67
  C:000CH         LINE#         70
  C:000FH         LINE#         71
  C:0011H         LINE#         72
  C:0014H         LINE#         73
  C:0017H         LINE#         74
  C:001AH         LINE#         75
  -------         ENDPROC       TIMER1_INIT
  -------         PROC          UART_INIT
  C:4EAAH         LINE#         77
  C:4EAAH         LINE#         78
  C:4EAAH         LINE#         81
  C:4EADH         LINE#         82
  C:4EB0H         LINE#         83
  C:4EB3H         LINE#         84
  C:4EB6H         LINE#         85
  C:4EB9H         LINE#         86
  C:4EBCH         LINE#         87
  C:4EBFH         LINE#         88
  -------         ENDPROC       UART_INIT
  -------         PROC          WDT_CLEAR
  C:5076H         LINE#         90
  C:5076H         LINE#         91
  C:5076H         LINE#         92
  C:5079H         LINE#         93
  -------         ENDPROC       WDT_CLEAR
  -------         PROC          WDT_INIT
  C:5031H         LINE#         95
  C:5031H         LINE#         96
  C:5031H         LINE#         98
  C:5034H         LINE#         99
  C:5037H         LINE#         101
  -------         ENDPROC       WDT_INIT
  -------         PROC          WT_INIT
  C:4FFCH         LINE#         104
  C:4FFCH         LINE#         105
  C:4FFCH         LINE#         107
  C:4FFFH         LINE#         108
  C:5002H         LINE#         109
  C:5005H         LINE#         110
  C:5008H         LINE#         111
  -------         ENDPROC       WT_INIT
  -------         PROC          CLOCK_INIT
  C:5069H         LINE#         113
  C:5069H         LINE#         114
  C:5069H         LINE#         116
  C:506CH         LINE#         117
  C:506FH         LINE#         118
  -------         ENDPROC       CLOCK_INIT
  -------         PROC          PORT_INIT
  C:4643H         LINE#         120
BL51 BANKED LINKER/LOCATER V6.22                                                      10/17/2015  10:29:03  PAGE 25


  C:4643H         LINE#         121
  C:4643H         LINE#         158
  C:4646H         LINE#         159
  C:4649H         LINE#         160
  C:464CH         LINE#         161
  C:464EH         LINE#         162
  C:4650H         LINE#         164
  C:4653H         LINE#         165
  C:4655H         LINE#         166
  C:4657H         LINE#         167
  C:4659H         LINE#         168
  C:465BH         LINE#         170
  C:465EH         LINE#         171
  C:4661H         LINE#         172
  C:4663H         LINE#         173
  C:4665H         LINE#         175
  C:4668H         LINE#         176
  C:466AH         LINE#         177
  C:466CH         LINE#         179
  C:466FH         LINE#         180
  C:4672H         LINE#         181
  C:4674H         LINE#         182
  C:4676H         LINE#         184
  C:4679H         LINE#         185
  C:467BH         LINE#         186
  C:467DH         LINE#         189
  C:467FH         LINE#         190
  C:4682H         LINE#         191
  C:4684H         LINE#         192
  C:4687H         LINE#         193
  C:4689H         LINE#         194
  C:468CH         LINE#         195
  C:468EH         LINE#         196
  C:4690H         LINE#         197
  C:4693H         LINE#         198
  -------         ENDPROC       PORT_INIT
  -------         PROC          BSP_INIT
  C:4A6DH         LINE#         200
  C:4A6DH         LINE#         201
  C:4A6DH         LINE#         202
  C:4A70H         LINE#         204
  C:4A73H         LINE#         205
  C:4A76H         LINE#         206
  C:4A79H         LINE#         207
  C:4A7CH         LINE#         208
  C:4A7CH         LINE#         209
  C:4A7CH         LINE#         210
  C:4A81H         LINE#         211
  C:4A81H         LINE#         212
  C:4A84H         LINE#         213
  C:4A86H         LINE#         215
  C:4A86H         LINE#         216
  C:4A86H         LINE#         217
  C:4A86H         LINE#         218
  C:4A86H         LINE#         220
  C:4A89H         LINE#         221
  C:4A8CH         LINE#         222
BL51 BANKED LINKER/LOCATER V6.22                                                      10/17/2015  10:29:03  PAGE 26


  C:4A8FH         LINE#         223
  C:4A92H         LINE#         224
  C:4A95H         LINE#         225
  C:4A98H         LINE#         226
  -------         ENDPROC       BSP_INIT
  -------         ENDMOD        BSP_INIT

  -------         MODULE        AIP1944
  C:0000H         SYMBOL        _ICE_DUMMY_
  C:4DCDH         PUBLIC        _AIP1944_WriteByte
  B:00A0H.0       PUBLIC        P40
  B:00A0H.1       PUBLIC        P41
  B:00A0H.2       PUBLIC        P42
  C:4694H         PUBLIC        _Aip1944_WriteDispDatas
  X:0201H         PUBLIC        Aip1944_BrightnessLevel
  -------         PROC          _AIP1944_WRITEBYTE
  D:0007H         SYMBOL        _byte
  -------         DO            
  D:0006H         SYMBOL        i
  -------         ENDDO         
  C:4DCDH         LINE#         36
  C:4DCDH         LINE#         37
  C:4DCDH         LINE#         40
  C:4DCFH         LINE#         41
  C:4DCFH         LINE#         42
  C:4DD3H         LINE#         43
  C:4DD3H         LINE#         44
  C:4DD5H         LINE#         45
  C:4DD7H         LINE#         47
  C:4DD7H         LINE#         48
  C:4DD9H         LINE#         49
  C:4DD9H         LINE#         51
  C:4DDBH         LINE#         53
  C:4DDFH         LINE#         55
  C:4DE1H         LINE#         56
  C:4DE6H         LINE#         57
  -------         ENDPROC       _AIP1944_WRITEBYTE
  -------         PROC          _AIP1944_WRITEDISPDATAS
  X:019BH         SYMBOL        dats
  D:0005H         SYMBOL        len
  X:019FH         SYMBOL        addr
  -------         DO            
  D:0004H         SYMBOL        i
  -------         ENDDO         
  C:4694H         LINE#         59
  C:469FH         LINE#         60
  C:469FH         LINE#         63
  C:46A1H         LINE#         64
  C:46A6H         LINE#         65
  C:46A8H         LINE#         66
  C:46AAH         LINE#         67
  C:46B4H         LINE#         68
  C:46BBH         LINE#         69
  C:46BBH         LINE#         70
  C:46D2H         LINE#         71
  C:46D5H         LINE#         72
  C:46D7H         LINE#         74
BL51 BANKED LINKER/LOCATER V6.22                                                      10/17/2015  10:29:03  PAGE 27


  C:46D9H         LINE#         75
  C:46E1H         LINE#         76
  C:46E3H         LINE#         77
  -------         ENDPROC       _AIP1944_WRITEDISPDATAS
  -------         ENDMOD        AIP1944

  -------         MODULE        DISPLAY
  C:0000H         SYMBOL        _ICE_DUMMY_
  D:0090H         PUBLIC        P2
  D:0098H         PUBLIC        P3
  C:4F17H         PUBLIC        _Display_SetAll
  C:37EEH         PUBLIC        _Display_ShowRT
  C:2A92H         PUBLIC        PM_COM10_E_nums
  C:2ADBH         PUBLIC        RT_COM_H1_E_nums
  C:2AA6H         PUBLIC        PM_COM1_E1_nums
  C:2AB0H         PUBLIC        PM_COM1_E2_nums
  C:2A2EH         PUBLIC        H_COM10_nums
  C:2B12H         PUBLIC        RT_COM_M1_E_nums
  C:2A6AH         PUBLIC        PM_COM100_nums
  C:2ABAH         PUBLIC        RT_COM_H10_nums
  D:00B9H         PUBLIC        P2IO
  C:2AE6H         PUBLIC        RT_COM_M10_nums
  C:2A06H         PUBLIC        T_COM10_nums
  D:00C1H         PUBLIC        P3IO
  B:0021H.6       PUBLIC        Display_IsLowLight
  X:0154H         PUBLIC        Display_Datas
  C:3251H         PUBLIC        _Display_ShowNumInRTCArea
  C:2A4CH         PUBLIC        H_COM1_EXT_nums
  C:4430H         PUBLIC        _Display_ShowHumidity
  C:2A9CH         PUBLIC        PM_COM1_nums
  C:2AC5H         PUBLIC        RT_COM_H10_E_nums
  C:2A24H         PUBLIC        T_COM1_EXT_nums
  C:2A56H         PUBLIC        PM_COM1000_nums
  C:477AH         PUBLIC        _Display_CircleRun
  C:3988H         PUBLIC        Display_LedDrive
  C:484AH         PUBLIC        _Display_DustLevel
  C:2F4BH         PUBLIC        _Display_DustData
  C:2A42H         PUBLIC        H_COM1_nums
  C:2A38H         PUBLIC        H_COM10_EXT_nums
  C:2A88H         PUBLIC        PM_COM10_nums
  C:49D5H         PUBLIC        Display_Ctr
  C:2AD0H         PUBLIC        RT_COM_H1_nums
  B:0021H.7       PUBLIC        Display_FlashOn
  C:2B07H         PUBLIC        RT_COM_M1_nums
  C:2A60H         PUBLIC        PM_COM1000_E_nums
  C:2A1AH         PUBLIC        T_COM1_nums
  C:2A74H         PUBLIC        PM_COM100_E1_nums
  C:2A7EH         PUBLIC        PM_COM100_E2_nums
  C:2A10H         PUBLIC        T_COM10_EXT_nums
  C:2AF1H         PUBLIC        RT_COM_M10_E1_nums
  C:2AFCH         PUBLIC        RT_COM_M10_E2_nums
  C:4B9EH         PUBLIC        Display_SetLine
  C:43D1H         PUBLIC        _Display_ShowTemperature
  X:0193H         PUBLIC        Display_LedsEn
  C:006EH         PUBLIC        _Display_SpLevel
  -------         PROC          _DISPLAY_SETALL
  D:0007H         SYMBOL        sta
BL51 BANKED LINKER/LOCATER V6.22                                                      10/17/2015  10:29:03  PAGE 28


  -------         DO            
  D:0006H         SYMBOL        i
  -------         ENDDO         
  C:4F17H         LINE#         11
  C:4F17H         LINE#         12
  C:4F17H         LINE#         15
  C:4F19H         LINE#         16
  C:4F19H         LINE#         17
  C:4F25H         LINE#         18
  C:4F2AH         LINE#         19
  -------         ENDPROC       _DISPLAY_SETALL
  -------         PROC          DISPLAY_SETLINE
  C:4B9EH         LINE#         22
  C:4B9EH         LINE#         23
  C:4B9EH         LINE#         24
  C:4BA4H         LINE#         25
  C:4BA6H         LINE#         26
  C:4BA8H         LINE#         28
  C:4BACH         LINE#         29
  C:4BAEH         LINE#         30
  C:4BB0H         LINE#         32
  C:4BB7H         LINE#         33
  C:4BBBH         LINE#         34
  C:4BBDH         LINE#         35
  -------         ENDPROC       DISPLAY_SETLINE
  -------         PROC          _DISPLAY_CIRCLERUN
  D:0007H         SYMBOL        sp
  -------         DO            
  X:0152H         SYMBOL        cnt
  B:0021H.5       SYMBOL        disIndex
  -------         ENDDO         
  C:477AH         LINE#         37
  C:477AH         LINE#         38
  C:477AH         LINE#         41
  C:4780H         LINE#         42
  C:4785H         LINE#         43
  C:4785H         LINE#         44
  C:4787H         LINE#         46
  C:4789H         LINE#         47
  C:4789H         LINE#         49
  C:4790H         LINE#         51
  C:4793H         LINE#         52
  C:4793H         LINE#         53
  C:479AH         LINE#         54
  C:47A1H         LINE#         55
  C:47A8H         LINE#         56
  C:47A9H         LINE#         58
  C:47A9H         LINE#         59
  C:47B5H         LINE#         60
  C:47BCH         LINE#         61
  C:47C3H         LINE#         62
  C:47C3H         LINE#         88
  -------         ENDPROC       _DISPLAY_CIRCLERUN
  -------         PROC          _DISPLAY_DUSTLEVEL
  D:0007H         SYMBOL        level
  C:484AH         LINE#         90
  C:484AH         LINE#         91
BL51 BANKED LINKER/LOCATER V6.22                                                      10/17/2015  10:29:03  PAGE 29


  C:484AH         LINE#         92
  C:485DH         LINE#         93
  C:485DH         LINE#         94
  C:485DH         LINE#         95
  C:4864H         LINE#         96
  C:4864H         LINE#         97
  C:486BH         LINE#         98
  C:486BH         LINE#         99
  C:4872H         LINE#         100
  C:4872H         LINE#         101
  C:4879H         LINE#         102
  C:4879H         LINE#         103
  C:4880H         LINE#         104
  C:4880H         LINE#         105
  C:4887H         LINE#         106
  C:4887H         LINE#         107
  C:4887H         LINE#         108
  C:4887H         LINE#         109
  C:4887H         LINE#         110
  -------         ENDPROC       _DISPLAY_DUSTLEVEL
  -------         PROC          _DISPLAY_SPLEVEL
  D:0007H         SYMBOL        level
  C:006EH         LINE#         112
  C:006EH         LINE#         113
  C:006EH         LINE#         114
  C:007EH         LINE#         115
  C:007EH         LINE#         116
  C:007EH         LINE#         117
  C:0085H         LINE#         118
  C:0085H         LINE#         119
  C:008CH         LINE#         120
  C:008CH         LINE#         121
  C:0093H         LINE#         122
  C:0093H         LINE#         123
  C:009AH         LINE#         124
  C:009AH         LINE#         125
  C:00A1H         LINE#         126
  C:00A1H         LINE#         127
  C:00A1H         LINE#         128
  C:00A1H         LINE#         129
  C:00A1H         LINE#         130
  -------         ENDPROC       _DISPLAY_SPLEVEL
  -------         PROC          _DISPLAY_SHOWTEMPERATURE
  D:0007H         SYMBOL        t
  -------         DO            
  D:0005H         SYMBOL        v10
  D:0004H         SYMBOL        v1
  -------         ENDDO         
  C:43D1H         LINE#         225
  C:43D1H         LINE#         226
  C:43D1H         LINE#         230
  C:43D7H         LINE#         231
  C:43D7H         LINE#         232
  C:43D9H         LINE#         233
  C:43D9H         LINE#         235
  C:43DFH         LINE#         236
  C:43E6H         LINE#         238
BL51 BANKED LINKER/LOCATER V6.22                                                      10/17/2015  10:29:03  PAGE 30


  C:43E9H         LINE#         239
  C:43E9H         LINE#         240
  C:43FAH         LINE#         241
  C:440DH         LINE#         242
  C:440DH         LINE#         243
  C:441EH         LINE#         244
  C:442FH         LINE#         245
  -------         ENDPROC       _DISPLAY_SHOWTEMPERATURE
  -------         PROC          _DISPLAY_SHOWHUMIDITY
  D:0007H         SYMBOL        h
  -------         DO            
  D:0005H         SYMBOL        v10
  D:0004H         SYMBOL        v1
  -------         ENDDO         
  C:4430H         LINE#         328
  C:4430H         LINE#         329
  C:4430H         LINE#         333
  C:4436H         LINE#         334
  C:4436H         LINE#         335
  C:4438H         LINE#         336
  C:4438H         LINE#         338
  C:443EH         LINE#         339
  C:4445H         LINE#         341
  C:4448H         LINE#         342
  C:4448H         LINE#         343
  C:4459H         LINE#         344
  C:446CH         LINE#         345
  C:446CH         LINE#         346
  C:447DH         LINE#         347
  C:448EH         LINE#         348
  -------         ENDPROC       _DISPLAY_SHOWHUMIDITY
  -------         PROC          _DISPLAY_DUSTDATA
  D:0002H         SYMBOL        pm
  -------         DO            
  X:019FH         SYMBOL        v1000
  X:01A0H         SYMBOL        v100
  X:01A1H         SYMBOL        v10
  D:0003H         SYMBOL        v1
  -------         ENDDO         
  C:2F4BH         LINE#         553
  C:2F4FH         LINE#         554
  C:2F4FH         LINE#         560
  C:2F58H         LINE#         561
  C:2F58H         LINE#         562
  C:2F5CH         LINE#         563
  C:2F5CH         LINE#         565
  C:2F6CH         LINE#         566
  C:2F81H         LINE#         567
  C:2F96H         LINE#         568
  C:2FA3H         LINE#         571
  C:2FB8H         LINE#         572
  C:2FCAH         LINE#         574
  C:2FD8H         LINE#         575
  C:2FE9H         LINE#         576
  C:2FFEH         LINE#         578
  C:300CH         LINE#         579
  C:301EH         LINE#         582
BL51 BANKED LINKER/LOCATER V6.22                                                      10/17/2015  10:29:03  PAGE 31


  C:3028H         LINE#         583
  C:3039H         LINE#         584
  C:304CH         LINE#         585
  -------         ENDPROC       _DISPLAY_DUSTDATA
  -------         PROC          _DISPLAY_SHOWRT
  D:0007H         SYMBOL        h
  D:0005H         SYMBOL        m
  B:0020H.5       SYMBOL        hFlashEn
  B:0020H.6       SYMBOL        mFlashEn
  -------         DO            
  D:0001H         SYMBOL        h10
  D:0006H         SYMBOL        h1
  D:0004H         SYMBOL        m10
  D:0003H         SYMBOL        m1
  -------         ENDDO         
  C:37EEH         LINE#         787
  C:37EEH         LINE#         788
  C:37EEH         LINE#         795
  C:37F4H         LINE#         796
  C:37FBH         LINE#         797
  C:3801H         LINE#         798
  C:3808H         LINE#         800
  C:380EH         LINE#         801
  C:380EH         LINE#         802
  C:3810H         LINE#         803
  C:3812H         LINE#         804
  C:3812H         LINE#         806
  C:3818H         LINE#         807
  C:3818H         LINE#         808
  C:381AH         LINE#         809
  C:381CH         LINE#         810
  C:381CH         LINE#         811
  C:3822H         LINE#         812
  C:3822H         LINE#         813
  C:3833H         LINE#         814
  C:3844H         LINE#         816
  C:3855H         LINE#         817
  C:3866H         LINE#         818
  C:3866H         LINE#         821
  C:386CH         LINE#         822
  C:386CH         LINE#         823
  C:387DH         LINE#         824
  C:388EH         LINE#         825
  C:38A0H         LINE#         827
  C:38AAH         LINE#         828
  C:38BBH         LINE#         829
  C:38BBH         LINE#         830
  -------         ENDPROC       _DISPLAY_SHOWRT
  -------         PROC          _DISPLAY_SHOWNUMINRTCAREA
  D:0002H         SYMBOL        num
  -------         DO            
  X:019FH         SYMBOL        v1000
  X:01A0H         SYMBOL        v100
  X:01A1H         SYMBOL        v10
  D:0001H         SYMBOL        v1
  -------         ENDDO         
  C:3251H         LINE#         833
BL51 BANKED LINKER/LOCATER V6.22                                                      10/17/2015  10:29:03  PAGE 32


  C:3255H         LINE#         834
  C:3255H         LINE#         840
  C:3261H         LINE#         841
  C:3276H         LINE#         842
  C:328BH         LINE#         843
  C:3298H         LINE#         846
  C:32A1H         LINE#         847
  C:32A1H         LINE#         848
  C:32A7H         LINE#         849
  C:32A9H         LINE#         850
  C:32ABH         LINE#         851
  C:32ACH         LINE#         852
  C:32ACH         LINE#         855
  C:32C1H         LINE#         856
  C:32D2H         LINE#         858
  C:32E7H         LINE#         859
  C:32F8H         LINE#         861
  C:330DH         LINE#         862
  C:331EH         LINE#         863
  C:3333H         LINE#         865
  C:333DH         LINE#         866
  C:334EH         LINE#         867
  -------         ENDPROC       _DISPLAY_SHOWNUMINRTCAREA
  -------         PROC          DISPLAY_LEDDRIVE
  B:0020H.4       SYMBOL        comChangeEn
  -------         DO            
  X:0153H         SYMBOL        scanCnt
  -------         ENDDO         
  C:3988H         LINE#         889
  C:3988H         LINE#         890
  C:3988H         LINE#         893
  C:398BH         LINE#         894
  C:398BH         LINE#         895
  C:3991H         LINE#         896
  C:3991H         LINE#         898
  C:3997H         LINE#         899
  C:399DH         LINE#         900
  C:39A8H         LINE#         901
  C:39A8H         LINE#         902
  C:39A8H         LINE#         903
  C:39AFH         LINE#         904
  C:39AFH         LINE#         905
  C:39B2H         LINE#         906
  C:39B4H         LINE#         908
  C:39B4H         LINE#         909
  C:39B7H         LINE#         910
  C:39B7H         LINE#         911
  C:39BEH         LINE#         912
  C:39BEH         LINE#         913
  C:39C1H         LINE#         914
  C:39C3H         LINE#         916
  C:39C3H         LINE#         917
  C:39C6H         LINE#         918
  C:39C6H         LINE#         920
  C:39CCH         LINE#         921
  C:39CDH         LINE#         922
  C:39CDH         LINE#         923
BL51 BANKED LINKER/LOCATER V6.22                                                      10/17/2015  10:29:03  PAGE 33


  C:39D4H         LINE#         924
  C:39D4H         LINE#         925
  C:39D7H         LINE#         926
  C:39D9H         LINE#         928
  C:39D9H         LINE#         929
  C:39DCH         LINE#         930
  C:39DCH         LINE#         931
  C:39E3H         LINE#         932
  C:39E3H         LINE#         933
  C:39E6H         LINE#         934
  C:39E8H         LINE#         936
  C:39E8H         LINE#         937
  C:39EBH         LINE#         938
  C:39EBH         LINE#         939
  C:39F1H         LINE#         940
  C:39F2H         LINE#         941
  C:39F2H         LINE#         942
  C:39F2H         LINE#         943
  C:39F9H         LINE#         944
  C:39F9H         LINE#         945
  C:39FCH         LINE#         946
  C:39FEH         LINE#         948
  C:39FEH         LINE#         949
  C:3A01H         LINE#         950
  C:3A01H         LINE#         952
  C:3A08H         LINE#         953
  C:3A08H         LINE#         954
  C:3A0BH         LINE#         955
  C:3A0DH         LINE#         957
  C:3A0DH         LINE#         958
  C:3A10H         LINE#         959
  C:3A10H         LINE#         961
  C:3A17H         LINE#         962
  C:3A17H         LINE#         963
  C:3A1AH         LINE#         964
  C:3A1CH         LINE#         966
  C:3A1CH         LINE#         967
  C:3A1FH         LINE#         968
  C:3A1FH         LINE#         970
  C:3A26H         LINE#         971
  C:3A26H         LINE#         972
  C:3A29H         LINE#         973
  C:3A2BH         LINE#         975
  C:3A2BH         LINE#         976
  C:3A2EH         LINE#         977
  C:3A2EH         LINE#         978
  C:3A34H         LINE#         980
  C:3A39H         LINE#         981
  C:3A39H         LINE#         982
  C:3A39H         LINE#         983
  -------         ENDPROC       DISPLAY_LEDDRIVE
  -------         PROC          DISPLAY_CTR
  C:49D5H         LINE#         986
  C:49D5H         LINE#         987
  C:49D5H         LINE#         988
  C:49DAH         LINE#         989
  C:49DFH         LINE#         991
BL51 BANKED LINKER/LOCATER V6.22                                                      10/17/2015  10:29:03  PAGE 34


  C:49F8H         LINE#         993
  -------         ENDPROC       DISPLAY_CTR
  -------         ENDMOD        DISPLAY

  -------         MODULE        BUZZER
  C:0000H         SYMBOL        _ICE_DUMMY_
  D:0097H         PUBLIC        BUZCR
  X:01EFH         SYMBOL        Buzz_times
  C:47C4H         PUBLIC        Buzz_Ctr
  C:4C6EH         PUBLIC        _Buzz_Set
  B:0023H.1       SYMBOL        Buzz_En
  X:01F0H         SYMBOL        Buzz_off
  X:01F1H         SYMBOL        Buzz_cnt
  X:01F2H         SYMBOL        Buzz_on
  C:4F64H         PUBLIC        Buzz_DeviceInit
  -------         PROC          BUZZ_DEVICEINIT
  C:4F64H         LINE#         11
  C:4F64H         LINE#         12
  C:4F64H         LINE#         13
  C:4F66H         LINE#         15
  C:4F6BH         LINE#         16
  C:4F6FH         LINE#         17
  C:4F73H         LINE#         19
  C:4F75H         LINE#         20
  -------         ENDPROC       BUZZ_DEVICEINIT
  -------         PROC          _BUZZ_SET
  D:0007H         SYMBOL        times
  D:0005H         SYMBOL        on
  D:0003H         SYMBOL        off
  C:4C6EH         LINE#         22
  C:4C6EH         LINE#         23
  C:4C6EH         LINE#         24
  C:4C73H         LINE#         25
  C:4C73H         LINE#         26
  C:4C76H         LINE#         27
  C:4C76H         LINE#         29
  C:4C7BH         LINE#         30
  C:4C80H         LINE#         31
  C:4C85H         LINE#         33
  C:4C88H         LINE#         34
  -------         ENDPROC       _BUZZ_SET
  -------         PROC          BUZZ_CTR
  C:47C4H         LINE#         36
  C:47C4H         LINE#         37
  C:47C4H         LINE#         38
  C:47CAH         LINE#         39
  C:47CAH         LINE#         40
  C:47D0H         LINE#         42
  C:47DCH         LINE#         43
  C:47DCH         LINE#         44
  C:47DFH         LINE#         45
  C:47DFH         LINE#         46
  C:47E2H         LINE#         47
  C:47E2H         LINE#         49
  C:47E4H         LINE#         50
  C:47E5H         LINE#         51
  C:47EFH         LINE#         52
BL51 BANKED LINKER/LOCATER V6.22                                                      10/17/2015  10:29:03  PAGE 35


  C:47EFH         LINE#         53
  C:47F2H         LINE#         54
  C:47F2H         LINE#         55
  C:47F5H         LINE#         56
  C:47F5H         LINE#         57
  C:47F7H         LINE#         58
  C:47F8H         LINE#         60
  C:47F8H         LINE#         61
  C:47FEH         LINE#         62
  C:4803H         LINE#         63
  C:4803H         LINE#         64
  C:4804H         LINE#         66
  C:4804H         LINE#         67
  C:4806H         LINE#         68
  C:4806H         LINE#         69
  -------         ENDPROC       BUZZ_CTR
  -------         ENDMOD        BUZZER

  -------         MODULE        IR
  C:0000H         SYMBOL        _ICE_DUMMY_
  B:0023H.2       PUBLIC        IR_Changed
  X:01FBH         PUBLIC        IR_Code
  -------         ENDMOD        IR

  -------         MODULE        HUMIDITY
  C:0000H         SYMBOL        _ICE_DUMMY_
  C:097DH         SYMBOL        H_Table38
  C:0758H         SYMBOL        H_Table29
  C:09BAH         SYMBOL        H_Table39
  C:3E39H         PUBLIC        Humidity_GetCurrentH
  B:0022H.4       PUBLIC        NTC_IsError
  C:409DH         PUBLIC        Humidity_GetCurrentT
  C:429CH         SYMBOL        _Humidity_GetH
  C:01A0H         SYMBOL        H_table45
  C:4F76H         PUBLIC        Humidity_DeviceInit
  C:0B28H         SYMBOL        H_tables
  D:009FH         PUBLIC        ADCDRH
  D:009CH         PUBLIC        ADCCRL
  C:4EC0H         PUBLIC        _Utils_GetAdValue
  C:00B6H         SYMBOL        T_table
  I:0016H         PUBLIC        Humidity_AdHBuf
  C:01DDH         SYMBOL        H_Table6
  C:021AH         SYMBOL        H_Table7
  C:0257H         SYMBOL        H_Table8
  C:0294H         SYMBOL        H_Table9
  C:334FH         SYMBOL        _Humidity_Ad2H
  C:4B78H         SYMBOL        _Humidity_Ad2T
  I:0017H         PUBLIC        Humidity_CurrentH
  C:0163H         SYMBOL        H_table5
  I:0018H         PUBLIC        Humidity_CurrentT
  C:02D1H         SYMBOL        H_Table10
  C:0533H         SYMBOL        H_Table20
  C:030EH         SYMBOL        H_Table11
  C:0795H         SYMBOL        H_Table30
  C:0570H         SYMBOL        H_Table21
  C:034BH         SYMBOL        H_Table12
  C:09F7H         SYMBOL        H_Table40
BL51 BANKED LINKER/LOCATER V6.22                                                      10/17/2015  10:29:03  PAGE 36


  C:07D2H         SYMBOL        H_Table31
  C:05ADH         SYMBOL        H_Table22
  C:0388H         SYMBOL        H_Table13
  C:0A34H         SYMBOL        H_Table41
  C:080FH         SYMBOL        H_Table32
  C:05EAH         SYMBOL        H_Table23
  C:03C5H         SYMBOL        H_Table14
  C:0A71H         SYMBOL        H_Table42
  C:084CH         SYMBOL        H_Table33
  C:0627H         SYMBOL        H_Table24
  C:0402H         SYMBOL        H_Table15
  C:0AAEH         SYMBOL        H_Table43
  C:0889H         SYMBOL        H_Table34
  C:0664H         SYMBOL        H_Table25
  C:043FH         SYMBOL        H_Table16
  C:0AEBH         SYMBOL        H_Table44
  C:08C6H         SYMBOL        H_Table35
  C:06A1H         SYMBOL        H_Table26
  C:047CH         SYMBOL        H_Table17
  C:0903H         SYMBOL        H_Table36
  C:06DEH         SYMBOL        H_Table27
  C:04B9H         SYMBOL        H_Table18
  C:0940H         SYMBOL        H_Table37
  C:071BH         SYMBOL        H_Table28
  C:04F6H         SYMBOL        H_Table19
  -------         PROC          _UTILS_GETADVALUE
  D:0007H         SYMBOL        ch
  C:4EC0H         LINE#         3084
  C:4EC0H         LINE#         3085
  C:4EC0H         LINE#         3088
  C:4ECBH         LINE#         3089
  C:4ECEH         LINE#         3091
  C:4ED3H         LINE#         3096
  C:4ED5H         LINE#         3097
  -------         ENDPROC       _UTILS_GETADVALUE
  -------         PROC          _HUMIDITY_AD2T
  D:0007H         SYMBOL        adValue
  C:4B78H         LINE#         3100
  C:4B78H         LINE#         3101
  C:4B78H         LINE#         3102
  C:4B84H         LINE#         3103
  C:4B84H         LINE#         3104
  C:4B86H         LINE#         3105
  C:4B88H         LINE#         3107
  C:4B88H         LINE#         3108
  C:4B8AH         LINE#         3109
  C:4B8AH         LINE#         3111
  C:4B90H         LINE#         3112
  C:4B90H         LINE#         3113
  C:4B94H         LINE#         3114
  C:4B95H         LINE#         3116
  C:4B95H         LINE#         3117
  C:4B9DH         LINE#         3118
  C:4B9DH         LINE#         3119
  -------         ENDPROC       _HUMIDITY_AD2T
  -------         PROC          HUMIDITY_GETCURRENTT
  -------         DO            
BL51 BANKED LINKER/LOCATER V6.22                                                      10/17/2015  10:29:03  PAGE 37


  X:01D2H         SYMBOL        adSum
  X:01D4H         SYMBOL        adMax
  X:01D5H         SYMBOL        adMin
  X:01D6H         SYMBOL        sampleCnt
  D:0007H         SYMBOL        adValue
  -------         ENDDO         
  C:409DH         LINE#         3121
  C:409DH         LINE#         3122
  C:409DH         LINE#         3130
  C:40A2H         LINE#         3132
  C:40ACH         LINE#         3133
  C:40ACH         LINE#         3134
  C:40AEH         LINE#         3135
  C:40AEH         LINE#         3137
  C:40B8H         LINE#         3138
  C:40B8H         LINE#         3139
  C:40BAH         LINE#         3140
  C:40BAH         LINE#         3142
  C:40C7H         LINE#         3143
  C:40CDH         LINE#         3144
  C:40D3H         LINE#         3145
  C:40D3H         LINE#         3146
  C:40F8H         LINE#         3147
  C:4111H         LINE#         3149
  C:4114H         LINE#         3151
  C:4119H         LINE#         3153
  C:411FH         LINE#         3154
  C:4121H         LINE#         3155
  C:4125H         LINE#         3156
  C:4125H         LINE#         3157
  -------         ENDPROC       HUMIDITY_GETCURRENTT
  -------         PROC          L?0047
  -------         ENDPROC       L?0047
  -------         PROC          _HUMIDITY_GETH
  D:0007H         SYMBOL        adH
  D:0005H         SYMBOL        adT
  -------         DO            
  X:019FH         SYMBOL        table
  D:0006H         SYMBOL        i
  -------         ENDDO         
  C:429CH         LINE#         3159
  C:429CH         LINE#         3160
  C:429CH         LINE#         3164
  C:42A0H         LINE#         3165
  C:42A0H         LINE#         3166
  C:42AEH         LINE#         3167
  C:42B0H         LINE#         3168
  C:42B4H         LINE#         3169
  C:42B4H         LINE#         3170
  C:42C2H         LINE#         3171
  C:42C4H         LINE#         3173
  C:42C4H         LINE#         3174
  C:42E7H         LINE#         3175
  C:42E7H         LINE#         3177
  C:42E9H         LINE#         3178
  C:42E9H         LINE#         3179
  C:4302H         LINE#         3180
BL51 BANKED LINKER/LOCATER V6.22                                                      10/17/2015  10:29:03  PAGE 38


  C:4302H         LINE#         3181
  C:4302H         LINE#         3182
  C:4302H         LINE#         3183
  C:4307H         LINE#         3185
  C:430BH         LINE#         3186
  -------         ENDPROC       _HUMIDITY_GETH
  -------         PROC          _HUMIDITY_AD2H
  X:019CH         SYMBOL        adH
  -------         DO            
  X:019DH         SYMBOL        h1
  X:019EH         SYMBOL        h2
  -------         ENDDO         
  C:334FH         LINE#         3188
  C:3354H         LINE#         3189
  C:3354H         LINE#         3193
  C:335FH         LINE#         3194
  C:335FH         LINE#         3195
  C:3363H         LINE#         3196
  C:3366H         LINE#         3197
  C:336EH         LINE#         3198
  C:336EH         LINE#         3199
  C:3375H         LINE#         3200
  C:3378H         LINE#         3201
  C:3382H         LINE#         3202
  C:3382H         LINE#         3203
  C:338CH         LINE#         3204
  C:3396H         LINE#         3207
  C:33D5H         LINE#         3208
  C:33D7H         LINE#         3209
  C:33E6H         LINE#         3210
  C:33E6H         LINE#         3211
  C:33F0H         LINE#         3212
  C:33FFH         LINE#         3215
  C:3440H         LINE#         3216
  C:3441H         LINE#         3218
  C:3441H         LINE#         3219
  C:344CH         LINE#         3220
  C:344CH         LINE#         3221
  -------         ENDPROC       _HUMIDITY_AD2H
  -------         PROC          HUMIDITY_GETCURRENTH
  -------         DO            
  X:01D7H         SYMBOL        adSum
  X:01D9H         SYMBOL        sampleCnt
  X:01DAH         SYMBOL        circleIndex
  X:01DBH         SYMBOL        circleBuf
  B:0022H.3       SYMBOL        circleEnable
  D:0004H         SYMBOL        i
  D:0006H         SYMBOL        sumExt
  X:019BH         SYMBOL        ad
  -------         ENDDO         
  C:3E39H         LINE#         3224
  C:3E39H         LINE#         3225
  C:3E39H         LINE#         3237
  C:3E4AH         LINE#         3238
  C:3E50H         LINE#         3239
  C:3E59H         LINE#         3240
  C:3E59H         LINE#         3241
BL51 BANKED LINKER/LOCATER V6.22                                                      10/17/2015  10:29:03  PAGE 39


  C:3E6FH         LINE#         3243
  C:3E75H         LINE#         3244
  C:3E7BH         LINE#         3245
  C:3E7BH         LINE#         3246
  C:3E7DH         LINE#         3247
  C:3E7FH         LINE#         3248
  C:3E7FH         LINE#         3249
  C:3E94H         LINE#         3251
  C:3E97H         LINE#         3252
  C:3E97H         LINE#         3253
  C:3E9AH         LINE#         3254
  C:3E9BH         LINE#         3255
  C:3E9BH         LINE#         3256
  C:3EABH         LINE#         3257
  C:3EB0H         LINE#         3258
  C:3EBAH         LINE#         3259
  C:3EBEH         LINE#         3260
  C:3EC0H         LINE#         3262
  C:3EC0H         LINE#         3263
  C:3EC5H         LINE#         3264
  C:3EC5H         LINE#         3265
  C:3ECDH         LINE#         3267
  C:3ED2H         LINE#         3268
  C:3ED8H         LINE#         3269
  C:3ED8H         LINE#         3270
  -------         ENDPROC       HUMIDITY_GETCURRENTH
  -------         PROC          HUMIDITY_DEVICEINIT
  C:4F76H         LINE#         3272
  C:4F76H         LINE#         3273
  C:4F76H         LINE#         3274
  C:4F7EH         LINE#         3275
  -------         ENDPROC       HUMIDITY_DEVICEINIT
  -------         ENDMOD        HUMIDITY

  -------         MODULE        DUST
  C:0000H         SYMBOL        _ICE_DUMMY_
  X:01B7H         PUBLIC        Dust_Data
  C:46E4H         SYMBOL        Dust_getRtLevel
  X:01B9H         PUBLIC        Dust_RTData
  B:0022H.5       PUBLIC        Dust_IsReady
  X:01BBH         PUBLIC        Dust_LevelForFan
  X:01BCH         SYMBOL        Dust_levelPre
  X:01BDH         SYMBOL        Dust_readyCountdown
  C:3A3AH         PUBLIC        Dust_LevelUpdate
  C:3AEBH         PUBLIC        Dust_DataUpdate
  C:4F2BH         PUBLIC        Dust_DeviceInit
  B:0022H.6       PUBLIC        Dust_DataValid
  X:01BFH         PUBLIC        Dust_Level
  -------         PROC          DUST_DEVICEINIT
  C:4F2BH         LINE#         21
  C:4F2BH         LINE#         22
  C:4F2BH         LINE#         23
  C:4F35H         LINE#         24
  C:4F37H         LINE#         25
  C:4F3EH         LINE#         26
  -------         ENDPROC       DUST_DEVICEINIT
  -------         PROC          DUST_GETRTLEVEL
BL51 BANKED LINKER/LOCATER V6.22                                                      10/17/2015  10:29:03  PAGE 40


  -------         DO            
  D:0007H         SYMBOL        level
  -------         ENDDO         
  C:46E4H         LINE#         29
  C:46E4H         LINE#         30
  C:46E4H         LINE#         33
  C:46F4H         LINE#         34
  C:46F4H         LINE#         35
  C:46F6H         LINE#         36
  C:46F8H         LINE#         37
  C:4701H         LINE#         38
  C:4701H         LINE#         39
  C:4703H         LINE#         40
  C:4705H         LINE#         41
  C:470EH         LINE#         42
  C:470EH         LINE#         43
  C:4710H         LINE#         44
  C:4712H         LINE#         45
  C:471BH         LINE#         46
  C:471BH         LINE#         47
  C:471DH         LINE#         48
  C:471FH         LINE#         49
  C:4728H         LINE#         50
  C:4728H         LINE#         51
  C:472AH         LINE#         52
  C:472CH         LINE#         54
  C:472CH         LINE#         55
  C:472EH         LINE#         56
  C:472EH         LINE#         58
  C:472EH         LINE#         59
  -------         ENDPROC       DUST_GETRTLEVEL
  -------         PROC          DUST_DATAUPDATE
  -------         DO            
  X:01ABH         SYMBOL        tabs
  D:0007H         SYMBOL        i
  -------         ENDDO         
  C:3AEBH         LINE#         63
  C:3AEBH         LINE#         64
  C:3AEBH         LINE#         68
  C:3AF5H         LINE#         69
  C:3AF5H         LINE#         70
  C:3B03H         LINE#         71
  C:3B0AH         LINE#         72
  C:3B0AH         LINE#         73
  C:3B12H         LINE#         74
  C:3B16H         LINE#         75
  C:3B18H         LINE#         76
  C:3B18H         LINE#         77
  C:3B1AH         LINE#         79
  C:3B1AH         LINE#         80
  C:3B1CH         LINE#         81
  C:3B1CH         LINE#         83
  C:3B1FH         LINE#         84
  C:3B1FH         LINE#         85
  C:3B2CH         LINE#         86
  C:3B39H         LINE#         87
  C:3B46H         LINE#         88
BL51 BANKED LINKER/LOCATER V6.22                                                      10/17/2015  10:29:03  PAGE 41


  C:3B55H         LINE#         90
  C:3B57H         LINE#         92
  C:3B5EH         LINE#         93
  C:3B5FH         LINE#         94
  C:3B5FH         LINE#         95
  C:3B7CH         LINE#         96
  C:3B81H         LINE#         97
  C:3B97H         LINE#         98
  C:3B97H         LINE#         99
  -------         ENDPROC       DUST_DATAUPDATE
  -------         PROC          DUST_LEVELUPDATE
  -------         DO            
  X:01B3H         SYMBOL        upperHoldCntForFan
  X:01B4H         SYMBOL        lowerHoldCntForFan
  X:01B5H         SYMBOL        lowerHoldCnt
  D:0007H         SYMBOL        levelCur
  -------         ENDDO         
  C:3A3AH         LINE#         101
  C:3A3AH         LINE#         102
  C:3A3AH         LINE#         110
  C:3A3DH         LINE#         111
  C:3A3DH         LINE#         112
  C:3A42H         LINE#         113
  C:3A44H         LINE#         115
  C:3A48H         LINE#         118
  C:3A48H         LINE#         121
  C:3A4BH         LINE#         123
  C:3A55H         LINE#         124
  C:3A55H         LINE#         125
  C:3A5CH         LINE#         127
  C:3A61H         LINE#         128
  C:3A61H         LINE#         129
  C:3A63H         LINE#         130
  C:3A68H         LINE#         131
  C:3A68H         LINE#         132
  C:3A76H         LINE#         133
  C:3A87H         LINE#         134
  C:3A87H         LINE#         135
  C:3A8BH         LINE#         137
  C:3A94H         LINE#         138
  C:3A94H         LINE#         139
  C:3A97H         LINE#         140
  C:3A97H         LINE#         142
  C:3A9FH         LINE#         143
  C:3A9FH         LINE#         144
  C:3A9FH         LINE#         151
  C:3AADH         LINE#         152
  C:3AADH         LINE#         153
  C:3AB2H         LINE#         155
  C:3AB8H         LINE#         156
  C:3ABEH         LINE#         157
  C:3ABEH         LINE#         158
  C:3AC0H         LINE#         160
  C:3AC6H         LINE#         161
  C:3AC6H         LINE#         162
  C:3AC7H         LINE#         163
  C:3ACCH         LINE#         164
BL51 BANKED LINKER/LOCATER V6.22                                                      10/17/2015  10:29:03  PAGE 42


  C:3ACCH         LINE#         165
  C:3AD1H         LINE#         167
  C:3AD5H         LINE#         168
  C:3ADAH         LINE#         169
  C:3ADAH         LINE#         170
  C:3ADCH         LINE#         172
  C:3AE2H         LINE#         173
  C:3AE2H         LINE#         174
  C:3AE3H         LINE#         176
  C:3AE3H         LINE#         177
  C:3AE8H         LINE#         178
  C:3AEAH         LINE#         179
  C:3AEAH         LINE#         180
  -------         ENDPROC       DUST_LEVELUPDATE
  -------         ENDMOD        DUST

  -------         MODULE        MOTOR
  C:0000H         SYMBOL        _ICE_DUMMY_
  X:01E5H         PUBLIC        Motor_CurSpeed
  B:0022H.0       SYMBOL        Motor_runEnable
  B:0022H.1       PUBLIC        Motor_IsRunning
  C:5009H         PUBLIC        Motor_Stop
  C:2160H         PUBLIC        Motor_Ctr
  D:00BFH         PUBLIC        T1BDRH
  C:4BFBH         PUBLIC        _Motor_Run
  D:00BEH         PUBLIC        T1BDRL
  B:0022H.2       PUBLIC        Motor_SpeedUpdated
  X:01E7H         SYMBOL        Motor_pwnData
  X:01E9H         PUBLIC        Motor_ExpectSpeed
  -------         PROC          MOTOR_STOP
  C:5009H         LINE#         11
  C:5009H         LINE#         12
  C:5009H         LINE#         13
  C:500BH         LINE#         14
  C:5012H         LINE#         15
  -------         ENDPROC       MOTOR_STOP
  -------         PROC          _MOTOR_RUN
  D:0006H         SYMBOL        rpm
  C:4BFBH         LINE#         17
  C:4BFBH         LINE#         18
  C:4BFBH         LINE#         19
  C:4BFDH         LINE#         20
  C:4C17H         LINE#         21
  -------         ENDPROC       _MOTOR_RUN
  -------         PROC          MOTOR_CTR
  -------         DO            
  X:01E3H         SYMBOL        Motor_lastSpeed
  X:019BH         SYMBOL        deltaSp
  X:019DH         SYMBOL        deltaA
  X:019FH         SYMBOL        e
  -------         ENDDO         
  C:2160H         LINE#         23
  C:2160H         LINE#         24
  C:2160H         LINE#         31
  C:217AH         LINE#         33
  C:2188H         LINE#         34
  C:2188H         LINE#         35
BL51 BANKED LINKER/LOCATER V6.22                                                      10/17/2015  10:29:03  PAGE 43


  C:218BH         LINE#         36
  C:218DH         LINE#         37
  C:2193H         LINE#         38
  C:2194H         LINE#         40
  C:2194H         LINE#         41
  C:2197H         LINE#         42
  C:2197H         LINE#         44
  C:21A5H         LINE#         45
  C:21B5H         LINE#         46
  C:21B5H         LINE#         47
  C:21BCH         LINE#         49
  C:21BCH         LINE#         50
  C:21BFH         LINE#         52
  C:21BFH         LINE#         54
  C:21C5H         LINE#         55
  C:21C5H         LINE#         56
  C:21DAH         LINE#         57
  C:21DAH         LINE#         58
  C:21E3H         LINE#         59
  C:21E5H         LINE#         61
  C:21E5H         LINE#         62
  C:2200H         LINE#         63
  C:2200H         LINE#         65
  C:220DH         LINE#         66
  C:220DH         LINE#         67
  C:2227H         LINE#         69
  C:2251H         LINE#         71
  C:2261H         LINE#         72
  C:2261H         LINE#         73
  C:2275H         LINE#         74
  C:2275H         LINE#         75
  C:2277H         LINE#         77
  C:2277H         LINE#         78
  C:2292H         LINE#         79
  C:22BCH         LINE#         80
  C:22D2H         LINE#         81
  C:22D2H         LINE#         82
  C:22E6H         LINE#         83
  C:22E6H         LINE#         84
  C:22E6H         LINE#         86
  C:22E8H         LINE#         87
  C:22E8H         LINE#         88
  C:22E8H         LINE#         90
  C:22F3H         LINE#         91
  C:22F5H         LINE#         93
  C:2304H         LINE#         94
  C:2304H         LINE#         95
  -------         ENDPROC       MOTOR_CTR
  -------         ENDMOD        MOTOR

  -------         MODULE        SYSTEM
  C:0000H         SYMBOL        _ICE_DUMMY_
  D:0088H         PUBLIC        P1
  B:0020H.7       PUBLIC        Sys_IsAutoMode
  B:0021H.0       PUBLIC        Sys_TimerFunEn
  X:00D9H         PUBLIC        Sys_WifiStrength
  X:00DAH         PUBLIC        Time_100msCnt
BL51 BANKED LINKER/LOCATER V6.22                                                      10/17/2015  10:29:03  PAGE 44


  X:00DBH         PUBLIC        Sys_PowerOffPoint1
  X:00DDH         PUBLIC        Sys_UVLedSta
  D:00A8H         PUBLIC        IE
  X:00DEH         PUBLIC        Sys_PowerOffPoint2
  X:00E0H         PUBLIC        Sys_CleanMode
  X:00E1H         PUBLIC        Sys_PowerOffPoint3
  X:00E3H         PUBLIC        Time_Flag1s
  X:00E4H         PUBLIC        Sys_PlanformConnSta
  X:00E5H         PUBLIC        Sys_ClockTime
  C:421EH         PUBLIC        Sys_Reset
  X:00EBH         PUBLIC        Sys_UsedTimeRecord
  X:00FFH         PUBLIC        Sys_TotalWorkedTime
  B:0021H.1       PUBLIC        Sys_MemoryDataExist
  B:0021H.2       PUBLIC        Sys_EDispEn
  X:0101H         PUBLIC        Sys_PowerOnPoint1
  X:0103H         PUBLIC        Sys_PowerOnPoint2
  X:0105H         PUBLIC        Sys_PowerOnPoint3
  D:0087H         PUBLIC        PCON
  B:0088H.4       PUBLIC        P14
  B:0088H.5       PUBLIC        P15
  B:00A0H.3       PUBLIC        P43
  B:0088H.6       PUBLIC        P16
  X:0107H         PUBLIC        Sys_HVpgCnt
  X:0109H         PUBLIC        Sys_LeftTime
  X:010BH         PUBLIC        Sys_RemoteTimerCtr
  D:00ABH         PUBLIC        IE3
  B:0021H.3       PUBLIC        Time_Flag1Min
  C:3547H         PUBLIC        Sys_UpdateTimerOnIndex
  B:0021H.4       PUBLIC        Sys_NHVModeEn
  X:010CH         PUBLIC        Sys_LoadsEn
  C:454BH         PUBLIC        Sys_LoadCtr
  X:010DH         PUBLIC        Sys_FixMode
  C:4A9BH         PUBLIC        Sys_EnterStopMode
  X:010EH         PUBLIC        Sys_AionSta
  X:010FH         PUBLIC        Sys_WorkTime
  X:0111H         PUBLIC        Sys_PowerSta
  X:0112H         PUBLIC        Sys_TimerOnIndex
  X:0113H         PUBLIC        Sys_Pm25Records_10
  X:012DH         PUBLIC        Sys_Pm25Records_30
  X:0147H         PUBLIC        Sys_SpOption
  C:4BDDH         PUBLIC        Timer_Points
  X:0148H         PUBLIC        Sys_RouteConnSta
  X:0149H         PUBLIC        Sys_AmountOfWipedDust
  X:014BH         PUBLIC        Sys_LightLowerCountdown
  C:4BEFH         PUBLIC        Sys_TimerSegments
  X:014CH         PUBLIC        Time_RTCSec
  X:014DH         PUBLIC        Sys_EWorkedMin
  X:0151H         PUBLIC        Sys_TimerStartedIndex
  -------         PROC          SYS_UPDATETIMERONINDEX
  -------         DO            
  X:019FH         SYMBOL        temp
  X:01A1H         SYMBOL        i
  X:01A2H         SYMBOL        t1
  D:0006H         SYMBOL        t2
  -------         ENDDO         
  C:3547H         LINE#         75
  C:3547H         LINE#         76
BL51 BANKED LINKER/LOCATER V6.22                                                      10/17/2015  10:29:03  PAGE 45


  C:3547H         LINE#         83
  C:3551H         LINE#         84
  C:3557H         LINE#         85
  C:3569H         LINE#         86
  C:3569H         LINE#         87
  C:3591H         LINE#         88
  C:3591H         LINE#         89
  C:35E5H         LINE#         90
  C:35F6H         LINE#         92
  C:3604H         LINE#         93
  C:3604H         LINE#         94
  C:3617H         LINE#         95
  C:3617H         LINE#         96
  C:3629H         LINE#         97
  C:362FH         LINE#         98
  C:362FH         LINE#         99
  C:362FH         LINE#         100
  C:362FH         LINE#         101
  C:3639H         LINE#         102
  -------         ENDPROC       SYS_UPDATETIMERONINDEX
  -------         PROC          SYS_LOADCTR
  C:454BH         LINE#         105
  C:454BH         LINE#         106
  C:454BH         LINE#         107
  C:4550H         LINE#         108
  C:456AH         LINE#         110
  C:4571H         LINE#         111
  C:4571H         LINE#         112
  C:4573H         LINE#         113
  C:4575H         LINE#         115
  C:4575H         LINE#         116
  C:4577H         LINE#         117
  C:4577H         LINE#         119
  C:457EH         LINE#         120
  C:457EH         LINE#         121
  C:4580H         LINE#         122
  C:4582H         LINE#         124
  C:4582H         LINE#         125
  C:4584H         LINE#         126
  C:4584H         LINE#         128
  C:458BH         LINE#         129
  C:458BH         LINE#         130
  C:458DH         LINE#         131
  C:458FH         LINE#         133
  C:458FH         LINE#         134
  C:4591H         LINE#         135
  C:4591H         LINE#         137
  C:4598H         LINE#         138
  C:4598H         LINE#         139
  C:459AH         LINE#         140
  C:459BH         LINE#         142
  C:459BH         LINE#         143
  C:459DH         LINE#         144
  C:459DH         LINE#         145
  -------         ENDPROC       SYS_LOADCTR
  -------         PROC          SYS_ENTERSTOPMODE
  -------         DO            
BL51 BANKED LINKER/LOCATER V6.22                                                      10/17/2015  10:29:03  PAGE 46


  X:00D8H         SYMBOL        cnt
  -------         ENDDO         
  C:4A9BH         LINE#         147
  C:4A9BH         LINE#         148
  C:4A9BH         LINE#         152
  C:4AA0H         LINE#         153
  C:4AA0H         LINE#         154
  C:4AA6H         LINE#         155
  C:4AACH         LINE#         156
  C:4AACH         LINE#         157
  C:4AAEH         LINE#         159
  C:4AB1H         LINE#         160
  C:4AB5H         LINE#         161
  C:4AB9H         LINE#         163
  C:4ABCH         LINE#         164
  C:4ABFH         LINE#         165
  C:4AC2H         LINE#         166
  C:4AC2H         LINE#         167
  C:4AC3H         LINE#         169
  C:4AC3H         LINE#         170
  C:4AC8H         LINE#         171
  C:4AC8H         LINE#         172
  -------         ENDPROC       SYS_ENTERSTOPMODE
  -------         PROC          SYS_RESET
  -------         DO            
  D:0007H         SYMBOL        i
  -------         ENDDO         
  C:421EH         LINE#         175
  C:421EH         LINE#         176
  C:421EH         LINE#         179
  C:4220H         LINE#         180
  C:4226H         LINE#         182
  C:422BH         LINE#         183
  C:422FH         LINE#         184
  C:4233H         LINE#         185
  C:4237H         LINE#         186
  C:423BH         LINE#         187
  C:423FH         LINE#         189
  C:4243H         LINE#         190
  C:4247H         LINE#         191
  C:424BH         LINE#         192
  C:424FH         LINE#         193
  C:4253H         LINE#         194
  C:4257H         LINE#         196
  C:4258H         LINE#         197
  C:4258H         LINE#         198
  C:4264H         LINE#         199
  C:4269H         LINE#         201
  C:426BH         LINE#         202
  C:4272H         LINE#         203
  C:4275H         LINE#         205
  C:427BH         LINE#         206
  C:427FH         LINE#         208
  C:4281H         LINE#         210
  C:428BH         LINE#         211
  C:428DH         LINE#         213
  C:428FH         LINE#         214
BL51 BANKED LINKER/LOCATER V6.22                                                      10/17/2015  10:29:03  PAGE 47


  C:4296H         LINE#         215
  -------         ENDPROC       SYS_RESET
  -------         ENDMOD        SYSTEM

  -------         MODULE        KEY
  C:0000H         SYMBOL        _ICE_DUMMY_
  D:0090H         PUBLIC        P2
  D:0098H         PUBLIC        P3
  X:01F5H         PUBLIC        Key_Code
  C:459EH         SYMBOL        Key_Read
  D:00B9H         PUBLIC        P2IO
  D:00C1H         PUBLIC        P3IO
  B:0023H.3       PUBLIC        Key_Released
  C:38BCH         PUBLIC        Key_ActionDetect
  X:01F6H         PUBLIC        Key_Action
  -------         PROC          KEY_READ
  -------         DO            
  D:0007H         SYMBOL        keyDat
  -------         ENDDO         
  C:459EH         LINE#         9
  C:459EH         LINE#         10
  C:459EH         LINE#         14
  C:45A1H         LINE#         16
  C:45A5H         LINE#         17
  C:45A8H         LINE#         18
  C:45ABH         LINE#         19
  C:45B1H         LINE#         20
  C:45B5H         LINE#         22
  C:45B7H         LINE#         24
  C:45BCH         LINE#         25
  C:45BCH         LINE#         26
  C:45BDH         LINE#         27
  C:45BDH         LINE#         29
  C:45C2H         LINE#         30
  C:45C2H         LINE#         31
  C:45C6H         LINE#         32
  C:45C6H         LINE#         34
  C:45CBH         LINE#         35
  C:45CBH         LINE#         36
  C:45CFH         LINE#         37
  C:45CFH         LINE#         39
  C:45D4H         LINE#         40
  C:45D4H         LINE#         41
  C:45D8H         LINE#         42
  C:45D8H         LINE#         44
  C:45DDH         LINE#         45
  C:45DDH         LINE#         46
  C:45E1H         LINE#         47
  C:45E1H         LINE#         49
  C:45E6H         LINE#         50
  C:45E6H         LINE#         51
  C:45EAH         LINE#         52
  C:45EAH         LINE#         54
  C:45F0H         LINE#         56
  C:45F0H         LINE#         57
  -------         ENDPROC       KEY_READ
  -------         PROC          KEY_ACTIONDETECT
BL51 BANKED LINKER/LOCATER V6.22                                                      10/17/2015  10:29:03  PAGE 48


  -------         DO            
  X:019BH         SYMBOL        Key_codeBuf
  X:01F3H         SYMBOL        Key_stateHoldCnt
  X:01F4H         SYMBOL        Key_stateHoldCntExt
  -------         ENDDO         
  C:38BCH         LINE#         59
  C:38BCH         LINE#         60
  C:38BCH         LINE#         66
  C:38C4H         LINE#         67
  C:38CBH         LINE#         68
  C:38CBH         LINE#         69
  C:38E0H         LINE#         70
  C:38E0H         LINE#         71
  C:38E6H         LINE#         72
  C:38FCH         LINE#         73
  C:38FCH         LINE#         74
  C:3904H         LINE#         75
  C:3905H         LINE#         77
  C:3905H         LINE#         78
  C:390BH         LINE#         79
  C:390BH         LINE#         80
  C:390FH         LINE#         81
  C:3911H         LINE#         83
  C:3913H         LINE#         84
  C:3914H         LINE#         86
  C:3914H         LINE#         87
  C:3919H         LINE#         88
  C:391FH         LINE#         89
  C:3923H         LINE#         91
  C:3929H         LINE#         92
  C:3929H         LINE#         93
  C:392CH         LINE#         94
  C:3932H         LINE#         95
  C:3948H         LINE#         96
  C:3948H         LINE#         98
  C:3950H         LINE#         99
  C:3950H         LINE#         100
  C:3956H         LINE#         101
  C:3958H         LINE#         102
  C:395CH         LINE#         103
  C:395CH         LINE#         104
  C:3962H         LINE#         105
  C:3964H         LINE#         107
  C:3964H         LINE#         108
  C:396AH         LINE#         109
  C:396AH         LINE#         110
  C:3970H         LINE#         111
  C:3971H         LINE#         113
  C:3971H         LINE#         115
  C:3987H         LINE#         116
  C:3987H         LINE#         117
  C:3987H         LINE#         118
  -------         ENDPROC       KEY_ACTIONDETECT
  -------         ENDMOD        KEY

  -------         MODULE        FIFO
  C:0000H         SYMBOL        _ICE_DUMMY_
BL51 BANKED LINKER/LOCATER V6.22                                                      10/17/2015  10:29:03  PAGE 49


  C:4FD3H         PUBLIC        _InitQueue
  C:4DE7H         PUBLIC        _QueueLen
  C:44EEH         PUBLIC        _Dequeue
  C:4F02H         PUBLIC        _QueueIsEmpty
  C:48FEH         PUBLIC        _QueueIsFull
  C:4370H         PUBLIC        _Enqueue
  -------         PROC          _INITQUEUE
  D:0001H         SYMBOL        queue
  C:4FD3H         LINE#         3
  C:4FD3H         LINE#         4
  C:4FD3H         LINE#         5
  -------         ENDPROC       _INITQUEUE
  -------         PROC          _QUEUEISEMPTY
  D:0001H         SYMBOL        queue
  C:4F02H         LINE#         8
  C:4F02H         LINE#         9
  C:4F02H         LINE#         10
  C:4F16H         LINE#         11
  -------         ENDPROC       _QUEUEISEMPTY
  -------         PROC          _QUEUEISFULL
  X:01A8H         SYMBOL        queue
  C:48FEH         LINE#         13
  C:4909H         LINE#         14
  C:4909H         LINE#         15
  C:4936H         LINE#         16
  -------         ENDPROC       _QUEUEISFULL
  -------         PROC          _QUEUELEN
  D:0001H         SYMBOL        queue
  C:4DE7H         LINE#         18
  C:4DE7H         LINE#         19
  C:4DE7H         LINE#         20
  C:4E00H         LINE#         21
  -------         ENDPROC       _QUEUELEN
  -------         PROC          _ENQUEUE
  X:01A4H         SYMBOL        queue
  X:01A7H         SYMBOL        element
  C:4370H         LINE#         23
  C:4380H         LINE#         24
  C:4380H         LINE#         25
  C:4385H         LINE#         26
  C:4385H         LINE#         27
  C:43A4H         LINE#         28
  C:43CBH         LINE#         29
  C:43CBH         LINE#         31
  C:43D0H         LINE#         32
  -------         ENDPROC       _ENQUEUE
  -------         PROC          _DEQUEUE
  X:01A4H         SYMBOL        queue
  -------         DO            
  X:01A7H         SYMBOL        result
  -------         ENDDO         
  C:44EEH         LINE#         34
  C:44F9H         LINE#         35
  C:44F9H         LINE#         38
  C:44FCH         LINE#         39
  C:4501H         LINE#         40
  C:4501H         LINE#         41
BL51 BANKED LINKER/LOCATER V6.22                                                      10/17/2015  10:29:03  PAGE 50


  C:451EH         LINE#         42
  C:4545H         LINE#         43
  C:4545H         LINE#         45
  C:454AH         LINE#         46
  -------         ENDPROC       _DEQUEUE
  -------         ENDMOD        FIFO

  -------         MODULE        PROTOCOL
  C:0000H         SYMBOL        _ICE_DUMMY_
  C:110FH         SYMBOL        _Protocol_StaResp
  B:0023H.4       SYMBOL        isWaitingHeader
  C:4B22H         SYMBOL        CMD_POWER_CTR_DEAL
  C:3B98H         SYMBOL        CMD_GET_ENE_DATAS_DEAL
  C:4C18H         SYMBOL        CMD_AION_CTR_DEAL
  C:4807H         SYMBOL        CMD_RT_SET_DEAL
  C:4C35H         SYMBOL        CMD_UV_CTR_DEAL
  C:1FB5H         SYMBOL        CMD_GET_DEVICE_INFO_DEAL
  C:4E01H         SYMBOL        CMD_WIFI_STA_CHANGE_DEAL
  C:001EH         SYMBOL        CMD_GET_SYS_STA_DEAL
  C:006AH         SYMBOL        CMD_DUMMY_DEAL
  C:448FH         SYMBOL        CMD_FAN_CTR_DEAL
  C:2305H         PUBLIC        Protocol_Task
  C:504BH         PUBLIC        Protocol_Init
  C:363AH         PUBLIC        Protocol_ResetWifiMode
  C:4C89H         SYMBOL        CMD_MEM_SET_DEAL
  C:2641H         SYMBOL        CMD_GET_PM_DATAS_DEAL
  C:4EECH         SYMBOL        CMD_CLEAN_CTR_DEAL
  C:4ED6H         SYMBOL        CMD_FIX_CTR_DEAL
  X:01FAH         SYMBOL        rxIndex
  C:4C52H         SYMBOL        CMD_REST_DEAL
  C:472FH         PUBLIC        ProtocolTab
  C:3D96H         PUBLIC        Protocol_EnterATmode
  C:41A4H         SYMBOL        CMD_TIMER_CTR_DEAL
  -------         PROC          _PROTOCOL_STARESP
  X:019FH         SYMBOL        cmd
  -------         DO            
  X:01A0H         SYMBOL        sum
  -------         ENDDO         
  C:110FH         LINE#         41
  C:1114H         LINE#         42
  C:1114H         LINE#         45
  C:1117H         LINE#         47
  C:1127H         LINE#         48
  C:1137H         LINE#         50
  C:1150H         LINE#         51
  C:1166H         LINE#         53
  C:117FH         LINE#         55
  C:1198H         LINE#         56
  C:11B2H         LINE#         58
  C:11CBH         LINE#         59
  C:11E5H         LINE#         61
  C:11FEH         LINE#         62
  C:1218H         LINE#         64
  C:1231H         LINE#         65
  C:124BH         LINE#         67
  C:1263H         LINE#         68
  C:127BH         LINE#         70
BL51 BANKED LINKER/LOCATER V6.22                                                      10/17/2015  10:29:03  PAGE 51


  C:1289H         LINE#         71
  C:1289H         LINE#         72
  C:128AH         LINE#         73
  C:128CH         LINE#         75
  C:128CH         LINE#         76
  C:129AH         LINE#         77
  C:129AH         LINE#         79
  C:12BBH         LINE#         80
  C:12DCH         LINE#         82
  C:12F5H         LINE#         83
  C:130EH         LINE#         85
  C:1327H         LINE#         86
  C:1340H         LINE#         87
  C:1359H         LINE#         88
  C:1372H         LINE#         90
  C:138BH         LINE#         91
  C:13A4H         LINE#         92
  C:13BDH         LINE#         93
  C:13D6H         LINE#         95
  C:13EFH         LINE#         96
  C:1408H         LINE#         97
  C:1421H         LINE#         98
  C:143AH         LINE#         100
  C:1450H         LINE#         101
  C:1466H         LINE#         103
  C:147CH         LINE#         105
  C:1492H         LINE#         106
  C:14A8H         LINE#         108
  C:14BEH         LINE#         110
  C:14D4H         LINE#         112
  C:14EAH         LINE#         113
  C:1500H         LINE#         116
  C:1513H         LINE#         117
  C:1523H         LINE#         119
  -------         ENDPROC       _PROTOCOL_STARESP
  -------         PROC          CMD_DUMMY_DEAL
  C:006AH         LINE#         123
  C:006AH         LINE#         124
  C:006AH         LINE#         126
  -------         ENDPROC       CMD_DUMMY_DEAL
  -------         PROC          CMD_GET_SYS_STA_DEAL
  C:001EH         LINE#         128
  C:001EH         LINE#         129
  C:001EH         LINE#         130
  -------         ENDPROC       CMD_GET_SYS_STA_DEAL
  -------         PROC          CMD_POWER_CTR_DEAL
  C:4B22H         LINE#         132
  C:4B22H         LINE#         133
  C:4B22H         LINE#         134
  C:4B2BH         LINE#         135
  C:4B2EH         LINE#         136
  C:4B2EH         LINE#         137
  C:4B32H         LINE#         138
  C:4B34H         LINE#         140
  C:4B34H         LINE#         141
  C:4B3FH         LINE#         142
  C:4B3FH         LINE#         143
BL51 BANKED LINKER/LOCATER V6.22                                                      10/17/2015  10:29:03  PAGE 52


  C:4B48H         LINE#         144
  -------         ENDPROC       CMD_POWER_CTR_DEAL
  -------         PROC          CMD_FAN_CTR_DEAL
  C:448FH         LINE#         146
  C:448FH         LINE#         147
  C:448FH         LINE#         148
  C:4497H         LINE#         149
  C:4497H         LINE#         150
  C:449EH         LINE#         151
  C:449EH         LINE#         152
  C:44A0H         LINE#         153
  C:44A8H         LINE#         154
  C:44AAH         LINE#         156
  C:44AAH         LINE#         157
  C:44ACH         LINE#         158
  C:44ACH         LINE#         161
  C:44B3H         LINE#         162
  C:44B3H         LINE#         163
  C:44B8H         LINE#         164
  C:44B8H         LINE#         165
  C:44BEH         LINE#         166
  C:44C2H         LINE#         167
  C:44C2H         LINE#         168
  C:44C7H         LINE#         169
  C:44CBH         LINE#         170
  C:44CBH         LINE#         172
  C:44D4H         LINE#         174
  C:44D7H         LINE#         175
  C:44D7H         LINE#         176
  C:44DCH         LINE#         177
  C:44E0H         LINE#         178
  C:44E0H         LINE#         180
  C:44E9H         LINE#         181
  C:44E9H         LINE#         183
  -------         ENDPROC       CMD_FAN_CTR_DEAL
  -------         PROC          CMD_FIX_CTR_DEAL
  C:4ED6H         LINE#         185
  C:4ED6H         LINE#         186
  C:4ED6H         LINE#         187
  C:4EDEH         LINE#         188
  C:4EE7H         LINE#         189
  -------         ENDPROC       CMD_FIX_CTR_DEAL
  -------         PROC          CMD_CLEAN_CTR_DEAL
  C:4EECH         LINE#         191
  C:4EECH         LINE#         192
  C:4EECH         LINE#         193
  C:4EF4H         LINE#         194
  C:4EFDH         LINE#         195
  -------         ENDPROC       CMD_CLEAN_CTR_DEAL
  -------         PROC          CMD_AION_CTR_DEAL
  C:4C18H         LINE#         197
  C:4C18H         LINE#         198
  C:4C18H         LINE#         199
  C:4C1FH         LINE#         200
  C:4C1FH         LINE#         201
  C:4C27H         LINE#         202
  C:4C30H         LINE#         203
BL51 BANKED LINKER/LOCATER V6.22                                                      10/17/2015  10:29:03  PAGE 53


  C:4C30H         LINE#         205
  -------         ENDPROC       CMD_AION_CTR_DEAL
  -------         PROC          CMD_UV_CTR_DEAL
  C:4C35H         LINE#         207
  C:4C35H         LINE#         208
  C:4C35H         LINE#         209
  C:4C3CH         LINE#         210
  C:4C3CH         LINE#         211
  C:4C44H         LINE#         212
  C:4C4DH         LINE#         213
  C:4C4DH         LINE#         215
  -------         ENDPROC       CMD_UV_CTR_DEAL
  -------         PROC          CMD_TIMER_CTR_DEAL
  C:41A4H         LINE#         217
  C:41A4H         LINE#         218
  C:41A4H         LINE#         219
  C:41ACH         LINE#         220
  C:41B4H         LINE#         221
  C:41BCH         LINE#         222
  C:41C4H         LINE#         224
  C:41CCH         LINE#         225
  C:41D4H         LINE#         226
  C:41DCH         LINE#         227
  C:41E4H         LINE#         229
  C:41ECH         LINE#         230
  C:41F4H         LINE#         231
  C:41FCH         LINE#         232
  C:4204H         LINE#         234
  C:4206H         LINE#         235
  C:420DH         LINE#         237
  C:4210H         LINE#         239
  C:4219H         LINE#         240
  -------         ENDPROC       CMD_TIMER_CTR_DEAL
  -------         PROC          CMD_GET_PM_DATAS_DEAL
  -------         DO            
  X:019FH         SYMBOL        sum
  X:01A0H         SYMBOL        i
  X:01A1H         SYMBOL        ptr
  -------         ENDDO         
  C:2641H         LINE#         242
  C:2641H         LINE#         243
  C:2641H         LINE#         248
  C:264BH         LINE#         249
  C:264BH         LINE#         250
  C:2656H         LINE#         251
  C:2658H         LINE#         253
  C:2658H         LINE#         254
  C:2663H         LINE#         255
  C:2663H         LINE#         257
  C:2673H         LINE#         258
  C:2683H         LINE#         260
  C:2698H         LINE#         261
  C:26AEH         LINE#         264
  C:26D1H         LINE#         265
  C:26F7H         LINE#         267
  C:2704H         LINE#         268
  C:2704H         LINE#         269
BL51 BANKED LINKER/LOCATER V6.22                                                      10/17/2015  10:29:03  PAGE 54


  C:2736H         LINE#         270
  C:276BH         LINE#         271
  C:2771H         LINE#         273
  C:2784H         LINE#         274
  C:2794H         LINE#         276
  C:279DH         LINE#         278
  -------         ENDPROC       CMD_GET_PM_DATAS_DEAL
  -------         PROC          CMD_GET_ENE_DATAS_DEAL
  -------         DO            
  X:019FH         SYMBOL        sum
  X:01A0H         SYMBOL        i
  -------         ENDDO         
  C:3B98H         LINE#         280
  C:3B98H         LINE#         281
  C:3B98H         LINE#         285
  C:3BA8H         LINE#         286
  C:3BB8H         LINE#         288
  C:3BCDH         LINE#         289
  C:3BE3H         LINE#         291
  C:3BF0H         LINE#         292
  C:3BF0H         LINE#         293
  C:3C10H         LINE#         294
  C:3C16H         LINE#         296
  C:3C29H         LINE#         297
  C:3C39H         LINE#         299
  C:3C42H         LINE#         301
  -------         ENDPROC       CMD_GET_ENE_DATAS_DEAL
  -------         PROC          CMD_RT_SET_DEAL
  C:4807H         LINE#         303
  C:4807H         LINE#         304
  C:4807H         LINE#         306
  C:481CH         LINE#         307
  C:4824H         LINE#         308
  C:482CH         LINE#         309
  C:4834H         LINE#         310
  C:483CH         LINE#         312
  C:4845H         LINE#         314
  -------         ENDPROC       CMD_RT_SET_DEAL
  -------         PROC          CMD_MEM_SET_DEAL
  C:4C89H         LINE#         316
  C:4C89H         LINE#         317
  C:4C89H         LINE#         320
  C:4C8BH         LINE#         321
  C:4C96H         LINE#         323
  C:4C9FH         LINE#         324
  -------         ENDPROC       CMD_MEM_SET_DEAL
  -------         PROC          CMD_REST_DEAL
  C:4C52H         LINE#         326
  C:4C52H         LINE#         327
  C:4C52H         LINE#         328
  C:4C55H         LINE#         330
  C:4C60H         LINE#         331
  C:4C69H         LINE#         332
  -------         ENDPROC       CMD_REST_DEAL
  -------         PROC          CMD_GET_DEVICE_INFO_DEAL
  -------         DO            
  X:019FH         SYMBOL        sum
BL51 BANKED LINKER/LOCATER V6.22                                                      10/17/2015  10:29:03  PAGE 55


  -------         ENDDO         
  C:1FB5H         LINE#         336
  C:1FB5H         LINE#         337
  C:1FB5H         LINE#         340
  C:1FBAH         LINE#         342
  C:1FCAH         LINE#         343
  C:1FDAH         LINE#         345
  C:1FF0H         LINE#         347
  C:2006H         LINE#         350
  C:201CH         LINE#         351
  C:2032H         LINE#         353
  C:2048H         LINE#         354
  C:205EH         LINE#         356
  C:2074H         LINE#         357
  C:208AH         LINE#         359
  C:20A0H         LINE#         360
  C:20B6H         LINE#         362
  C:20CCH         LINE#         363
  C:20E2H         LINE#         365
  C:20F8H         LINE#         366
  C:210EH         LINE#         368
  C:2124H         LINE#         369
  C:213AH         LINE#         371
  C:214DH         LINE#         373
  C:215DH         LINE#         375
  -------         ENDPROC       CMD_GET_DEVICE_INFO_DEAL
  -------         PROC          CMD_WIFI_STA_CHANGE_DEAL
  C:4E01H         LINE#         377
  C:4E01H         LINE#         378
  C:4E01H         LINE#         380
  C:4E09H         LINE#         382
  C:4E11H         LINE#         384
  C:4E19H         LINE#         385
  -------         ENDPROC       CMD_WIFI_STA_CHANGE_DEAL
  -------         PROC          PROTOCOL_INIT
  C:504BH         LINE#         417
  C:504BH         LINE#         418
  C:504BH         LINE#         419
  C:504DH         LINE#         420
  C:5052H         LINE#         421
  -------         ENDPROC       PROTOCOL_INIT
  -------         PROC          PROTOCOL_ENTERATMODE
  C:3D96H         LINE#         423
  C:3D96H         LINE#         424
  C:3D96H         LINE#         426
  C:3DA6H         LINE#         427
  C:3DB6H         LINE#         428
  C:3DC6H         LINE#         429
  C:3DD6H         LINE#         430
  C:3DE6H         LINE#         431
  C:3DF6H         LINE#         432
  C:3E06H         LINE#         433
  C:3E16H         LINE#         434
  C:3E26H         LINE#         435
  C:3E36H         LINE#         437
  -------         ENDPROC       PROTOCOL_ENTERATMODE
  -------         PROC          PROTOCOL_RESETWIFIMODE
BL51 BANKED LINKER/LOCATER V6.22                                                      10/17/2015  10:29:03  PAGE 56


  C:363AH         LINE#         440
  C:363AH         LINE#         441
  C:363AH         LINE#         444
  C:364AH         LINE#         445
  C:365AH         LINE#         446
  C:366AH         LINE#         447
  C:367AH         LINE#         448
  C:368AH         LINE#         449
  C:369AH         LINE#         450
  C:36AAH         LINE#         451
  C:36BAH         LINE#         452
  C:36CAH         LINE#         453
  C:36DAH         LINE#         454
  C:36EAH         LINE#         455
  C:36FAH         LINE#         456
  C:370AH         LINE#         457
  C:371AH         LINE#         459
  -------         ENDPROC       PROTOCOL_RESETWIFIMODE
  -------         PROC          PROTOCOL_TASK
  -------         DO            
  X:019BH         SYMBOL        dat
  X:019CH         SYMBOL        cmdDeal
  X:01F7H         SYMBOL        checksum
  X:01F8H         SYMBOL        len
  X:01F9H         SYMBOL        cmd
  -------         ENDDO         
  C:2305H         LINE#         462
  C:2305H         LINE#         463
  C:2305H         LINE#         472
  C:2313H         LINE#         474
  C:2331H         LINE#         475
  C:2331H         LINE#         477
  C:2343H         LINE#         478
  C:236AH         LINE#         481
  C:236DH         LINE#         482
  C:236DH         LINE#         483
  C:2374H         LINE#         484
  C:2374H         LINE#         485
  C:237AH         LINE#         486
  C:237FH         LINE#         487
  C:237FH         LINE#         488
  C:2381H         LINE#         489
  C:2382H         LINE#         490
  C:2386H         LINE#         491
  C:2386H         LINE#         492
  C:2388H         LINE#         494
  C:2388H         LINE#         495
  C:2388H         LINE#         496
  C:2388H         LINE#         497
  C:238BH         LINE#         499
  C:238BH         LINE#         500
  C:239FH         LINE#         501
  C:23A5H         LINE#         503
  C:23ABH         LINE#         505
  C:23B0H         LINE#         506
  C:23B0H         LINE#         507
  C:23B8H         LINE#         508
BL51 BANKED LINKER/LOCATER V6.22                                                      10/17/2015  10:29:03  PAGE 57


  C:23BBH         LINE#         509
  C:23C3H         LINE#         510
  C:23C3H         LINE#         511
  C:23D3H         LINE#         512
  C:23D3H         LINE#         513
  C:23E7H         LINE#         514
  C:23F5H         LINE#         515
  C:23F7H         LINE#         516
  C:23FFH         LINE#         517
  C:23FFH         LINE#         518
  C:2408H         LINE#         519
  C:240BH         LINE#         520
  C:240DH         LINE#         521
  C:2411H         LINE#         522
  C:2411H         LINE#         523
  C:241AH         LINE#         524
  C:2432H         LINE#         525
  C:2434H         LINE#         527
  C:2434H         LINE#         529
  C:2434H         LINE#         530
  C:2436H         LINE#         532
  C:2436H         LINE#         534
  C:2445H         LINE#         535
  C:2445H         LINE#         537
  C:2447H         LINE#         538
  C:244DH         LINE#         540
  C:244DH         LINE#         541
  C:244DH         LINE#         542
  C:2469H         LINE#         543
  C:2469H         LINE#         545
  C:248FH         LINE#         548
  C:248FH         LINE#         550
  C:249BH         LINE#         551
  C:249BH         LINE#         553
  C:249DH         LINE#         554
  C:24A2H         LINE#         555
  C:24A2H         LINE#         556
  C:24A2H         LINE#         557
  C:24A5H         LINE#         558
  -------         ENDPROC       PROTOCOL_TASK
  -------         ENDMOD        PROTOCOL

  -------         MODULE        UART
  C:0000H         SYMBOL        _ICE_DUMMY_
  C:0026H         PUBLIC        Uart_SendStartup
  C:496DH         PUBLIC        Uart_MemoryInit
  X:006AH         PUBLIC        Rx_Timeout
  X:006BH         PUBLIC        Tx_Timeout
  X:006CH         PUBLIC        Rx_Queue
  X:006FH         PUBLIC        Tx_Queue
  D:00F5H         PUBLIC        USI1DR
  B:0022H.7       PUBLIC        Rx_QueueDataExist
  X:0072H         PUBLIC        Rx_Buf
  X:00A5H         PUBLIC        Tx_Buf
  C:503AH         PUBLIC        Uart_RxDatsDeal
  B:0023H.0       PUBLIC        Tx_Busy
  D:00EAH         PUBLIC        USI1CR2
BL51 BANKED LINKER/LOCATER V6.22                                                      10/17/2015  10:29:03  PAGE 58


  -------         PROC          UART_MEMORYINIT
  -------         DO            
  X:0000H         SYMBOL        Rx_queue
  X:0035H         SYMBOL        Tx_queue
  -------         ENDDO         
  C:496DH         LINE#         15
  C:496DH         LINE#         16
  C:496DH         LINE#         20
  C:497EH         LINE#         21
  C:4981H         LINE#         23
  C:4992H         LINE#         24
  C:4995H         LINE#         26
  C:499AH         LINE#         27
  C:499CH         LINE#         29
  C:499EH         LINE#         30
  C:49A0H         LINE#         31
  -------         ENDPROC       UART_MEMORYINIT
  -------         PROC          UART_SENDSTARTUP
  -------         DO            
  D:0007H         SYMBOL        len
  -------         ENDDO         
  C:0026H         LINE#         33
  C:0026H         LINE#         34
  C:0026H         LINE#         37
  C:0029H         LINE#         38
  C:0029H         LINE#         39
  C:0037H         LINE#         41
  C:003DH         LINE#         42
  C:003EH         LINE#         44
  C:003EH         LINE#         45
  C:0042H         LINE#         46
  C:0042H         LINE#         47
  C:0052H         LINE#         48
  C:0054H         LINE#         50
  C:0054H         LINE#         51
  C:0064H         LINE#         52
  C:0066H         LINE#         53
  C:0066H         LINE#         55
  C:0069H         LINE#         56
  C:0069H         LINE#         57
  -------         ENDPROC       UART_SENDSTARTUP
  -------         PROC          UART_RXDATSDEAL
  C:503AH         LINE#         59
  C:503AH         LINE#         60
  C:503AH         LINE#         61
  C:503DH         LINE#         62
  C:503DH         LINE#         63
  C:5040H         LINE#         64
  C:5042H         LINE#         65
  C:5042H         LINE#         66
  -------         ENDPROC       UART_RXDATSDEAL
  -------         ENDMOD        UART

  -------         MODULE        FSM
  C:0000H         SYMBOL        _ICE_DUMMY_
  C:00A2H         PUBLIC        Task_DoNothing
  X:01FDH         PUBLIC        currentState
BL51 BANKED LINKER/LOCATER V6.22                                                      10/17/2015  10:29:03  PAGE 59


  C:4CA4H         SYMBOL        doNothing
  C:45F1H         PUBLIC        _State_TransitionTo
  -------         PROC          TASK_DONOTHING
  C:00A2H         LINE#         3
  -------         ENDPROC       TASK_DONOTHING
  -------         PROC          _STATE_TRANSITIONTO
  X:01A0H         SYMBOL        state
  B:0020H.4       SYMBOL        desStateEnterEventEnable
  B:0020H.5       SYMBOL        currentStateExitEventEnable
  C:45F1H         LINE#         20
  C:45F9H         LINE#         23
  C:45F9H         LINE#         25
  C:45FCH         LINE#         26
  C:45FCH         LINE#         27
  C:4616H         LINE#         28
  C:4616H         LINE#         31
  C:4625H         LINE#         34
  C:4628H         LINE#         35
  C:4628H         LINE#         36
  C:4642H         LINE#         37
  C:4642H         LINE#         38
  -------         ENDPROC       _STATE_TRANSITIONTO
  -------         ENDMOD        FSM

  -------         MODULE        STATE_TEST
  C:0000H         SYMBOL        _ICE_DUMMY_
  C:5095H         SYMBOL        _enterEventDeal
  C:508FH         SYMBOL        _keyActionDeal
  C:4CBFH         PUBLIC        State_Test
  C:5096H         SYMBOL        _exitEventDeal
  C:5091H         SYMBOL        _timeTick
  C:5093H         SYMBOL        _irDataDeal
  C:5090H         SYMBOL        _taskExe
  C:5092H         SYMBOL        _motorCtr
  C:5094H         SYMBOL        _rxDataDeal
  C:344DH         SYMBOL        _displayControl
  -------         PROC          _KEYACTIONDEAL
  C:508FH         LINE#         4
  C:508FH         LINE#         5
  C:508FH         LINE#         7
  -------         ENDPROC       _KEYACTIONDEAL
  -------         PROC          _DISPLAYCONTROL
  C:344DH         LINE#         9
  C:344DH         LINE#         10
  C:344DH         LINE#         11
  C:3450H         LINE#         12
  C:3457H         LINE#         13
  C:345EH         LINE#         15
  C:346CH         LINE#         16
  C:346CH         LINE#         17
  C:347AH         LINE#         18
  C:347AH         LINE#         20
  C:3488H         LINE#         21
  C:3496H         LINE#         30
  C:34A2H         LINE#         31
  C:34A9H         LINE#         32
  C:34B7H         LINE#         33
BL51 BANKED LINKER/LOCATER V6.22                                                      10/17/2015  10:29:03  PAGE 60


  C:34BEH         LINE#         34
  C:34CCH         LINE#         35
  C:34D6H         LINE#         36
  C:34DDH         LINE#         37
  C:34E4H         LINE#         38
  C:34E7H         LINE#         39
  C:34EAH         LINE#         40
  C:34EDH         LINE#         41
  C:34F0H         LINE#         44
  C:34F7H         LINE#         45
  C:34FEH         LINE#         46
  C:350DH         LINE#         48
  C:3517H         LINE#         50
  C:351CH         LINE#         52
  C:3521H         LINE#         54
  C:3536H         LINE#         56
  C:3539H         LINE#         57
  C:3539H         LINE#         58
  C:3540H         LINE#         59
  C:3540H         LINE#         61
  C:3546H         LINE#         62
  -------         ENDPROC       _DISPLAYCONTROL
  -------         PROC          _TASKEXE
  C:5090H         LINE#         64
  C:5090H         LINE#         65
  C:5090H         LINE#         67
  -------         ENDPROC       _TASKEXE
  -------         PROC          _TIMETICK
  C:5091H         LINE#         70
  C:5091H         LINE#         71
  C:5091H         LINE#         73
  -------         ENDPROC       _TIMETICK
  -------         PROC          _MOTORCTR
  C:5092H         LINE#         76
  C:5092H         LINE#         77
  C:5092H         LINE#         79
  -------         ENDPROC       _MOTORCTR
  -------         PROC          _IRDATADEAL
  C:5093H         LINE#         82
  C:5093H         LINE#         83
  C:5093H         LINE#         89
  -------         ENDPROC       _IRDATADEAL
  -------         PROC          _RXDATADEAL
  C:5094H         LINE#         92
  C:5094H         LINE#         93
  C:5094H         LINE#         95
  -------         ENDPROC       _RXDATADEAL
  -------         PROC          _ENTEREVENTDEAL
  C:5095H         LINE#         97
  C:5095H         LINE#         98
  C:5095H         LINE#         100
  -------         ENDPROC       _ENTEREVENTDEAL
  -------         PROC          _EXITEVENTDEAL
  C:5096H         LINE#         102
  C:5096H         LINE#         103
  C:5096H         LINE#         105
  -------         ENDPROC       _EXITEVENTDEAL
BL51 BANKED LINKER/LOCATER V6.22                                                      10/17/2015  10:29:03  PAGE 61


  -------         ENDMOD        STATE_TEST

  -------         MODULE        STATE_STARTUP
  C:0000H         SYMBOL        _ICE_DUMMY_
  C:4FE1H         SYMBOL        _enterEventDeal
  C:5097H         SYMBOL        _keyActionDeal
  C:509BH         SYMBOL        _exitEventDeal
  C:4E1AH         SYMBOL        _timeTick
  C:5099H         SYMBOL        _irDataDeal
  C:5098H         SYMBOL        _taskExe
  C:507AH         SYMBOL        _motorCtr
  C:509AH         SYMBOL        _rxDataDeal
  C:5013H         SYMBOL        _displayControl
  C:4CDAH         PUBLIC        State_Startup
  -------         PROC          _KEYACTIONDEAL
  C:5097H         LINE#         4
  C:5097H         LINE#         5
  C:5097H         LINE#         7
  -------         ENDPROC       _KEYACTIONDEAL
  -------         PROC          _DISPLAYCONTROL
  C:5013H         LINE#         9
  C:5013H         LINE#         10
  C:5013H         LINE#         12
  C:5019H         LINE#         13
  -------         ENDPROC       _DISPLAYCONTROL
  -------         PROC          _TASKEXE
  C:5098H         LINE#         16
  C:5098H         LINE#         17
  C:5098H         LINE#         19
  -------         ENDPROC       _TASKEXE
  -------         PROC          _TIMETICK
  C:4E1AH         LINE#         22
  C:4E1AH         LINE#         23
  C:4E1AH         LINE#         24
  C:4E20H         LINE#         25
  C:4E26H         LINE#         26
  C:4E26H         LINE#         27
  C:4E31H         LINE#         28
  C:4E31H         LINE#         29
  -------         ENDPROC       _TIMETICK
  -------         PROC          _MOTORCTR
  C:507AH         LINE#         32
  C:507AH         LINE#         33
  C:507AH         LINE#         34
  -------         ENDPROC       _MOTORCTR
  -------         PROC          _IRDATADEAL
  C:5099H         LINE#         38
  C:5099H         LINE#         39
  C:5099H         LINE#         41
  -------         ENDPROC       _IRDATADEAL
  -------         PROC          _RXDATADEAL
  C:509AH         LINE#         44
  C:509AH         LINE#         45
  C:509AH         LINE#         47
  -------         ENDPROC       _RXDATADEAL
  -------         PROC          _ENTEREVENTDEAL
  C:4FE1H         LINE#         49
BL51 BANKED LINKER/LOCATER V6.22                                                      10/17/2015  10:29:03  PAGE 62


  C:4FE1H         LINE#         50
  C:4FE1H         LINE#         51
  C:4FE6H         LINE#         53
  C:4FECH         LINE#         54
  C:4FEEH         LINE#         55
  -------         ENDPROC       _ENTEREVENTDEAL
  -------         PROC          _EXITEVENTDEAL
  C:509BH         LINE#         57
  C:509BH         LINE#         58
  C:509BH         LINE#         60
  -------         ENDPROC       _EXITEVENTDEAL
  -------         ENDMOD        STATE_STARTUP

  -------         MODULE        STATE_STANDBY
  C:0000H         SYMBOL        _ICE_DUMMY_
  C:4937H         SYMBOL        _enterEventDeal
  C:304DH         SYMBOL        _keyActionDeal
  C:509EH         SYMBOL        _exitEventDeal
  C:2C2CH         SYMBOL        _timeTick
  C:2B1DH         SYMBOL        _irDataDeal
  C:509CH         SYMBOL        _taskExe
  X:01FFH         SYMBOL        NHVMode_countdown
  C:4CF5H         PUBLIC        State_Standby
  C:507DH         SYMBOL        _motorCtr
  C:509DH         SYMBOL        _rxDataDeal
  C:314FH         SYMBOL        _displayControl
  X:0200H         SYMBOL        wifiResetCmdDelay
  B:0023H.5       SYMBOL        remoteTimerChanged
  -------         PROC          _KEYACTIONDEAL
  C:304DH         LINE#         8
  C:304DH         LINE#         9
  C:304DH         LINE#         11
  C:3053H         LINE#         12
  C:3053H         LINE#         13
  C:3056H         LINE#         14
  C:3059H         LINE#         16
  C:3059H         LINE#         17
  C:305FH         LINE#         19
  C:3065H         LINE#         20
  C:3065H         LINE#         22
  C:3065H         LINE#         25
  C:3068H         LINE#         26
  C:3068H         LINE#         27
  C:3073H         LINE#         28
  C:3073H         LINE#         30
  C:3073H         LINE#         31
  C:3073H         LINE#         34
  C:307BH         LINE#         35
  C:307BH         LINE#         37
  C:3082H         LINE#         38
  C:3082H         LINE#         39
  C:308BH         LINE#         40
  C:308FH         LINE#         41
  C:3091H         LINE#         43
  C:3098H         LINE#         44
  C:3098H         LINE#         45
  C:30A1H         LINE#         46
BL51 BANKED LINKER/LOCATER V6.22                                                      10/17/2015  10:29:03  PAGE 63


  C:30A5H         LINE#         47
  C:30A7H         LINE#         49
  C:30B2H         LINE#         50
  C:30B2H         LINE#         51
  C:30BBH         LINE#         52
  C:30BFH         LINE#         53
  C:30BFH         LINE#         54
  C:30C1H         LINE#         55
  C:30C9H         LINE#         56
  C:30C9H         LINE#         58
  C:30D0H         LINE#         59
  C:30D0H         LINE#         60
  C:30D9H         LINE#         61
  C:30DDH         LINE#         62
  C:30DFH         LINE#         64
  C:30E6H         LINE#         65
  C:30E6H         LINE#         66
  C:30EFH         LINE#         67
  C:30F3H         LINE#         68
  C:30F5H         LINE#         70
  C:30FCH         LINE#         71
  C:30FCH         LINE#         72
  C:3105H         LINE#         73
  C:3110H         LINE#         74
  C:3110H         LINE#         75
  C:3118H         LINE#         76
  C:3118H         LINE#         78
  C:311BH         LINE#         79
  C:3120H         LINE#         81
  C:3120H         LINE#         82
  C:3120H         LINE#         83
  C:3122H         LINE#         84
  C:312AH         LINE#         85
  C:312AH         LINE#         87
  C:3131H         LINE#         88
  C:3131H         LINE#         89
  C:3133H         LINE#         90
  C:3139H         LINE#         92
  C:3139H         LINE#         93
  C:313BH         LINE#         94
  C:3142H         LINE#         95
  C:3142H         LINE#         96
  C:3145H         LINE#         98
  C:314EH         LINE#         99
  C:314EH         LINE#         100
  C:314EH         LINE#         101
  -------         ENDPROC       _KEYACTIONDEAL
  -------         PROC          _DISPLAYCONTROL
  C:314FH         LINE#         103
  C:314FH         LINE#         104
  C:314FH         LINE#         105
  C:3155H         LINE#         106
  C:3155H         LINE#         107
  C:315DH         LINE#         109
  C:315DH         LINE#         111
  C:3164H         LINE#         113
  C:316BH         LINE#         114
BL51 BANKED LINKER/LOCATER V6.22                                                      10/17/2015  10:29:03  PAGE 64


  C:3172H         LINE#         115
  C:3179H         LINE#         116
  C:3180H         LINE#         119
  C:3186H         LINE#         122
  C:3195H         LINE#         124
  C:3198H         LINE#         125
  C:3198H         LINE#         126
  C:319FH         LINE#         129
  C:31A2H         LINE#         130
  C:31A2H         LINE#         131
  C:31B0H         LINE#         132
  C:31B0H         LINE#         133
  C:31B0H         LINE#         135
  C:31B8H         LINE#         136
  C:31B8H         LINE#         137
  C:31C4H         LINE#         138
  C:31CBH         LINE#         139
  C:31DAH         LINE#         140
  C:31DAH         LINE#         141
  C:31DAH         LINE#         142
  C:31E1H         LINE#         143
  C:31E8H         LINE#         144
  C:31E9H         LINE#         145
  C:31E9H         LINE#         146
  C:31F0H         LINE#         147
  C:31F3H         LINE#         148
  C:31F4H         LINE#         149
  C:31F4H         LINE#         150
  C:31F8H         LINE#         151
  C:31F8H         LINE#         152
  C:31FAH         LINE#         153
  C:31FAH         LINE#         154
  C:31FAH         LINE#         155
  C:3201H         LINE#         156
  C:3208H         LINE#         157
  C:320BH         LINE#         158
  C:320EH         LINE#         159
  C:3211H         LINE#         160
  C:3211H         LINE#         161
  C:3213H         LINE#         162
  C:3213H         LINE#         163
  C:3213H         LINE#         165
  C:3213H         LINE#         167
  C:3216H         LINE#         168
  C:3216H         LINE#         169
  C:321EH         LINE#         170
  C:321EH         LINE#         171
  C:322AH         LINE#         172
  C:322DH         LINE#         173
  C:322DH         LINE#         174
  C:3234H         LINE#         175
  C:3235H         LINE#         176
  C:323DH         LINE#         177
  C:323DH         LINE#         178
  C:3244H         LINE#         179
  C:3245H         LINE#         180
  C:3249H         LINE#         181
BL51 BANKED LINKER/LOCATER V6.22                                                      10/17/2015  10:29:03  PAGE 65


  C:3249H         LINE#         182
  C:3250H         LINE#         183
  C:3250H         LINE#         184
  C:3250H         LINE#         185
  C:3250H         LINE#         186
  C:3250H         LINE#         187
  -------         ENDPROC       _DISPLAYCONTROL
  -------         PROC          _TASKEXE
  C:509CH         LINE#         189
  C:509CH         LINE#         190
  C:509CH         LINE#         192
  -------         ENDPROC       _TASKEXE
  -------         PROC          _TIMETICK
  C:2C2CH         LINE#         195
  C:2C2CH         LINE#         196
  C:2C2CH         LINE#         197
  C:2C32H         LINE#         198
  C:2C32H         LINE#         199
  C:2C34H         LINE#         200
  C:2C37H         LINE#         201
  C:2C37H         LINE#         202
  C:2C3AH         LINE#         203
  C:2C3AH         LINE#         204
  C:2C3AH         LINE#         206
  C:2C40H         LINE#         207
  C:2C40H         LINE#         208
  C:2C46H         LINE#         209
  C:2C46H         LINE#         210
  C:2C48H         LINE#         211
  C:2C48H         LINE#         213
  C:2C4EH         LINE#         214
  C:2C4EH         LINE#         215
  C:2C50H         LINE#         216
  C:2C53H         LINE#         217
  C:2C53H         LINE#         218
  C:2C55H         LINE#         219
  C:2C55H         LINE#         220
  C:2C55H         LINE#         221
  C:2C55H         LINE#         224
  C:2C5EH         LINE#         225
  C:2C5EH         LINE#         226
  C:2C60H         LINE#         229
  C:2C67H         LINE#         230
  C:2C67H         LINE#         231
  C:2C73H         LINE#         232
  C:2C73H         LINE#         233
  C:2CB4H         LINE#         235
  C:2CB4H         LINE#         236
  C:2CB4H         LINE#         237
  C:2CB4H         LINE#         238
  C:2CB4H         LINE#         239
  C:2CB4H         LINE#         240
  C:2CB6H         LINE#         242
  C:2CB6H         LINE#         244
  C:2CBCH         LINE#         245
  C:2CBCH         LINE#         246
  C:2CC4H         LINE#         247
BL51 BANKED LINKER/LOCATER V6.22                                                      10/17/2015  10:29:03  PAGE 66


  C:2CC4H         LINE#         248
  C:2D20H         LINE#         250
  C:2D20H         LINE#         252
  C:2D25H         LINE#         254
  C:2D2EH         LINE#         255
  C:2D39H         LINE#         256
  C:2D39H         LINE#         257
  C:2D39H         LINE#         258
  C:2D39H         LINE#         259
  C:2D39H         LINE#         260
  C:2D39H         LINE#         261
  -------         ENDPROC       _TIMETICK
  -------         PROC          _MOTORCTR
  C:507DH         LINE#         264
  C:507DH         LINE#         265
  C:507DH         LINE#         266
  -------         ENDPROC       _MOTORCTR
  -------         PROC          _IRDATADEAL
  C:2B1DH         LINE#         270
  C:2B1DH         LINE#         271
  C:2B1DH         LINE#         272
  C:2B23H         LINE#         273
  C:2B23H         LINE#         274
  C:2B27H         LINE#         276
  C:2B27H         LINE#         277
  C:2B2DH         LINE#         279
  C:2B38H         LINE#         280
  C:2B38H         LINE#         281
  C:2B41H         LINE#         282
  C:2B4CH         LINE#         283
  C:2B4CH         LINE#         284
  C:2B5AH         LINE#         285
  C:2B5AH         LINE#         286
  C:2B61H         LINE#         287
  C:2B61H         LINE#         288
  C:2B64H         LINE#         289
  C:2B66H         LINE#         291
  C:2B66H         LINE#         292
  C:2B6DH         LINE#         293
  C:2B6DH         LINE#         295
  C:2B75H         LINE#         296
  C:2B75H         LINE#         297
  C:2B78H         LINE#         298
  C:2B86H         LINE#         299
  C:2B86H         LINE#         300
  C:2B90H         LINE#         301
  C:2B90H         LINE#         302
  C:2B96H         LINE#         303
  C:2B96H         LINE#         304
  C:2B9CH         LINE#         305
  C:2B9FH         LINE#         307
  C:2B9FH         LINE#         308
  C:2BA6H         LINE#         309
  C:2BA8H         LINE#         310
  C:2BA8H         LINE#         312
  C:2BA8H         LINE#         313
  C:2BA8H         LINE#         314
BL51 BANKED LINKER/LOCATER V6.22                                                      10/17/2015  10:29:03  PAGE 67


  C:2BAAH         LINE#         315
  C:2BB8H         LINE#         316
  C:2BB8H         LINE#         317
  C:2BBFH         LINE#         318
  C:2BBFH         LINE#         319
  C:2BC7H         LINE#         320
  C:2BC7H         LINE#         321
  C:2BCDH         LINE#         322
  C:2BCFH         LINE#         324
  C:2BCFH         LINE#         325
  C:2BD8H         LINE#         326
  C:2BDAH         LINE#         327
  C:2BDAH         LINE#         328
  C:2BDAH         LINE#         329
  C:2BDAH         LINE#         330
  C:2BDCH         LINE#         331
  C:2BEAH         LINE#         332
  C:2BEAH         LINE#         333
  C:2BF1H         LINE#         334
  C:2BF1H         LINE#         335
  C:2BF9H         LINE#         336
  C:2BF9H         LINE#         337
  C:2BFFH         LINE#         338
  C:2C01H         LINE#         340
  C:2C01H         LINE#         341
  C:2C0AH         LINE#         342
  C:2C0CH         LINE#         343
  C:2C0CH         LINE#         344
  C:2C0CH         LINE#         345
  C:2C0CH         LINE#         346
  C:2C0EH         LINE#         347
  C:2C1AH         LINE#         348
  C:2C1AH         LINE#         349
  C:2C1CH         LINE#         350
  C:2C22H         LINE#         352
  C:2C2BH         LINE#         353
  C:2C2BH         LINE#         354
  -------         ENDPROC       _IRDATADEAL
  -------         PROC          _RXDATADEAL
  C:509DH         LINE#         357
  C:509DH         LINE#         358
  C:509DH         LINE#         360
  -------         ENDPROC       _RXDATADEAL
  -------         PROC          _ENTEREVENTDEAL
  C:4937H         LINE#         362
  C:4937H         LINE#         363
  C:4937H         LINE#         364
  C:493CH         LINE#         366
  C:4940H         LINE#         368
  C:4942H         LINE#         369
  C:4948H         LINE#         370
  C:494EH         LINE#         372
  C:4950H         LINE#         374
  C:4952H         LINE#         376
  C:4958H         LINE#         379
  C:495FH         LINE#         380
  C:495FH         LINE#         381
BL51 BANKED LINKER/LOCATER V6.22                                                      10/17/2015  10:29:03  PAGE 68


  C:4962H         LINE#         382
  C:4962H         LINE#         383
  C:4965H         LINE#         384
  C:4965H         LINE#         385
  C:4965H         LINE#         387
  C:496CH         LINE#         388
  -------         ENDPROC       _ENTEREVENTDEAL
  -------         PROC          _EXITEVENTDEAL
  C:509EH         LINE#         390
  C:509EH         LINE#         391
  C:509EH         LINE#         393
  -------         ENDPROC       _EXITEVENTDEAL
  -------         ENDMOD        STATE_STANDBY

  -------         MODULE        STATE_CLOCKSETTING
  C:0000H         SYMBOL        _ICE_DUMMY_
  C:501DH         SYMBOL        _enterEventDeal
  X:0202H         SYMBOL        clockSettingItem
  C:4126H         SYMBOL        _keyActionDeal
  C:50A2H         SYMBOL        _exitEventDeal
  C:4E32H         SYMBOL        _timeTick
  C:50A0H         SYMBOL        _irDataDeal
  C:4D10H         PUBLIC        State_ClockSetting
  C:509FH         SYMBOL        _taskExe
  C:5080H         SYMBOL        _motorCtr
  C:50A1H         SYMBOL        _rxDataDeal
  C:4AF6H         SYMBOL        _displayControl
  C:4F86H         SYMBOL        hourDec
  C:4F96H         SYMBOL        minDec
  C:4FB5H         SYMBOL        hourInc
  C:4FC4H         SYMBOL        minInc
  -------         PROC          HOURINC
  C:4FB5H         LINE#         7
  C:4FB5H         LINE#         8
  C:4FB5H         LINE#         9
  C:4FBBH         LINE#         10
  C:4FC1H         LINE#         11
  C:4FC1H         LINE#         12
  C:4FC3H         LINE#         13
  C:4FC3H         LINE#         14
  -------         ENDPROC       HOURINC
  -------         PROC          HOURDEC
  C:4F86H         LINE#         16
  C:4F86H         LINE#         17
  C:4F86H         LINE#         18
  C:4F8CH         LINE#         19
  C:4F8CH         LINE#         20
  C:4F8EH         LINE#         21
  C:4F8FH         LINE#         23
  C:4F8FH         LINE#         24
  C:4F95H         LINE#         25
  C:4F95H         LINE#         26
  -------         ENDPROC       HOURDEC
  -------         PROC          MININC
  C:4FC4H         LINE#         28
  C:4FC4H         LINE#         29
  C:4FC4H         LINE#         30
BL51 BANKED LINKER/LOCATER V6.22                                                      10/17/2015  10:29:03  PAGE 69


  C:4FCAH         LINE#         31
  C:4FD0H         LINE#         32
  C:4FD0H         LINE#         33
  C:4FD2H         LINE#         34
  C:4FD2H         LINE#         35
  -------         ENDPROC       MININC
  -------         PROC          MINDEC
  C:4F96H         LINE#         37
  C:4F96H         LINE#         38
  C:4F96H         LINE#         39
  C:4F9CH         LINE#         40
  C:4F9CH         LINE#         41
  C:4F9EH         LINE#         42
  C:4F9FH         LINE#         44
  C:4F9FH         LINE#         45
  C:4FA5H         LINE#         46
  C:4FA5H         LINE#         47
  -------         ENDPROC       MINDEC
  -------         PROC          _KEYACTIONDEAL
  C:4126H         LINE#         51
  C:4126H         LINE#         52
  C:4126H         LINE#         53
  C:412BH         LINE#         55
  C:4139H         LINE#         56
  C:4139H         LINE#         57
  C:4141H         LINE#         58
  C:4141H         LINE#         59
  C:4148H         LINE#         60
  C:4149H         LINE#         62
  C:4149H         LINE#         64
  C:4149H         LINE#         65
  C:414FH         LINE#         66
  C:4155H         LINE#         67
  C:4155H         LINE#         68
  C:4157H         LINE#         69
  C:4157H         LINE#         70
  C:4157H         LINE#         71
  C:4159H         LINE#         72
  C:415DH         LINE#         73
  C:415DH         LINE#         74
  C:4164H         LINE#         75
  C:4164H         LINE#         76
  C:4167H         LINE#         78
  C:4167H         LINE#         79
  C:4169H         LINE#         80
  C:416EH         LINE#         81
  C:416EH         LINE#         82
  C:4171H         LINE#         84
  C:4171H         LINE#         85
  C:4171H         LINE#         86
  C:4173H         LINE#         87
  C:417BH         LINE#         88
  C:417BH         LINE#         89
  C:4182H         LINE#         90
  C:4182H         LINE#         91
  C:4185H         LINE#         93
  C:4185H         LINE#         94
BL51 BANKED LINKER/LOCATER V6.22                                                      10/17/2015  10:29:03  PAGE 70


  C:4187H         LINE#         95
  C:418BH         LINE#         96
  C:418BH         LINE#         97
  C:418EH         LINE#         99
  C:4193H         LINE#         100
  C:4193H         LINE#         101
  C:4193H         LINE#         103
  C:4193H         LINE#         105
  C:4193H         LINE#         107
  C:419AH         LINE#         108
  C:419AH         LINE#         109
  C:41A3H         LINE#         110
  C:41A3H         LINE#         111
  C:41A3H         LINE#         112
  -------         ENDPROC       _KEYACTIONDEAL
  -------         PROC          _DISPLAYCONTROL
  C:4AF6H         LINE#         114
  C:4AF6H         LINE#         115
  C:4AF6H         LINE#         116
  C:4AF9H         LINE#         117
  C:4AF9H         LINE#         118
  C:4B00H         LINE#         119
  C:4B00H         LINE#         122
  -------         ENDPROC       _DISPLAYCONTROL
  -------         PROC          _TASKEXE
  C:509FH         LINE#         126
  C:509FH         LINE#         127
  C:509FH         LINE#         129
  -------         ENDPROC       _TASKEXE
  -------         PROC          _TIMETICK
  C:4E32H         LINE#         132
  C:4E32H         LINE#         133
  C:4E32H         LINE#         134
  C:4E38H         LINE#         135
  C:4E3EH         LINE#         136
  C:4E3EH         LINE#         137
  C:4E49H         LINE#         138
  C:4E49H         LINE#         139
  -------         ENDPROC       _TIMETICK
  -------         PROC          _MOTORCTR
  C:5080H         LINE#         142
  C:5080H         LINE#         143
  C:5080H         LINE#         144
  -------         ENDPROC       _MOTORCTR
  -------         PROC          _IRDATADEAL
  C:50A0H         LINE#         148
  C:50A0H         LINE#         149
  C:50A0H         LINE#         151
  -------         ENDPROC       _IRDATADEAL
  -------         PROC          _RXDATADEAL
  C:50A1H         LINE#         154
  C:50A1H         LINE#         155
  C:50A1H         LINE#         157
  -------         ENDPROC       _RXDATADEAL
  -------         PROC          _ENTEREVENTDEAL
  C:501DH         LINE#         159
  C:501DH         LINE#         160
BL51 BANKED LINKER/LOCATER V6.22                                                      10/17/2015  10:29:03  PAGE 71


  C:501DH         LINE#         161
  C:5022H         LINE#         162
  C:5026H         LINE#         163
  -------         ENDPROC       _ENTEREVENTDEAL
  -------         PROC          _EXITEVENTDEAL
  C:50A2H         LINE#         165
  C:50A2H         LINE#         166
  C:50A2H         LINE#         168
  -------         ENDPROC       _EXITEVENTDEAL
  -------         ENDMOD        STATE_CLOCKSETTING

  -------         MODULE        STATE_ECHECK
  C:0000H         SYMBOL        _ICE_DUMMY_
  C:5053H         SYMBOL        _enterEventDeal
  C:4888H         SYMBOL        _keyActionDeal
  C:4D2BH         PUBLIC        State_ECheck
  C:50A6H         SYMBOL        _exitEventDeal
  C:4E4AH         SYMBOL        _timeTick
  C:50A4H         SYMBOL        _irDataDeal
  C:50A3H         SYMBOL        _taskExe
  C:5083H         SYMBOL        _motorCtr
  C:50A5H         SYMBOL        _rxDataDeal
  C:4B4DH         SYMBOL        _displayControl
  B:0023H.6       SYMBOL        disEn
  -------         PROC          _KEYACTIONDEAL
  C:4888H         LINE#         5
  C:4888H         LINE#         6
  C:4888H         LINE#         7
  C:488DH         LINE#         9
  C:4894H         LINE#         10
  C:4894H         LINE#         11
  C:489CH         LINE#         12
  C:489CH         LINE#         13
  C:48A5H         LINE#         15
  C:48A7H         LINE#         16
  C:48A9H         LINE#         17
  C:48A9H         LINE#         18
  C:48AAH         LINE#         19
  C:48B1H         LINE#         20
  C:48B1H         LINE#         21
  C:48B8H         LINE#         22
  C:48B8H         LINE#         23
  C:48C1H         LINE#         24
  C:48C3H         LINE#         25
  C:48C3H         LINE#         26
  C:48C3H         LINE#         27
  -------         ENDPROC       _KEYACTIONDEAL
  -------         PROC          _DISPLAYCONTROL
  C:4B4DH         LINE#         29
  C:4B4DH         LINE#         30
  C:4B4DH         LINE#         31
  C:4B50H         LINE#         32
  C:4B50H         LINE#         33
  C:4B5EH         LINE#         34
  C:4B5EH         LINE#         36
  -------         ENDPROC       _DISPLAYCONTROL
  -------         PROC          _TASKEXE
BL51 BANKED LINKER/LOCATER V6.22                                                      10/17/2015  10:29:03  PAGE 72


  C:50A3H         LINE#         39
  C:50A3H         LINE#         40
  C:50A3H         LINE#         42
  -------         ENDPROC       _TASKEXE
  -------         PROC          _TIMETICK
  C:4E4AH         LINE#         45
  C:4E4AH         LINE#         46
  C:4E4AH         LINE#         48
  C:4E50H         LINE#         49
  C:4E56H         LINE#         50
  C:4E56H         LINE#         51
  C:4E61H         LINE#         52
  C:4E61H         LINE#         53
  -------         ENDPROC       _TIMETICK
  -------         PROC          _MOTORCTR
  C:5083H         LINE#         56
  C:5083H         LINE#         57
  C:5083H         LINE#         58
  -------         ENDPROC       _MOTORCTR
  -------         PROC          _IRDATADEAL
  C:50A4H         LINE#         62
  C:50A4H         LINE#         63
  C:50A4H         LINE#         65
  -------         ENDPROC       _IRDATADEAL
  -------         PROC          _RXDATADEAL
  C:50A5H         LINE#         68
  C:50A5H         LINE#         69
  C:50A5H         LINE#         71
  -------         ENDPROC       _RXDATADEAL
  -------         PROC          _ENTEREVENTDEAL
  C:5053H         LINE#         73
  C:5053H         LINE#         74
  C:5053H         LINE#         75
  C:5058H         LINE#         76
  C:505AH         LINE#         77
  -------         ENDPROC       _ENTEREVENTDEAL
  -------         PROC          _EXITEVENTDEAL
  C:50A6H         LINE#         79
  C:50A6H         LINE#         80
  C:50A6H         LINE#         82
  -------         ENDPROC       _EXITEVENTDEAL
  -------         ENDMOD        STATE_ECHECK

  -------         MODULE        STATE_TIMERSETTING
  C:0000H         SYMBOL        _ICE_DUMMY_
  C:5027H         SYMBOL        _enterEventDeal
  C:1E02H         SYMBOL        _keyActionDeal
  X:0203H         SYMBOL        timerSettingItem
  C:50AAH         SYMBOL        _exitEventDeal
  C:4E62H         SYMBOL        _timeTick
  C:50A8H         SYMBOL        _irDataDeal
  C:50A7H         SYMBOL        _taskExe
  C:5086H         SYMBOL        _motorCtr
  C:50A9H         SYMBOL        _rxDataDeal
  C:27A0H         SYMBOL        _displayControl
  C:4D46H         PUBLIC        State_TimerSetting
  -------         PROC          _KEYACTIONDEAL
BL51 BANKED LINKER/LOCATER V6.22                                                      10/17/2015  10:29:03  PAGE 73


  -------         DO            
  X:019FH         SYMBOL        tsPtr
  B:0020H.4       SYMBOL        isM
  -------         ENDDO         
  C:1E02H         LINE#         19
  C:1E02H         LINE#         20
  C:1E02H         LINE#         24
  C:1E07H         LINE#         26
  C:1E0DH         LINE#         27
  C:1E0DH         LINE#         29
  C:1E0DH         LINE#         31
  C:1E18H         LINE#         32
  C:1E18H         LINE#         33
  C:1E41H         LINE#         34
  C:1E45H         LINE#         36
  C:1E4CH         LINE#         37
  C:1E4CH         LINE#         38
  C:1E52H         LINE#         39
  C:1E58H         LINE#         40
  C:1E58H         LINE#         41
  C:1E5AH         LINE#         42
  C:1E5AH         LINE#         44
  C:1E5AH         LINE#         45
  C:1E5DH         LINE#         46
  C:1E68H         LINE#         47
  C:1E68H         LINE#         48
  C:1E7BH         LINE#         50
  C:1E7EH         LINE#         51
  C:1E7EH         LINE#         52
  C:1E97H         LINE#         53
  C:1EADH         LINE#         54
  C:1EADH         LINE#         55
  C:1EB8H         LINE#         56
  C:1EB8H         LINE#         57
  C:1EBAH         LINE#         59
  C:1EBAH         LINE#         60
  C:1ED4H         LINE#         61
  C:1EEAH         LINE#         62
  C:1EEAH         LINE#         63
  C:1EF0H         LINE#         64
  C:1EF0H         LINE#         65
  C:1EF0H         LINE#         67
  C:1EF0H         LINE#         68
  C:1EF3H         LINE#         69
  C:1EFBH         LINE#         70
  C:1EFBH         LINE#         71
  C:1F0EH         LINE#         73
  C:1F11H         LINE#         74
  C:1F11H         LINE#         75
  C:1F24H         LINE#         76
  C:1F24H         LINE#         77
  C:1F31H         LINE#         78
  C:1F33H         LINE#         80
  C:1F33H         LINE#         81
  C:1F49H         LINE#         82
  C:1F49H         LINE#         83
  C:1F4BH         LINE#         85
BL51 BANKED LINKER/LOCATER V6.22                                                      10/17/2015  10:29:03  PAGE 74


  C:1F4BH         LINE#         86
  C:1F5EH         LINE#         87
  C:1F5EH         LINE#         88
  C:1F67H         LINE#         89
  C:1F69H         LINE#         91
  C:1F69H         LINE#         92
  C:1F73H         LINE#         93
  C:1F73H         LINE#         94
  C:1F73H         LINE#         96
  C:1F73H         LINE#         97
  C:1F75H         LINE#         98
  C:1F7DH         LINE#         99
  C:1F7DH         LINE#         100
  C:1F86H         LINE#         101
  C:1F86H         LINE#         102
  C:1F9EH         LINE#         103
  C:1F9EH         LINE#         104
  C:1FA1H         LINE#         105
  C:1FA3H         LINE#         107
  C:1FA3H         LINE#         108
  C:1FABH         LINE#         109
  C:1FABH         LINE#         111
  C:1FB4H         LINE#         112
  C:1FB4H         LINE#         113
  C:1FB4H         LINE#         114
  C:1FB4H         LINE#         115
  -------         ENDPROC       _KEYACTIONDEAL
  -------         PROC          _DISPLAYCONTROL
  -------         DO            
  D:0001H         SYMBOL        tsPtr
  B:0020H.4       SYMBOL        isM
  -------         ENDDO         
  C:27A0H         LINE#         117
  C:27A0H         LINE#         118
  C:27A0H         LINE#         122
  C:27A3H         LINE#         123
  C:27A3H         LINE#         124
  C:27AFH         LINE#         125
  C:27B6H         LINE#         126
  C:27BCH         LINE#         127
  C:27BCH         LINE#         128
  C:27C3H         LINE#         129
  C:27CAH         LINE#         130
  C:27CDH         LINE#         132
  C:27D0H         LINE#         133
  C:27D3H         LINE#         134
  C:27D6H         LINE#         135
  C:27D7H         LINE#         138
  C:27D7H         LINE#         140
  C:27DFH         LINE#         141
  C:27DFH         LINE#         142
  C:27E2H         LINE#         143
  C:27E2H         LINE#         144
  C:27EEH         LINE#         145
  C:27F5H         LINE#         146
  C:27F5H         LINE#         148
  C:27FCH         LINE#         149
BL51 BANKED LINKER/LOCATER V6.22                                                      10/17/2015  10:29:03  PAGE 75


  C:27FCH         LINE#         151
  C:27FCH         LINE#         152
  C:281BH         LINE#         153
  C:281FH         LINE#         155
  C:2856H         LINE#         156
  C:2856H         LINE#         157
  C:2856H         LINE#         158
  C:2856H         LINE#         159
  C:2862H         LINE#         160
  C:2866H         LINE#         161
  C:2868H         LINE#         162
  C:2868H         LINE#         163
  C:2868H         LINE#         164
  C:286FH         LINE#         165
  C:2872H         LINE#         166
  C:2874H         LINE#         167
  C:2874H         LINE#         168
  C:2874H         LINE#         169
  C:2880H         LINE#         170
  C:2887H         LINE#         171
  C:2889H         LINE#         172
  C:2889H         LINE#         173
  C:2889H         LINE#         174
  C:2890H         LINE#         175
  C:2893H         LINE#         176
  C:2895H         LINE#         177
  C:2895H         LINE#         178
  C:2895H         LINE#         179
  C:28A1H         LINE#         180
  C:28A8H         LINE#         181
  C:28AAH         LINE#         182
  C:28AAH         LINE#         183
  C:28AAH         LINE#         184
  C:28B1H         LINE#         185
  C:28B4H         LINE#         186
  C:28B4H         LINE#         187
  C:28B4H         LINE#         189
  C:28C1H         LINE#         190
  C:28C1H         LINE#         191
  C:28D5H         LINE#         192
  C:28D7H         LINE#         194
  C:28D7H         LINE#         195
  C:28E7H         LINE#         196
  C:28E7H         LINE#         197
  C:28E7H         LINE#         198
  -------         ENDPROC       _DISPLAYCONTROL
  -------         PROC          _TASKEXE
  C:50A7H         LINE#         200
  C:50A7H         LINE#         201
  C:50A7H         LINE#         203
  -------         ENDPROC       _TASKEXE
  -------         PROC          _TIMETICK
  C:4E62H         LINE#         206
  C:4E62H         LINE#         207
  C:4E62H         LINE#         208
  C:4E68H         LINE#         209
  C:4E6EH         LINE#         210
BL51 BANKED LINKER/LOCATER V6.22                                                      10/17/2015  10:29:03  PAGE 76


  C:4E6EH         LINE#         211
  C:4E79H         LINE#         212
  C:4E79H         LINE#         213
  -------         ENDPROC       _TIMETICK
  -------         PROC          _MOTORCTR
  C:5086H         LINE#         216
  C:5086H         LINE#         217
  C:5086H         LINE#         218
  -------         ENDPROC       _MOTORCTR
  -------         PROC          _IRDATADEAL
  C:50A8H         LINE#         222
  C:50A8H         LINE#         223
  C:50A8H         LINE#         225
  -------         ENDPROC       _IRDATADEAL
  -------         PROC          _RXDATADEAL
  C:50A9H         LINE#         228
  C:50A9H         LINE#         229
  C:50A9H         LINE#         231
  -------         ENDPROC       _RXDATADEAL
  -------         PROC          _ENTEREVENTDEAL
  C:5027H         LINE#         233
  C:5027H         LINE#         234
  C:5027H         LINE#         235
  C:502CH         LINE#         236
  C:5030H         LINE#         237
  -------         ENDPROC       _ENTEREVENTDEAL
  -------         PROC          _EXITEVENTDEAL
  C:50AAH         LINE#         239
  C:50AAH         LINE#         240
  C:50AAH         LINE#         242
  -------         ENDPROC       _EXITEVENTDEAL
  -------         ENDMOD        STATE_TIMERSETTING

  -------         MODULE        STATE_TIMERFNSETTING
  C:0000H         SYMBOL        _ICE_DUMMY_
  C:5070H         SYMBOL        _enterEventDeal
  C:4D61H         PUBLIC        State_TimerFnSetting
  C:4BBEH         SYMBOL        _keyActionDeal
  C:50AEH         SYMBOL        _exitEventDeal
  C:4E7AH         SYMBOL        _timeTick
  C:50ACH         SYMBOL        _irDataDeal
  C:50ABH         SYMBOL        _taskExe
  C:5089H         SYMBOL        _motorCtr
  C:50ADH         SYMBOL        _rxDataDeal
  C:49A1H         SYMBOL        _displayControl
  -------         PROC          _KEYACTIONDEAL
  C:4BBEH         LINE#         4
  C:4BBEH         LINE#         5
  C:4BBEH         LINE#         6
  C:4BC3H         LINE#         8
  C:4BCAH         LINE#         9
  C:4BCAH         LINE#         10
  C:4BD1H         LINE#         11
  C:4BD1H         LINE#         12
  C:4BD3H         LINE#         13
  C:4BDCH         LINE#         14
  C:4BDCH         LINE#         15
BL51 BANKED LINKER/LOCATER V6.22                                                      10/17/2015  10:29:03  PAGE 77


  C:4BDCH         LINE#         16
  -------         ENDPROC       _KEYACTIONDEAL
  -------         PROC          _DISPLAYCONTROL
  C:49A1H         LINE#         18
  C:49A1H         LINE#         19
  C:49A1H         LINE#         20
  C:49ADH         LINE#         21
  C:49B4H         LINE#         22
  C:49BAH         LINE#         23
  C:49BAH         LINE#         24
  C:49C1H         LINE#         25
  C:49C8H         LINE#         26
  C:49CBH         LINE#         28
  C:49CEH         LINE#         29
  C:49D1H         LINE#         30
  C:49D4H         LINE#         31
  C:49D4H         LINE#         32
  -------         ENDPROC       _DISPLAYCONTROL
  -------         PROC          _TASKEXE
  C:50ABH         LINE#         34
  C:50ABH         LINE#         35
  C:50ABH         LINE#         37
  -------         ENDPROC       _TASKEXE
  -------         PROC          _TIMETICK
  C:4E7AH         LINE#         40
  C:4E7AH         LINE#         41
  C:4E7AH         LINE#         42
  C:4E80H         LINE#         43
  C:4E86H         LINE#         44
  C:4E86H         LINE#         45
  C:4E91H         LINE#         46
  C:4E91H         LINE#         47
  -------         ENDPROC       _TIMETICK
  -------         PROC          _MOTORCTR
  C:5089H         LINE#         50
  C:5089H         LINE#         51
  C:5089H         LINE#         52
  -------         ENDPROC       _MOTORCTR
  -------         PROC          _IRDATADEAL
  C:50ACH         LINE#         56
  C:50ACH         LINE#         57
  C:50ACH         LINE#         59
  -------         ENDPROC       _IRDATADEAL
  -------         PROC          _RXDATADEAL
  C:50ADH         LINE#         62
  C:50ADH         LINE#         63
  C:50ADH         LINE#         65
  -------         ENDPROC       _RXDATADEAL
  -------         PROC          _ENTEREVENTDEAL
  C:5070H         LINE#         67
  C:5070H         LINE#         68
  C:5070H         LINE#         69
  C:5075H         LINE#         70
  -------         ENDPROC       _ENTEREVENTDEAL
  -------         PROC          _EXITEVENTDEAL
  C:50AEH         LINE#         72
  C:50AEH         LINE#         73
BL51 BANKED LINKER/LOCATER V6.22                                                      10/17/2015  10:29:03  PAGE 78


  C:50AEH         LINE#         75
  -------         ENDPROC       _EXITEVENTDEAL
  -------         ENDMOD        STATE_TIMERFNSETTING

  -------         MODULE        STATE_TIMERLOOKUP
  C:0000H         SYMBOL        _ICE_DUMMY_
  C:4D7CH         SYMBOL        _enterEventDeal
  C:48C4H         SYMBOL        _keyActionDeal
  C:50B2H         SYMBOL        _exitEventDeal
  C:4E92H         SYMBOL        _timeTick
  C:50B0H         SYMBOL        _irDataDeal
  X:0204H         SYMBOL        timerLookupItem
  C:50AFH         SYMBOL        _taskExe
  C:508CH         SYMBOL        _motorCtr
  C:50B1H         SYMBOL        _rxDataDeal
  C:28E8H         SYMBOL        _displayControl
  C:4A08H         SYMBOL        getNextActiveTimerIndex
  C:4D97H         PUBLIC        State_TimerLookup
  -------         PROC          GETNEXTACTIVETIMERINDEX
  C:4A08H         LINE#         7
  C:4A08H         LINE#         8
  C:4A08H         LINE#         10
  C:4A08H         LINE#         11
  C:4A0EH         LINE#         12
  C:4A15H         LINE#         13
  C:4A15H         LINE#         14
  C:4A15H         LINE#         15
  C:4A15H         LINE#         16
  C:4A3AH         LINE#         17
  -------         ENDPROC       GETNEXTACTIVETIMERINDEX
  -------         PROC          _KEYACTIONDEAL
  C:48C4H         LINE#         19
  C:48C4H         LINE#         20
  C:48C4H         LINE#         21
  C:48C9H         LINE#         23
  C:48CCH         LINE#         24
  C:48CCH         LINE#         26
  C:48CCH         LINE#         28
  C:48D4H         LINE#         29
  C:48D4H         LINE#         30
  C:48DBH         LINE#         31
  C:48DBH         LINE#         32
  C:48E2H         LINE#         33
  C:48E2H         LINE#         35
  C:48E2H         LINE#         37
  C:48E2H         LINE#         38
  C:48E5H         LINE#         39
  C:48EEH         LINE#         40
  C:48EEH         LINE#         41
  C:48F1H         LINE#         42
  C:48F4H         LINE#         43
  C:48F4H         LINE#         45
  C:48FDH         LINE#         46
  C:48FDH         LINE#         47
  C:48FDH         LINE#         48
  C:48FDH         LINE#         49
  -------         ENDPROC       _KEYACTIONDEAL
BL51 BANKED LINKER/LOCATER V6.22                                                      10/17/2015  10:29:03  PAGE 79


  -------         PROC          _DISPLAYCONTROL
  -------         DO            
  D:0006H         SYMBOL        t1
  D:0005H         SYMBOL        t2
  -------         ENDDO         
  C:28E8H         LINE#         51
  C:28E8H         LINE#         52
  C:28E8H         LINE#         55
  C:28EBH         LINE#         56
  C:28EBH         LINE#         57
  C:28F7H         LINE#         58
  C:28FEH         LINE#         59
  C:2904H         LINE#         60
  C:2904H         LINE#         61
  C:290BH         LINE#         62
  C:2912H         LINE#         63
  C:2915H         LINE#         65
  C:2918H         LINE#         66
  C:291BH         LINE#         67
  C:291BH         LINE#         68
  C:291EH         LINE#         71
  C:291EH         LINE#         73
  C:2925H         LINE#         74
  C:2925H         LINE#         75
  C:292CH         LINE#         76
  C:292CH         LINE#         78
  C:292CH         LINE#         79
  C:294FH         LINE#         80
  C:296FH         LINE#         82
  C:2978H         LINE#         84
  C:297FH         LINE#         86
  C:2996H         LINE#         87
  C:2996H         LINE#         88
  C:2996H         LINE#         89
  C:29A2H         LINE#         90
  C:29A5H         LINE#         91
  C:29A5H         LINE#         92
  C:29A9H         LINE#         93
  C:29A9H         LINE#         94
  C:29ABH         LINE#         95
  C:29ABH         LINE#         96
  C:29B2H         LINE#         97
  C:29B5H         LINE#         98
  C:29B5H         LINE#         99
  C:29B9H         LINE#         100
  C:29B9H         LINE#         101
  C:29BAH         LINE#         102
  C:29BAH         LINE#         103
  C:29C6H         LINE#         104
  C:29C9H         LINE#         105
  C:29C9H         LINE#         106
  C:29D0H         LINE#         107
  C:29D0H         LINE#         108
  C:29D1H         LINE#         109
  C:29D1H         LINE#         110
  C:29D8H         LINE#         111
  C:29DBH         LINE#         112
BL51 BANKED LINKER/LOCATER V6.22                                                      10/17/2015  10:29:03  PAGE 80


  C:29DBH         LINE#         113
  C:29DFH         LINE#         114
  C:29DFH         LINE#         115
  C:29E0H         LINE#         116
  C:29E0H         LINE#         117
  C:29ECH         LINE#         118
  C:29EFH         LINE#         119
  C:29EFH         LINE#         120
  C:29F6H         LINE#         121
  C:29F6H         LINE#         122
  C:29F7H         LINE#         123
  C:29F7H         LINE#         124
  C:29FEH         LINE#         125
  C:2A01H         LINE#         126
  C:2A01H         LINE#         127
  C:2A05H         LINE#         128
  C:2A05H         LINE#         129
  C:2A05H         LINE#         130
  C:2A05H         LINE#         132
  C:2A05H         LINE#         133
  C:2A05H         LINE#         134
  C:2A05H         LINE#         135
  -------         ENDPROC       _DISPLAYCONTROL
  -------         PROC          _TASKEXE
  C:50AFH         LINE#         137
  C:50AFH         LINE#         138
  C:50AFH         LINE#         140
  -------         ENDPROC       _TASKEXE
  -------         PROC          _TIMETICK
  C:4E92H         LINE#         143
  C:4E92H         LINE#         144
  C:4E92H         LINE#         145
  C:4E98H         LINE#         146
  C:4E9EH         LINE#         147
  C:4E9EH         LINE#         148
  C:4EA9H         LINE#         149
  C:4EA9H         LINE#         150
  -------         ENDPROC       _TIMETICK
  -------         PROC          _MOTORCTR
  C:508CH         LINE#         153
  C:508CH         LINE#         154
  C:508CH         LINE#         155
  -------         ENDPROC       _MOTORCTR
  -------         PROC          _IRDATADEAL
  C:50B0H         LINE#         159
  C:50B0H         LINE#         160
  C:50B0H         LINE#         162
  -------         ENDPROC       _IRDATADEAL
  -------         PROC          _RXDATADEAL
  C:50B1H         LINE#         165
  C:50B1H         LINE#         166
  C:50B1H         LINE#         168
  -------         ENDPROC       _RXDATADEAL
  -------         PROC          _ENTEREVENTDEAL
  C:4D7CH         LINE#         170
  C:4D7CH         LINE#         171
  C:4D7CH         LINE#         172
BL51 BANKED LINKER/LOCATER V6.22                                                      10/17/2015  10:29:03  PAGE 81


  C:4D81H         LINE#         174
  C:4D87H         LINE#         175
  C:4D8AH         LINE#         176
  C:4D93H         LINE#         177
  C:4D93H         LINE#         178
  C:4D96H         LINE#         179
  C:4D96H         LINE#         180
  -------         ENDPROC       _ENTEREVENTDEAL
  -------         PROC          _EXITEVENTDEAL
  C:50B2H         LINE#         182
  C:50B2H         LINE#         183
  C:50B2H         LINE#         185
  -------         ENDPROC       _EXITEVENTDEAL
  -------         ENDMOD        STATE_TIMERLOOKUP

  -------         MODULE        STATE_WORK
  C:0000H         SYMBOL        _ICE_DUMMY_
  C:3ED9H         SYMBOL        _enterEventDeal
  X:01C0H         SYMBOL        countOfSec
  D:0080H         PUBLIC        P0
  X:01C1H         SYMBOL        spOptionBuf
  X:01C2H         SYMBOL        dustRecord10Index
  C:2D3AH         SYMBOL        _keyActionDeal
  X:01C3H         SYMBOL        dustRecord30Index
  C:4DB2H         PUBLIC        State_Work
  C:50B4H         SYMBOL        _exitEventDeal
  X:01C4H         SYMBOL        TotalWorkedMin
  C:0B9DH         SYMBOL        _timeTick
  B:0023H.7       SYMBOL        IsAutoOffSta
  X:01C5H         SYMBOL        dustWipeOffCur
  C:1C21H         SYMBOL        _irDataDeal
  C:3CF1H         SYMBOL        _taskExe
  C:430CH         SYMBOL        _motorCtr
  C:50B3H         SYMBOL        _rxDataDeal
  C:192EH         SYMBOL        _displayControl
  X:01C7H         SYMBOL        runStatus
  X:01CDH         SYMBOL        AutoOffCnt
  X:01CFH         SYMBOL        memoryOffCounedown
  X:01D0H         SYMBOL        dustWipeOffBase
  -------         PROC          _KEYACTIONDEAL
  C:2D3AH         LINE#         31
  C:2D3AH         LINE#         32
  C:2D3AH         LINE#         34
  C:2D40H         LINE#         35
  C:2D40H         LINE#         36
  C:2D42H         LINE#         37
  C:2D48H         LINE#         39
  C:2D4EH         LINE#         40
  C:2D51H         LINE#         42
  C:2D51H         LINE#         44
  C:2D57H         LINE#         46
  C:2D5DH         LINE#         47
  C:2D5DH         LINE#         49
  C:2D5DH         LINE#         51
  C:2D65H         LINE#         52
  C:2D65H         LINE#         54
  C:2D70H         LINE#         55
BL51 BANKED LINKER/LOCATER V6.22                                                      10/17/2015  10:29:03  PAGE 82


  C:2D70H         LINE#         56
  C:2D7BH         LINE#         57
  C:2D7BH         LINE#         58
  C:2D7BH         LINE#         59
  C:2D7EH         LINE#         61
  C:2D89H         LINE#         62
  C:2D89H         LINE#         64
  C:2D91H         LINE#         65
  C:2D91H         LINE#         66
  C:2D97H         LINE#         67
  C:2D99H         LINE#         69
  C:2D9CH         LINE#         70
  C:2D9CH         LINE#         71
  C:2DA1H         LINE#         72
  C:2DA3H         LINE#         73
  C:2DA5H         LINE#         75
  C:2DA5H         LINE#         76
  C:2DABH         LINE#         77
  C:2DB1H         LINE#         78
  C:2DB1H         LINE#         79
  C:2DB3H         LINE#         80
  C:2DBBH         LINE#         81
  C:2DC1H         LINE#         82
  C:2DC1H         LINE#         83
  C:2DC3H         LINE#         84
  C:2DC3H         LINE#         85
  C:2DC3H         LINE#         86
  C:2DC3H         LINE#         89
  C:2DCBH         LINE#         90
  C:2DCBH         LINE#         91
  C:2DCFH         LINE#         92
  C:2DCFH         LINE#         93
  C:2DD1H         LINE#         95
  C:2DD7H         LINE#         96
  C:2DD7H         LINE#         97
  C:2DDEH         LINE#         98
  C:2DDEH         LINE#         99
  C:2DE4H         LINE#         100
  C:2DE8H         LINE#         101
  C:2DE8H         LINE#         102
  C:2DE8H         LINE#         104
  C:2DF0H         LINE#         106
  C:2DF0H         LINE#         107
  C:2DF2H         LINE#         109
  C:2DF9H         LINE#         110
  C:2DF9H         LINE#         111
  C:2E0AH         LINE#         113
  C:2E0AH         LINE#         114
  C:2E0CH         LINE#         116
  C:2E14H         LINE#         117
  C:2E14H         LINE#         118
  C:2E25H         LINE#         120
  C:2E25H         LINE#         121
  C:2E25H         LINE#         122
  C:2E27H         LINE#         123
  C:2E2EH         LINE#         124
  C:2E2EH         LINE#         125
BL51 BANKED LINKER/LOCATER V6.22                                                      10/17/2015  10:29:03  PAGE 83


  C:2E35H         LINE#         126
  C:2E35H         LINE#         127
  C:2E3BH         LINE#         128
  C:2E3DH         LINE#         130
  C:2E46H         LINE#         131
  C:2E46H         LINE#         132
  C:2E46H         LINE#         133
  -------         ENDPROC       _KEYACTIONDEAL
  -------         PROC          _DISPLAYCONTROL
  C:192EH         LINE#         135
  C:192EH         LINE#         136
  C:192EH         LINE#         138
  C:1934H         LINE#         139
  C:1934H         LINE#         140
  C:193AH         LINE#         141
  C:193AH         LINE#         142
  C:1948H         LINE#         143
  C:194FH         LINE#         144
  C:195DH         LINE#         145
  C:196BH         LINE#         147
  C:1970H         LINE#         148
  C:1977H         LINE#         149
  C:1978H         LINE#         151
  C:1978H         LINE#         154
  C:197BH         LINE#         157
  C:1982H         LINE#         158
  C:1982H         LINE#         159
  C:1990H         LINE#         160
  C:1990H         LINE#         163
  C:1996H         LINE#         164
  C:1996H         LINE#         165
  C:19A4H         LINE#         166
  C:19A4H         LINE#         169
  C:19B3H         LINE#         170
  C:19B3H         LINE#         171
  C:19B6H         LINE#         172
  C:19B6H         LINE#         173
  C:19BDH         LINE#         174
  C:19BDH         LINE#         175
  C:19BDH         LINE#         178
  C:19D2H         LINE#         179
  C:19DDH         LINE#         180
  C:19E0H         LINE#         181
  C:19E0H         LINE#         182
  C:19E4H         LINE#         183
  C:19E6H         LINE#         185
  C:19E6H         LINE#         186
  C:19F5H         LINE#         187
  C:19F5H         LINE#         191
  C:19F8H         LINE#         192
  C:19F8H         LINE#         193
  C:19FDH         LINE#         194
  C:19FFH         LINE#         195
  C:1A01H         LINE#         197
  C:1A01H         LINE#         198
  C:1A08H         LINE#         199
  C:1A0FH         LINE#         200
BL51 BANKED LINKER/LOCATER V6.22                                                      10/17/2015  10:29:03  PAGE 84


  C:1A0FH         LINE#         203
  C:1A1DH         LINE#         204
  C:1A24H         LINE#         207
  C:1A33H         LINE#         208
  C:1A36H         LINE#         209
  C:1A36H         LINE#         210
  C:1A3DH         LINE#         211
  C:1A3DH         LINE#         214
  C:1A4BH         LINE#         216
  C:1A51H         LINE#         217
  C:1A51H         LINE#         218
  C:1A5CH         LINE#         220
  C:1A5FH         LINE#         221
  C:1A5FH         LINE#         223
  C:1A62H         LINE#         224
  C:1A62H         LINE#         225
  C:1A69H         LINE#         227
  C:1A70H         LINE#         228
  C:1A77H         LINE#         230
  C:1A7CH         LINE#         231
  C:1A83H         LINE#         232
  C:1A8AH         LINE#         233
  C:1A91H         LINE#         234
  C:1A93H         LINE#         235
  C:1A9CH         LINE#         236
  C:1A9CH         LINE#         237
  C:1AA1H         LINE#         238
  C:1AA3H         LINE#         239
  C:1AA5H         LINE#         240
  C:1AAEH         LINE#         241
  C:1AAEH         LINE#         242
  C:1AB3H         LINE#         243
  C:1AB5H         LINE#         244
  C:1AB7H         LINE#         245
  C:1AC0H         LINE#         246
  C:1AC0H         LINE#         247
  C:1AC5H         LINE#         248
  C:1AC7H         LINE#         249
  C:1AC9H         LINE#         251
  C:1AC9H         LINE#         252
  C:1ACEH         LINE#         253
  C:1AD0H         LINE#         254
  C:1AD0H         LINE#         255
  C:1AD2H         LINE#         257
  C:1AD2H         LINE#         258
  C:1AD7H         LINE#         259
  C:1AD9H         LINE#         260
  C:1AD9H         LINE#         261
  C:1ADBH         LINE#         263
  C:1ADBH         LINE#         264
  C:1AE3H         LINE#         265
  C:1AF0H         LINE#         266
  C:1AF0H         LINE#         268
  C:1AF3H         LINE#         269
  C:1AF3H         LINE#         271
  C:1AFAH         LINE#         272
  C:1AFAH         LINE#         273
BL51 BANKED LINKER/LOCATER V6.22                                                      10/17/2015  10:29:03  PAGE 85


  C:1B08H         LINE#         274
  C:1B08H         LINE#         277
  C:1B0FH         LINE#         278
  C:1B0FH         LINE#         279
  C:1B16H         LINE#         280
  C:1B16H         LINE#         281
  C:1B16H         LINE#         284
  C:1B19H         LINE#         285
  C:1B19H         LINE#         286
  C:1B27H         LINE#         287
  C:1B27H         LINE#         290
  C:1B2FH         LINE#         291
  C:1B2FH         LINE#         292
  C:1B3BH         LINE#         293
  C:1B42H         LINE#         294
  C:1B51H         LINE#         295
  C:1B51H         LINE#         296
  C:1B51H         LINE#         297
  C:1B58H         LINE#         298
  C:1B58H         LINE#         299
  C:1B5AH         LINE#         300
  C:1B5AH         LINE#         301
  C:1B61H         LINE#         302
  C:1B61H         LINE#         303
  C:1B63H         LINE#         304
  C:1B63H         LINE#         305
  C:1B67H         LINE#         306
  C:1B67H         LINE#         307
  C:1B69H         LINE#         308
  C:1B69H         LINE#         309
  C:1B69H         LINE#         310
  C:1B70H         LINE#         311
  C:1B77H         LINE#         312
  C:1B7AH         LINE#         313
  C:1B7DH         LINE#         314
  C:1B80H         LINE#         315
  C:1B80H         LINE#         316
  C:1B83H         LINE#         317
  C:1B83H         LINE#         318
  C:1B83H         LINE#         320
  C:1B83H         LINE#         321
  C:1B8BH         LINE#         322
  C:1B8BH         LINE#         323
  C:1B92H         LINE#         324
  C:1B95H         LINE#         325
  C:1B95H         LINE#         326
  C:1BAEH         LINE#         327
  C:1BAEH         LINE#         328
  C:1BB5H         LINE#         329
  C:1BB5H         LINE#         330
  C:1BB7H         LINE#         331
  C:1BBFH         LINE#         332
  C:1BBFH         LINE#         333
  C:1BD9H         LINE#         334
  C:1BD9H         LINE#         335
  C:1BE0H         LINE#         336
  C:1BE0H         LINE#         337
BL51 BANKED LINKER/LOCATER V6.22                                                      10/17/2015  10:29:03  PAGE 86


  C:1BE2H         LINE#         338
  C:1BE6H         LINE#         339
  C:1BE6H         LINE#         340
  C:1C00H         LINE#         341
  C:1C00H         LINE#         342
  C:1C07H         LINE#         343
  C:1C07H         LINE#         344
  C:1C07H         LINE#         345
  C:1C07H         LINE#         346
  C:1C07H         LINE#         349
  C:1C10H         LINE#         350
  C:1C10H         LINE#         351
  C:1C13H         LINE#         352
  C:1C17H         LINE#         353
  C:1C1BH         LINE#         354
  C:1C1CH         LINE#         356
  C:1C1CH         LINE#         357
  C:1C20H         LINE#         358
  C:1C20H         LINE#         359
  -------         ENDPROC       _DISPLAYCONTROL
  -------         PROC          _TASKEXE
  C:3CF1H         LINE#         361
  C:3CF1H         LINE#         362
  C:3CF1H         LINE#         363
  C:3CF8H         LINE#         366
  C:3CFEH         LINE#         367
  C:3CFEH         LINE#         369
  C:3CFEH         LINE#         371
  C:3D08H         LINE#         372
  C:3D08H         LINE#         373
  C:3D0CH         LINE#         374
  C:3D0EH         LINE#         376
  C:3D0EH         LINE#         377
  C:3D12H         LINE#         378
  C:3D12H         LINE#         380
  C:3D1CH         LINE#         381
  C:3D1CH         LINE#         382
  C:3D20H         LINE#         383
  C:3D22H         LINE#         385
  C:3D22H         LINE#         386
  C:3D26H         LINE#         387
  C:3D26H         LINE#         389
  C:3D29H         LINE#         390
  C:3D29H         LINE#         391
  C:3D30H         LINE#         393
  C:3D37H         LINE#         394
  C:3D38H         LINE#         396
  C:3D38H         LINE#         397
  C:3D3FH         LINE#         399
  C:3D44H         LINE#         400
  C:3D44H         LINE#         402
  C:3D44H         LINE#         404
  C:3D44H         LINE#         406
  C:3D4BH         LINE#         407
  C:3D4BH         LINE#         409
  C:3D63H         LINE#         410
  C:3D63H         LINE#         411
BL51 BANKED LINKER/LOCATER V6.22                                                      10/17/2015  10:29:03  PAGE 87


  C:3D63H         LINE#         412
  C:3D65H         LINE#         413
  C:3D7DH         LINE#         414
  C:3D7DH         LINE#         415
  C:3D7DH         LINE#         416
  C:3D7FH         LINE#         417
  C:3D8EH         LINE#         418
  C:3D8EH         LINE#         419
  C:3D95H         LINE#         420
  C:3D95H         LINE#         421
  C:3D95H         LINE#         422
  -------         ENDPROC       _TASKEXE
  -------         PROC          _TIMETICK
  -------         DO            
  X:019FH         SYMBOL        index
  D:0006H         SYMBOL        t
  -------         ENDDO         
  C:0B9DH         LINE#         425
  C:0B9DH         LINE#         426
  C:0B9DH         LINE#         430
  C:0BA3H         LINE#         431
  C:0BA3H         LINE#         432
  C:0BA5H         LINE#         433
  C:0BA8H         LINE#         434
  C:0BA8H         LINE#         435
  C:0BB3H         LINE#         436
  C:0BBCH         LINE#         437
  C:0BBCH         LINE#         438
  C:0BBCH         LINE#         440
  C:0BC5H         LINE#         441
  C:0BC5H         LINE#         442
  C:0BD4H         LINE#         443
  C:0BD4H         LINE#         444
  C:0BE0H         LINE#         445
  C:0BE0H         LINE#         448
  C:0BE3H         LINE#         449
  C:0BE3H         LINE#         450
  C:0BEAH         LINE#         451
  C:0BEAH         LINE#         452
  C:0BF8H         LINE#         453
  C:0C07H         LINE#         454
  C:0C07H         LINE#         455
  C:0C09H         LINE#         456
  C:0C09H         LINE#         457
  C:0C0BH         LINE#         459
  C:0C0BH         LINE#         460
  C:0C0BH         LINE#         461
  C:0C0BH         LINE#         462
  C:0C0BH         LINE#         463
  C:0C0DH         LINE#         465
  C:0C0DH         LINE#         466
  C:0C0FH         LINE#         467
  C:0C16H         LINE#         468
  C:0C16H         LINE#         471
  C:0C1CH         LINE#         472
  C:0C1CH         LINE#         473
  C:0C1EH         LINE#         474
BL51 BANKED LINKER/LOCATER V6.22                                                      10/17/2015  10:29:03  PAGE 88


  C:0C21H         LINE#         475
  C:0C21H         LINE#         476
  C:0C23H         LINE#         477
  C:0C29H         LINE#         478
  C:0C29H         LINE#         479
  C:0C29H         LINE#         482
  C:0C2FH         LINE#         484
  C:0C43H         LINE#         486
  C:0C4FH         LINE#         487
  C:0C4FH         LINE#         488
  C:0C51H         LINE#         490
  C:0C57H         LINE#         491
  C:0C5CH         LINE#         492
  C:0C5CH         LINE#         493
  C:0C5EH         LINE#         495
  C:0C64H         LINE#         496
  C:0C64H         LINE#         498
  C:0C6AH         LINE#         499
  C:0C70H         LINE#         500
  C:0C70H         LINE#         501
  C:0C72H         LINE#         503
  C:0C80H         LINE#         504
  C:0C80H         LINE#         506
  C:0C8EH         LINE#         507
  C:0C8EH         LINE#         508
  C:0C93H         LINE#         509
  C:0C93H         LINE#         510
  C:0CA2H         LINE#         511
  C:0CA2H         LINE#         512
  C:0CA2H         LINE#         513
  C:0CA4H         LINE#         515
  C:0CA4H         LINE#         516
  C:0CB3H         LINE#         517
  C:0CC0H         LINE#         518
  C:0CC0H         LINE#         519
  C:0CD6H         LINE#         520
  C:0CD6H         LINE#         521
  C:0CDEH         LINE#         522
  C:0CE5H         LINE#         523
  C:0CE5H         LINE#         524
  C:0CE5H         LINE#         525
  C:0CE5H         LINE#         527
  C:0CEBH         LINE#         528
  C:0CEBH         LINE#         530
  C:0CF4H         LINE#         531
  C:0CF4H         LINE#         532
  C:0D04H         LINE#         533
  C:0D04H         LINE#         534
  C:0D2EH         LINE#         535
  C:0D36H         LINE#         536
  C:0D45H         LINE#         537
  C:0D47H         LINE#         539
  C:0D47H         LINE#         540
  C:0D58H         LINE#         541
  C:0D58H         LINE#         542
  C:0D7BH         LINE#         543
  C:0D83H         LINE#         544
BL51 BANKED LINKER/LOCATER V6.22                                                      10/17/2015  10:29:03  PAGE 89


  C:0D83H         LINE#         546
  C:0D89H         LINE#         547
  C:0D8FH         LINE#         548
  C:0D8FH         LINE#         549
  C:0D92H         LINE#         550
  C:0D92H         LINE#         554
  C:0D9BH         LINE#         555
  C:0D9BH         LINE#         556
  C:0DABH         LINE#         557
  C:0DABH         LINE#         558
  C:0DD5H         LINE#         559
  C:0DDDH         LINE#         560
  C:0DECH         LINE#         561
  C:0DEEH         LINE#         563
  C:0DEEH         LINE#         564
  C:0DFFH         LINE#         565
  C:0DFFH         LINE#         566
  C:0E22H         LINE#         567
  C:0E2AH         LINE#         568
  C:0E2AH         LINE#         570
  C:0E31H         LINE#         571
  C:0E31H         LINE#         572
  C:0E37H         LINE#         573
  C:0E37H         LINE#         575
  C:0E40H         LINE#         576
  C:0E40H         LINE#         577
  C:0E43H         LINE#         578
  C:0E43H         LINE#         582
  C:0E4AH         LINE#         583
  C:0E4AH         LINE#         584
  C:0E56H         LINE#         585
  C:0E56H         LINE#         586
  C:0E97H         LINE#         588
  C:0E97H         LINE#         589
  C:0E97H         LINE#         590
  C:0E97H         LINE#         591
  C:0E97H         LINE#         592
  C:0E97H         LINE#         593
  C:0E9AH         LINE#         595
  C:0E9AH         LINE#         596
  C:0EA5H         LINE#         597
  C:0EA5H         LINE#         598
  C:0EABH         LINE#         599
  C:0ECFH         LINE#         600
  C:0ECFH         LINE#         601
  C:0ED5H         LINE#         602
  C:0ED5H         LINE#         604
  C:0EDCH         LINE#         605
  C:0EDCH         LINE#         607
  C:0EE7H         LINE#         608
  C:0EE7H         LINE#         609
  C:0EF2H         LINE#         610
  C:0EFBH         LINE#         611
  C:0EFBH         LINE#         612
  C:0EFDH         LINE#         614
  C:0EFDH         LINE#         615
  C:0F58H         LINE#         617
BL51 BANKED LINKER/LOCATER V6.22                                                      10/17/2015  10:29:03  PAGE 90


  C:0F58H         LINE#         618
  C:0F61H         LINE#         619
  C:0F6CH         LINE#         620
  C:0F6CH         LINE#         621
  C:0F6CH         LINE#         622
  C:0F6CH         LINE#         623
  C:0F6CH         LINE#         625
  C:0F72H         LINE#         626
  C:0F72H         LINE#         627
  C:0F91H         LINE#         629
  C:0FACH         LINE#         630
  C:0FACH         LINE#         631
  C:0FB3H         LINE#         633
  C:0FDDH         LINE#         634
  C:0FDDH         LINE#         635
  C:0FDFH         LINE#         636
  C:0FDFH         LINE#         637
  C:0FE1H         LINE#         639
  C:0FE1H         LINE#         640
  C:1014H         LINE#         641
  C:1014H         LINE#         642
  C:1014H         LINE#         645
  C:1032H         LINE#         646
  C:1032H         LINE#         647
  C:1032H         LINE#         648
  C:1038H         LINE#         649
  C:1041H         LINE#         650
  C:1041H         LINE#         651
  C:1043H         LINE#         653
  C:1051H         LINE#         654
  C:105FH         LINE#         655
  C:105FH         LINE#         657
  C:1060H         LINE#         658
  C:1060H         LINE#         659
  C:1066H         LINE#         660
  C:106FH         LINE#         661
  C:106FH         LINE#         662
  C:1071H         LINE#         664
  C:107FH         LINE#         665
  C:108DH         LINE#         666
  C:108DH         LINE#         667
  C:108EH         LINE#         668
  C:108EH         LINE#         669
  C:1094H         LINE#         670
  C:109AH         LINE#         671
  C:109AH         LINE#         672
  C:109CH         LINE#         674
  C:10AAH         LINE#         675
  C:10B8H         LINE#         676
  C:10B8H         LINE#         677
  C:10B9H         LINE#         678
  C:10B9H         LINE#         679
  C:10BFH         LINE#         680
  C:10C5H         LINE#         681
  C:10C5H         LINE#         682
  C:10C7H         LINE#         684
  C:10D5H         LINE#         685
BL51 BANKED LINKER/LOCATER V6.22                                                      10/17/2015  10:29:03  PAGE 91


  C:10E3H         LINE#         686
  C:10E3H         LINE#         687
  C:10E4H         LINE#         688
  C:10E4H         LINE#         689
  C:10EAH         LINE#         690
  C:10F0H         LINE#         691
  C:10F0H         LINE#         692
  C:10F2H         LINE#         694
  C:1100H         LINE#         695
  C:110EH         LINE#         696
  C:110EH         LINE#         697
  C:110EH         LINE#         698
  C:110EH         LINE#         699
  C:110EH         LINE#         700
  -------         ENDPROC       _TIMETICK
  -------         PROC          _MOTORCTR
  C:430CH         LINE#         703
  C:430CH         LINE#         704
  C:430CH         LINE#         706
  C:430FH         LINE#         707
  C:430FH         LINE#         708
  C:4312H         LINE#         709
  C:4312H         LINE#         711
  C:4312H         LINE#         712
  C:4315H         LINE#         713
  C:4315H         LINE#         714
  C:4318H         LINE#         715
  C:4318H         LINE#         716
  C:4321H         LINE#         717
  C:4321H         LINE#         718
  C:4321H         LINE#         719
  C:4323H         LINE#         720
  C:432CH         LINE#         721
  C:432CH         LINE#         722
  C:432CH         LINE#         723
  C:432EH         LINE#         724
  C:4337H         LINE#         725
  C:4337H         LINE#         726
  C:4337H         LINE#         727
  C:4339H         LINE#         734
  C:4339H         LINE#         735
  C:4339H         LINE#         736
  C:4339H         LINE#         737
  C:433BH         LINE#         739
  C:433BH         LINE#         740
  C:4350H         LINE#         741
  C:4350H         LINE#         742
  C:4350H         LINE#         743
  C:4354H         LINE#         744
  C:4356H         LINE#         745
  C:4356H         LINE#         746
  C:435AH         LINE#         747
  C:435CH         LINE#         748
  C:435CH         LINE#         749
  C:4360H         LINE#         750
  C:4362H         LINE#         751
  C:4362H         LINE#         752
BL51 BANKED LINKER/LOCATER V6.22                                                      10/17/2015  10:29:03  PAGE 92


  C:4366H         LINE#         753
  C:4368H         LINE#         754
  C:4368H         LINE#         755
  C:436FH         LINE#         756
  C:436FH         LINE#         757
  C:436FH         LINE#         758
  C:436FH         LINE#         759
  C:436FH         LINE#         760
  C:436FH         LINE#         761
  C:436FH         LINE#         762
  -------         ENDPROC       _MOTORCTR
  -------         PROC          _IRDATADEAL
  C:1C21H         LINE#         765
  C:1C21H         LINE#         766
  C:1C21H         LINE#         768
  C:1C27H         LINE#         769
  C:1C27H         LINE#         770
  C:1C29H         LINE#         771
  C:1C2FH         LINE#         773
  C:1C36H         LINE#         775
  C:1C36H         LINE#         776
  C:1C3CH         LINE#         779
  C:1C47H         LINE#         780
  C:1C47H         LINE#         781
  C:1C50H         LINE#         782
  C:1C5BH         LINE#         783
  C:1C5BH         LINE#         785
  C:1C69H         LINE#         786
  C:1C69H         LINE#         787
  C:1C6FH         LINE#         788
  C:1C71H         LINE#         790
  C:1C73H         LINE#         791
  C:1C7BH         LINE#         793
  C:1C81H         LINE#         794
  C:1C81H         LINE#         795
  C:1C83H         LINE#         796
  C:1C83H         LINE#         797
  C:1C83H         LINE#         798
  C:1C85H         LINE#         799
  C:1C91H         LINE#         800
  C:1C91H         LINE#         801
  C:1C98H         LINE#         802
  C:1C9AH         LINE#         804
  C:1C9FH         LINE#         806
  C:1CA1H         LINE#         808
  C:1CA6H         LINE#         809
  C:1CAAH         LINE#         811
  C:1CAFH         LINE#         813
  C:1CB4H         LINE#         815
  C:1CB7H         LINE#         816
  C:1CC5H         LINE#         817
  C:1CC5H         LINE#         818
  C:1CCBH         LINE#         819
  C:1CCDH         LINE#         821
  C:1CD3H         LINE#         822
  C:1CD5H         LINE#         824
  C:1CDCH         LINE#         825
BL51 BANKED LINKER/LOCATER V6.22                                                      10/17/2015  10:29:03  PAGE 93


  C:1CDCH         LINE#         826
  C:1CE2H         LINE#         827
  C:1CE6H         LINE#         828
  C:1CE6H         LINE#         829
  C:1CEEH         LINE#         831
  C:1CF4H         LINE#         832
  C:1CF7H         LINE#         833
  C:1D05H         LINE#         834
  C:1D05H         LINE#         835
  C:1D0BH         LINE#         836
  C:1D0DH         LINE#         838
  C:1D13H         LINE#         839
  C:1D15H         LINE#         841
  C:1D1CH         LINE#         842
  C:1D1CH         LINE#         843
  C:1D22H         LINE#         844
  C:1D26H         LINE#         845
  C:1D26H         LINE#         846
  C:1D2EH         LINE#         848
  C:1D34H         LINE#         849
  C:1D37H         LINE#         850
  C:1D45H         LINE#         851
  C:1D45H         LINE#         852
  C:1D4BH         LINE#         853
  C:1D4DH         LINE#         855
  C:1D53H         LINE#         856
  C:1D55H         LINE#         858
  C:1D5CH         LINE#         859
  C:1D5CH         LINE#         860
  C:1D62H         LINE#         861
  C:1D66H         LINE#         862
  C:1D66H         LINE#         863
  C:1D6EH         LINE#         865
  C:1D74H         LINE#         866
  C:1D77H         LINE#         867
  C:1D85H         LINE#         868
  C:1D85H         LINE#         869
  C:1D8BH         LINE#         870
  C:1D8DH         LINE#         872
  C:1D93H         LINE#         873
  C:1D95H         LINE#         875
  C:1D9CH         LINE#         876
  C:1D9CH         LINE#         877
  C:1DA2H         LINE#         878
  C:1DA6H         LINE#         879
  C:1DA6H         LINE#         880
  C:1DAEH         LINE#         882
  C:1DB4H         LINE#         883
  C:1DB6H         LINE#         884
  C:1DC2H         LINE#         885
  C:1DC2H         LINE#         886
  C:1DD3H         LINE#         887
  C:1DD9H         LINE#         888
  C:1DDBH         LINE#         889
  C:1DE7H         LINE#         890
  C:1DE7H         LINE#         891
  C:1DF8H         LINE#         892
BL51 BANKED LINKER/LOCATER V6.22                                                      10/17/2015  10:29:03  PAGE 94


  C:1E01H         LINE#         893
  C:1E01H         LINE#         894
  -------         ENDPROC       _IRDATADEAL
  -------         PROC          _RXDATADEAL
  C:50B3H         LINE#         897
  C:50B3H         LINE#         898
  C:50B3H         LINE#         900
  -------         ENDPROC       _RXDATADEAL
  -------         PROC          _ENTEREVENTDEAL
  C:3ED9H         LINE#         902
  C:3ED9H         LINE#         903
  C:3ED9H         LINE#         904
  C:3EDFH         LINE#         906
  C:3EE1H         LINE#         907
  C:3EE3H         LINE#         908
  C:3EE8H         LINE#         910
  C:3EEEH         LINE#         912
  C:3EF2H         LINE#         913
  C:3EF4H         LINE#         915
  C:3EFAH         LINE#         917
  C:3F00H         LINE#         918
  C:3F03H         LINE#         921
  C:3F06H         LINE#         922
  C:3F06H         LINE#         923
  C:3F0CH         LINE#         924
  C:3F12H         LINE#         925
  C:3F16H         LINE#         926
  C:3F16H         LINE#         928
  C:3F1EH         LINE#         930
  C:3F23H         LINE#         932
  C:3F29H         LINE#         934
  C:3F2DH         LINE#         935
  C:3F2FH         LINE#         937
  C:3F3CH         LINE#         938
  C:3F3CH         LINE#         939
  C:3F41H         LINE#         941
  C:3F48H         LINE#         942
  C:3F4EH         LINE#         943
  C:3F54H         LINE#         944
  C:3F5AH         LINE#         945
  C:3F60H         LINE#         946
  C:3F60H         LINE#         948
  C:3F67H         LINE#         949
  C:3F6DH         LINE#         951
  C:3F73H         LINE#         952
  -------         ENDPROC       _ENTEREVENTDEAL
  -------         PROC          _EXITEVENTDEAL
  C:50B4H         LINE#         954
  C:50B4H         LINE#         955
  C:50B4H         LINE#         957
  -------         ENDPROC       _EXITEVENTDEAL
  -------         ENDMOD        STATE_WORK

  -------         MODULE        ?C?FPMUL
  C:1526H         PUBLIC        ?C?FPMUL
  -------         ENDMOD        ?C?FPMUL

BL51 BANKED LINKER/LOCATER V6.22                                                      10/17/2015  10:29:03  PAGE 95


  -------         MODULE        ?C?FCAST
  C:1636H         PUBLIC        ?C?FCASTC
  C:1631H         PUBLIC        ?C?FCASTI
  C:162CH         PUBLIC        ?C?FCASTL
  -------         ENDMOD        ?C?FCAST

  -------         MODULE        ?C?CASTF
  C:166AH         PUBLIC        ?C?CASTF
  -------         ENDMOD        ?C?CASTF

  -------         MODULE        ?C?CLDPTR
  C:16EBH         PUBLIC        ?C?CLDPTR
  -------         ENDMOD        ?C?CLDPTR

  -------         MODULE        ?C?CLDOPTR
  C:1704H         PUBLIC        ?C?CLDOPTR
  -------         ENDMOD        ?C?CLDOPTR

  -------         MODULE        ?C?CSTPTR
  C:1731H         PUBLIC        ?C?CSTPTR
  -------         ENDMOD        ?C?CSTPTR

  -------         MODULE        ?C?CSTOPTR
  C:1743H         PUBLIC        ?C?CSTOPTR
  -------         ENDMOD        ?C?CSTOPTR

  -------         MODULE        ?C?UIDIV
  C:1765H         PUBLIC        ?C?UIDIV
  -------         ENDMOD        ?C?UIDIV

  -------         MODULE        ?C?ILDOPTR
  C:17BAH         PUBLIC        ?C?ILDOPTR
  -------         ENDMOD        ?C?ILDOPTR

  -------         MODULE        ?C?ULDIV
  C:182EH         PUBLIC        ?C?ULDIV
  -------         ENDMOD        ?C?ULDIV

  -------         MODULE        ?C?LNEG
  C:18C0H         PUBLIC        ?C?LNEG
  -------         ENDMOD        ?C?LNEG

  -------         MODULE        ?C?ULCMP
  C:18CEH         PUBLIC        ?C?ULCMP
  -------         ENDMOD        ?C?ULCMP

  -------         MODULE        ?C?LSTXDATA
  C:18DFH         PUBLIC        ?C?LSTXDATA
  -------         ENDMOD        ?C?LSTXDATA

  -------         MODULE        ?C?LSTKXDATA
  C:18EBH         PUBLIC        ?C?LSTKXDATA
  -------         ENDMOD        ?C?LSTKXDATA

  -------         MODULE        ?C?OFFXADD
  C:191CH         PUBLIC        ?C?OFFXADD
  -------         ENDMOD        ?C?OFFXADD
BL51 BANKED LINKER/LOCATER V6.22                                                      10/17/2015  10:29:03  PAGE 96



  -------         MODULE        ?C?ICALL
  C:1928H         PUBLIC        ?C?ICALL
  C:192CH         PUBLIC        ?C?ICALL2
  -------         ENDMOD        ?C?ICALL

Program Size: data=30.0 xdata=517 code=20661
LINK/LOCATE RUN COMPLETE.  0 WARNING(S),  0 ERROR(S)
