BL51 BANKED LINKER/LOCATER V6.22                                                        10/30/2015  13:58:41  PAGE 1


BL51 BANKED LINKER/LOCATER V6.22, INVOKED BY:
C:\KEIL_V5\C51\BIN\BL51.EXE .\it.obj, startup.obj, .\main.obj, .\bsp_init.obj, .\aip1944.obj, .\display.obj, .\buzzer.ob
>> j, .\ir.obj, .\humidity.obj, .\dust.obj, .\motor.obj, .\system.obj, .\key.obj, .\fifo.obj, .\protocol.obj, .\uart.obj
>> , .\fsm.obj, .\state_test.obj, .\state_startup.obj, .\state_standby.obj, .\state_clockSetting.obj, .\state_echeck.obj
>> , .\state_timerSetting.obj, .\state_timerFnSetting.obj, .\state_timerLookup.obj, .\state_work.obj TO YTN-E608-WIFI-64
>> 32 RAMSIZE (256) DISABLEWARNING (16, 15, 13) CODE (0X0000-0X7FFF) XDATA (0X0000-0X02FF)




PROGRAM RECURSIONS REMOVED FROM CALL TREE
=========================================
+--> ?CO?STATE_STANDBY
|  | ?PR?_KEYACTIONDEAL?STATE_STANDBY
|  | ?CO?STATE_WORK
<--+ ?PR?_TIMETICK?STATE_WORK



MEMORY MODEL: LARGE WITH FLOATING POINT ARITHMETIC


INPUT MODULES INCLUDED:
  .\it.obj (IT)
  startup.obj (?C_STARTUP)
  .\main.obj (MAIN)
  .\bsp_init.obj (BSP_INIT)
  .\aip1944.obj (AIP1944)
  .\display.obj (DISPLAY)
  .\buzzer.obj (BUZZER)
  .\ir.obj (IR)
  .\humidity.obj (HUMIDITY)
  .\dust.obj (DUST)
  .\motor.obj (MOTOR)
  .\system.obj (SYSTEM)
  .\key.obj (KEY)
  .\fifo.obj (FIFO)
  .\protocol.obj (PROTOCOL)
  .\uart.obj (UART)
  .\fsm.obj (FSM)
  .\state_test.obj (STATE_TEST)
  .\state_startup.obj (STATE_STARTUP)
  .\state_standby.obj (STATE_STANDBY)
  .\state_clockSetting.obj (STATE_CLOCKSETTING)
  .\state_echeck.obj (STATE_ECHECK)
  .\state_timerSetting.obj (STATE_TIMERSETTING)
  .\state_timerFnSetting.obj (STATE_TIMERFNSETTING)
  .\state_timerLookup.obj (STATE_TIMERLOOKUP)
  .\state_work.obj (STATE_WORK)
  C:\KEIL_V5\C51\LIB\C51FPL.LIB (?C?FPMUL)
  C:\KEIL_V5\C51\LIB\C51FPL.LIB (?C?FCAST)
  C:\KEIL_V5\C51\LIB\C51FPL.LIB (?C?CASTF)
  C:\KEIL_V5\C51\LIB\C51FPL.LIB (?C?FPGETOPN)
  C:\KEIL_V5\C51\LIB\C51L.LIB (?C_INIT)
  C:\KEIL_V5\C51\LIB\C51L.LIB (?C?CLDPTR)
  C:\KEIL_V5\C51\LIB\C51L.LIB (?C?CLDOPTR)
  C:\KEIL_V5\C51\LIB\C51L.LIB (?C?CSTPTR)
  C:\KEIL_V5\C51\LIB\C51L.LIB (?C?CSTOPTR)
BL51 BANKED LINKER/LOCATER V6.22                                                      10/30/2015  13:58:41  PAGE 2


  C:\KEIL_V5\C51\LIB\C51L.LIB (?C?UIDIV)
  C:\KEIL_V5\C51\LIB\C51L.LIB (?C?ILDOPTR)
  C:\KEIL_V5\C51\LIB\C51L.LIB (?C?ULDIV)
  C:\KEIL_V5\C51\LIB\C51L.LIB (?C?LNEG)
  C:\KEIL_V5\C51\LIB\C51L.LIB (?C?ULCMP)
  C:\KEIL_V5\C51\LIB\C51L.LIB (?C?LSTXDATA)
  C:\KEIL_V5\C51\LIB\C51L.LIB (?C?LSTKXDATA)
  C:\KEIL_V5\C51\LIB\C51L.LIB (?C?OFFXADD)
  C:\KEIL_V5\C51\LIB\C51L.LIB (?C?ICALL)


LINK MAP OF MODULE:  YTN-E608-WIFI-6432 (IT)


            TYPE    BASE      LENGTH    RELOCATION   SEGMENT NAME
            -----------------------------------------------------

            * * * * * * *   D A T A   M E M O R Y   * * * * * * *
            REG     0000H     0008H     ABSOLUTE     "REG BANK 0"
            IDATA   0008H     000BH     UNIT         ?ID?IT
            IDATA   0013H     0003H     UNIT         ?ID?MAIN
            IDATA   0016H     0003H     UNIT         ?ID?HUMIDITY
                    0019H     0007H                  *** GAP ***
            BIT     0020H.0   0001H.0   UNIT         ?BI?SYSTEM
            BIT     0021H.0   0000H.7   UNIT         _BIT_GROUP_
            BIT     0021H.7   0000H.3   UNIT         ?BI?DISPLAY
            BIT     0022H.2   0000H.3   UNIT         ?BI?MOTOR
            BIT     0022H.5   0000H.2   UNIT         ?BI?HUMIDITY
            BIT     0022H.7   0000H.2   UNIT         ?BI?DUST
            BIT     0023H.1   0000H.2   UNIT         ?BI?UART
            BIT     0023H.3   0000H.1   UNIT         ?BI?BUZZER
            BIT     0023H.4   0000H.1   UNIT         ?BI?IR
            BIT     0023H.5   0000H.1   UNIT         ?BI?KEY
            BIT     0023H.6   0000H.1   UNIT         ?BI?PROTOCOL
            BIT     0023H.7   0000H.1   UNIT         ?BI?STATE_STANDBY
            BIT     0024H.0   0000H.1   UNIT         ?BI?STATE_ECHECK
            BIT     0024H.1   0000H.1   UNIT         ?BI?STATE_WORK
                    0024H.2   0000H.6                *** GAP ***
            IDATA   0025H     0001H     UNIT         ?STACK

            * * * * * * *  X D A T A   M E M O R Y  * * * * * * *
            XDATA   0000H     00D8H     UNIT         ?XD?UART
            XDATA   00D8H     007DH     UNIT         ?XD?SYSTEM
            XDATA   0155H     0042H     UNIT         ?XD?DISPLAY
            XDATA   0197H     0018H     UNIT         ?XD?STATE_WORK
            XDATA   01AFH     0017H     UNIT         _XDATA_GROUP_
            XDATA   01C6H     0015H     UNIT         ?XD?DUST
            XDATA   01DBH     0011H     UNIT         ?XD?HUMIDITY
            XDATA   01ECH     0008H     UNIT         ?XD?MOTOR
            XDATA   01F4H     0004H     UNIT         ?XD?IT
            XDATA   01F8H     0004H     UNIT         ?XD?BUZZER
            XDATA   01FCH     0004H     UNIT         ?XD?KEY
            XDATA   0200H     0004H     UNIT         ?XD?PROTOCOL
            XDATA   0204H     0002H     UNIT         ?XD?IR
            XDATA   0206H     0002H     UNIT         ?XD?FSM
            XDATA   0208H     0002H     UNIT         ?XD?STATE_STANDBY
            XDATA   020AH     0001H     UNIT         ?XD?AIP1944
BL51 BANKED LINKER/LOCATER V6.22                                                      10/30/2015  13:58:41  PAGE 3


            XDATA   020BH     0001H     UNIT         ?XD?STATE_CLOCKSETTING
            XDATA   020CH     0001H     UNIT         ?XD?STATE_TIMERSETTING
            XDATA   020DH     0001H     UNIT         ?XD?STATE_TIMERLOOKUP

            * * * * * * *   C O D E   M E M O R Y   * * * * * * *
            CODE    0000H     0003H     ABSOLUTE     
            CODE    0003H     0018H     UNIT         ?PR?TIMER1_INIT?BSP_INIT
            CODE    001BH     0003H     ABSOLUTE     
            CODE    001EH     0005H     UNIT         ?PR?CMD_GET_SYS_STA_DEAL?PROTOCOL
            CODE    0023H     0003H     ABSOLUTE     
            CODE    0026H     0044H     UNIT         ?PR?UART_SENDSTARTUP?UART
            CODE    006AH     0001H     UNIT         ?PR?CMD_DUMMY_DEAL?PROTOCOL
            CODE    006BH     0003H     ABSOLUTE     
            CODE    006EH     0034H     UNIT         ?PR?_DISPLAY_SPLEVEL?DISPLAY
            CODE    00A2H     0001H     UNIT         ?PR?TASK_DONOTHING?FSM
            CODE    00A3H     0003H     ABSOLUTE     
            CODE    00A6H     000DH     UNIT         ?PR?BIT_INIT?BSP_INIT
            CODE    00B3H     0003H     ABSOLUTE     
            CODE    00B6H     0AE7H     UNIT         ?CO?HUMIDITY
            CODE    0B9DH     0626H     UNIT         ?PR?_TIMETICK?STATE_WORK
            CODE    11C3H     0417H     UNIT         ?PR?_PROTOCOL_STARESP?PROTOCOL
            CODE    15DAH     0408H     UNIT         ?C?LIB_CODE
            CODE    19E2H     030CH     UNIT         ?PR?_DISPLAYCONTROL?STATE_WORK
            CODE    1CEEH     01E1H     UNIT         ?PR?_IRDATADEAL?STATE_WORK
            CODE    1ECFH     01B3H     UNIT         ?PR?_KEYACTIONDEAL?STATE_TIMERSETTING
            CODE    2082H     01ABH     UNIT         ?PR?CMD_GET_DEVICE_INFO_DEAL?PROTOCOL
            CODE    222DH     01A5H     UNIT         ?PR?MOTOR_CTR?MOTOR
            CODE    23D2H     01A1H     UNIT         ?PR?PROTOCOL_TASK?PROTOCOL
            CODE    2573H     019BH     UNIT         ?PR?INT_BIT?IT
            CODE    270EH     015FH     UNIT         ?PR?CMD_GET_PM_DATAS_DEAL?PROTOCOL
            CODE    286DH     0148H     UNIT         ?PR?_DISPLAYCONTROL?STATE_TIMERSETTING
            CODE    29B5H     013AH     UNIT         ?PR?_KEYACTIONDEAL?STATE_WORK
            CODE    2AEFH     011EH     UNIT         ?PR?_DISPLAYCONTROL?STATE_TIMERLOOKUP
            CODE    2C0DH     0117H     UNIT         ?CO?DISPLAY
            CODE    2D24H     010FH     UNIT         ?PR?_IRDATADEAL?STATE_STANDBY
            CODE    2E33H     010EH     UNIT         ?PR?_TIMETICK?STATE_STANDBY
            CODE    2F41H     010DH     UNIT         ?PR?_ENTEREVENTDEAL?STATE_WORK
            CODE    304EH     010BH     UNIT         ?PR?INT_WT?IT
            CODE    3159H     0102H     UNIT         ?PR?_DISPLAY_DUSTDATA?DISPLAY
            CODE    325BH     0102H     UNIT         ?PR?_KEYACTIONDEAL?STATE_STANDBY
            CODE    335DH     0102H     UNIT         ?PR?_DISPLAYCONTROL?STATE_STANDBY
            CODE    345FH     00FEH     UNIT         ?PR?_DISPLAY_SHOWNUMINRTCAREA?DISPLAY
            CODE    355DH     00FEH     UNIT         ?PR?_HUMIDITY_AD2H?HUMIDITY
            CODE    365BH     00FAH     UNIT         ?PR?_DISPLAYCONTROL?STATE_TEST
            CODE    3755H     00F3H     UNIT         ?PR?SYS_UPDATETIMERONINDEX?SYSTEM
            CODE    3848H     00E3H     UNIT         ?PR?PROTOCOL_RESETWIFIMODE?PROTOCOL
            CODE    392BH     00D1H     UNIT         ?PR?MAIN?MAIN
            CODE    39FCH     00CEH     UNIT         ?PR?_DISPLAY_SHOWRT?DISPLAY
            CODE    3ACAH     00CCH     UNIT         ?PR?KEY_ACTIONDETECT?KEY
            CODE    3B96H     00B2H     UNIT         ?PR?DISPLAY_LEDDRIVE?DISPLAY
            CODE    3C48H     00B1H     UNIT         ?PR?DUST_LEVELUPDATE?DUST
            CODE    3CF9H     00ADH     UNIT         ?PR?DUST_DATAUPDATE?DUST
            CODE    3DA6H     00ADH     UNIT         ?PR?CMD_GET_ENE_DATAS_DEAL?PROTOCOL
            CODE    3E53H     00ACH     UNIT         ?PR?INT_USI1_RX?IT
            CODE    3EFFH     00A3H     UNIT         ?PR?PROTOCOL_ENTERATMODE?PROTOCOL
            CODE    3FA2H     00A0H     UNIT         ?PR?HUMIDITY_GETCURRENTH?HUMIDITY
            CODE    4042H     009AH     UNIT         ?C_C51STARTUP
BL51 BANKED LINKER/LOCATER V6.22                                                      10/30/2015  13:58:41  PAGE 4


            CODE    40DCH     008FH     UNIT         ?PR?INT_USI1_TX?IT
            CODE    416BH     008BH     UNIT         ?PR?_TASKEXE?STATE_WORK
            CODE    41F6H     0089H     UNIT         ?PR?HUMIDITY_GETCURRENTT?HUMIDITY
            CODE    427FH     007EH     UNIT         ?PR?_KEYACTIONDEAL?STATE_CLOCKSETTING
            CODE    42FDH     007AH     UNIT         ?PR?CMD_TIMER_CTR_DEAL?PROTOCOL
            CODE    4377H     0079H     UNIT         ?PR?SYS_RESET?SYSTEM
            CODE    43F0H     0075H     UNIT         ?PR?_HUMIDITY_GETH?HUMIDITY
            CODE    4465H     0064H     UNIT         ?PR?_MOTORCTR?STATE_WORK
            CODE    44C9H     0061H     UNIT         ?PR?_ENQUEUE?FIFO
            CODE    452AH     005FH     UNIT         ?PR?_DISPLAY_SHOWTEMPERATURE?DISPLAY
            CODE    4589H     005FH     UNIT         ?PR?_DISPLAY_SHOWHUMIDITY?DISPLAY
            CODE    45E8H     005FH     UNIT         ?PR?CMD_FAN_CTR_DEAL?PROTOCOL
            CODE    4647H     005DH     UNIT         ?PR?_DEQUEUE?FIFO
            CODE    46A4H     0053H     UNIT         ?PR?SYS_LOADCTR?SYSTEM
            CODE    46F7H     0053H     UNIT         ?PR?KEY_READ?KEY
            CODE    474AH     0052H     UNIT         ?PR?_STATE_TRANSITIONTO?FSM
            CODE    479CH     0051H     UNIT         ?PR?PORT_INIT?BSP_INIT
            CODE    47EDH     0050H     UNIT         ?PR?_AIP1944_WRITEDISPDATAS?AIP1944
            CODE    483DH     004BH     UNIT         ?PR?DUST_GETRTLEVEL?DUST
            CODE    4888H     004BH     UNIT         ?CO?PROTOCOL
            CODE    48D3H     004AH     UNIT         ?PR?_DISPLAY_CIRCLERUN?DISPLAY
            CODE    491DH     0043H     UNIT         ?PR?BUZZ_CTR?BUZZER
            CODE    4960H     0043H     UNIT         ?PR?CMD_RT_SET_DEAL?PROTOCOL
            CODE    49A3H     003EH     UNIT         ?PR?_DISPLAY_DUSTLEVEL?DISPLAY
            CODE    49E1H     003CH     UNIT         ?PR?_KEYACTIONDEAL?STATE_ECHECK
            CODE    4A1DH     003AH     UNIT         ?PR?_KEYACTIONDEAL?STATE_TIMERLOOKUP
            CODE    4A57H     0039H     UNIT         ?PR?_QUEUEISFULL?FIFO
            CODE    4A90H     0038H     UNIT         ?PR?_ENTEREVENTDEAL?STATE_STANDBY
            CODE    4AC8H     0037H     UNIT         ?PR?CMD_MEM_SET_DEAL?PROTOCOL
            CODE    4AFFH     0034H     UNIT         ?PR?UART_MEMORYINIT?UART
            CODE    4B33H     0034H     UNIT         ?PR?_DISPLAYCONTROL?STATE_TIMERFNSETTING
            CODE    4B67H     0033H     UNIT         ?PR?DISPLAY_CTR?DISPLAY
            CODE    4B9AH     0033H     UNIT         ?PR?GETNEXTACTIVETIMERINDEX?STATE_TIMERLOOKUP
            CODE    4BCDH     0032H     UNIT         ?PR?INITALL?MAIN
            CODE    4BFFH     002EH     UNIT         ?PR?BSP_INIT?BSP_INIT
            CODE    4C2DH     002EH     UNIT         ?PR?SYS_ENTERSTOPMODE?SYSTEM
            CODE    4C5BH     002DH     UNIT         ?C_INITSEG
            CODE    4C88H     002CH     UNIT         ?PR?_DISPLAYCONTROL?STATE_CLOCKSETTING
            CODE    4CB4H     002BH     UNIT         ?PR?CMD_POWER_CTR_DEAL?PROTOCOL
            CODE    4CDFH     002BH     UNIT         ?PR?_DISPLAYCONTROL?STATE_ECHECK
            CODE    4D0AH     0026H     UNIT         ?PR?_HUMIDITY_AD2T?HUMIDITY
            CODE    4D30H     0020H     UNIT         ?PR?DISPLAY_SETLINE?DISPLAY
            CODE    4D50H     001FH     UNIT         ?PR?_KEYACTIONDEAL?STATE_TIMERFNSETTING
            CODE    4D6FH     001EH     UNIT         ?CO?SYSTEM
            CODE    4D8DH     001DH     UNIT         ?PR?_MOTOR_RUN?MOTOR
            CODE    4DAAH     001DH     UNIT         ?PR?CMD_AION_CTR_DEAL?PROTOCOL
            CODE    4DC7H     001DH     UNIT         ?PR?CMD_UV_CTR_DEAL?PROTOCOL
            CODE    4DE4H     001CH     UNIT         ?PR?CMD_REST_DEAL?PROTOCOL
            CODE    4E00H     001BH     UNIT         ?PR?_BUZZ_SET?BUZZER
            CODE    4E1BH     001BH     UNIT         ?CO?FSM
            CODE    4E36H     001BH     UNIT         ?CO?STATE_TEST
            CODE    4E51H     001BH     UNIT         ?CO?STATE_STARTUP
            CODE    4E6CH     001BH     UNIT         ?CO?STATE_STANDBY
            CODE    4E87H     001BH     UNIT         ?CO?STATE_CLOCKSETTING
            CODE    4EA2H     001BH     UNIT         ?CO?STATE_ECHECK
            CODE    4EBDH     001BH     UNIT         ?CO?STATE_TIMERSETTING
            CODE    4ED8H     001BH     UNIT         ?CO?STATE_TIMERFNSETTING
BL51 BANKED LINKER/LOCATER V6.22                                                      10/30/2015  13:58:41  PAGE 5


            CODE    4EF3H     001BH     UNIT         ?PR?_ENTEREVENTDEAL?STATE_TIMERLOOKUP
            CODE    4F0EH     001BH     UNIT         ?CO?STATE_TIMERLOOKUP
            CODE    4F29H     001BH     UNIT         ?CO?STATE_WORK
            CODE    4F44H     001AH     UNIT         ?PR?_AIP1944_WRITEBYTE?AIP1944
            CODE    4F5EH     001AH     UNIT         ?PR?_QUEUELEN?FIFO
            CODE    4F78H     0019H     UNIT         ?PR?CMD_WIFI_STA_CHANGE_DEAL?PROTOCOL
            CODE    4F91H     0018H     UNIT         ?PR?_TIMETICK?STATE_STARTUP
            CODE    4FA9H     0018H     UNIT         ?PR?_TIMETICK?STATE_CLOCKSETTING
            CODE    4FC1H     0018H     UNIT         ?PR?_TIMETICK?STATE_ECHECK
            CODE    4FD9H     0018H     UNIT         ?PR?_TIMETICK?STATE_TIMERSETTING
            CODE    4FF1H     0018H     UNIT         ?PR?_TIMETICK?STATE_TIMERFNSETTING
            CODE    5009H     0018H     UNIT         ?PR?_TIMETICK?STATE_TIMERLOOKUP
            CODE    5021H     0016H     UNIT         ?PR?UART_INIT?BSP_INIT
            CODE    5037H     0016H     UNIT         ?PR?_UTILS_GETADVALUE?HUMIDITY
            CODE    504DH     0016H     UNIT         ?PR?CMD_FIX_CTR_DEAL?PROTOCOL
            CODE    5063H     0016H     UNIT         ?PR?CMD_CLEAN_CTR_DEAL?PROTOCOL
            CODE    5079H     0015H     UNIT         ?PR?_QUEUEISEMPTY?FIFO
            CODE    508EH     0014H     UNIT         ?PR?_DISPLAY_SETALL?DISPLAY
            CODE    50A2H     0014H     UNIT         ?PR?DUST_DEVICEINIT?DUST
            CODE    50B6H     0013H     UNIT         ?PR?INT_TIMER0?IT
            CODE    50C9H     0012H     UNIT         ?PR?_BUZ_ONOFF?BSP_INIT
            CODE    50DBH     0012H     UNIT         ?PR?BUZZ_DEVICEINIT?BUZZER
            CODE    50EDH     0010H     UNIT         ?PR?HUMIDITY_DEVICEINIT?HUMIDITY
            CODE    50FDH     0010H     UNIT         ?PR?HOURDEC?STATE_CLOCKSETTING
            CODE    510DH     0010H     UNIT         ?PR?MINDEC?STATE_CLOCKSETTING
            CODE    511DH     000FH     UNIT         ?PR?_ADC_START?BSP_INIT
            CODE    512CH     000FH     UNIT         ?PR?HOURINC?STATE_CLOCKSETTING
            CODE    513BH     000FH     UNIT         ?PR?MININC?STATE_CLOCKSETTING
            CODE    514AH     000EH     UNIT         ?PR?_INITQUEUE?FIFO
            CODE    5158H     000EH     UNIT         ?PR?_ENTEREVENTDEAL?STATE_STARTUP
            CODE    5166H     000DH     UNIT         ?PR?TIMER0_INIT?BSP_INIT
            CODE    5173H     000DH     UNIT         ?PR?WT_INIT?BSP_INIT
            CODE    5180H     000AH     UNIT         ?PR?MOTOR_STOP?MOTOR
            CODE    518AH     000AH     UNIT         ?PR?_DISPLAYCONTROL?STATE_STARTUP
            CODE    5194H     000AH     UNIT         ?PR?_ENTEREVENTDEAL?STATE_CLOCKSETTING
            CODE    519EH     000AH     UNIT         ?PR?_ENTEREVENTDEAL?STATE_TIMERSETTING
            CODE    51A8H     0009H     UNIT         ?PR?WDT_INIT?BSP_INIT
            CODE    51B1H     0009H     UNIT         ?PR?UART_RXDATSDEAL?UART
            CODE    51BAH     0008H     UNIT         ?PR?LCD_INIT?BSP_INIT
            CODE    51C2H     0008H     UNIT         ?PR?PROTOCOL_INIT?PROTOCOL
            CODE    51CAH     0008H     UNIT         ?PR?_ENTEREVENTDEAL?STATE_ECHECK
            CODE    51D2H     0007H     UNIT         ?PR?ADC_INIT?BSP_INIT
            CODE    51D9H     0007H     UNIT         ?PR?BUZ_INIT?BSP_INIT
            CODE    51E0H     0007H     UNIT         ?PR?CLOCK_INIT?BSP_INIT
            CODE    51E7H     0006H     UNIT         ?PR?_ENTEREVENTDEAL?STATE_TIMERFNSETTING
            CODE    51EDH     0004H     UNIT         ?PR?WDT_CLEAR?BSP_INIT
            CODE    51F1H     0003H     UNIT         ?PR?_MOTORCTR?STATE_STARTUP
            CODE    51F4H     0003H     UNIT         ?PR?_MOTORCTR?STATE_STANDBY
            CODE    51F7H     0003H     UNIT         ?PR?_MOTORCTR?STATE_CLOCKSETTING
            CODE    51FAH     0003H     UNIT         ?PR?_MOTORCTR?STATE_ECHECK
            CODE    51FDH     0003H     UNIT         ?PR?_MOTORCTR?STATE_TIMERSETTING
            CODE    5200H     0003H     UNIT         ?PR?_MOTORCTR?STATE_TIMERFNSETTING
            CODE    5203H     0003H     UNIT         ?PR?_MOTORCTR?STATE_TIMERLOOKUP
            CODE    5206H     0001H     UNIT         ?PR?_KEYACTIONDEAL?STATE_TEST
            CODE    5207H     0001H     UNIT         ?PR?_TASKEXE?STATE_TEST
            CODE    5208H     0001H     UNIT         ?PR?_TIMETICK?STATE_TEST
            CODE    5209H     0001H     UNIT         ?PR?_MOTORCTR?STATE_TEST
BL51 BANKED LINKER/LOCATER V6.22                                                      10/30/2015  13:58:41  PAGE 6


            CODE    520AH     0001H     UNIT         ?PR?_IRDATADEAL?STATE_TEST
            CODE    520BH     0001H     UNIT         ?PR?_RXDATADEAL?STATE_TEST
            CODE    520CH     0001H     UNIT         ?PR?_ENTEREVENTDEAL?STATE_TEST
            CODE    520DH     0001H     UNIT         ?PR?_EXITEVENTDEAL?STATE_TEST
            CODE    520EH     0001H     UNIT         ?PR?_KEYACTIONDEAL?STATE_STARTUP
            CODE    520FH     0001H     UNIT         ?PR?_TASKEXE?STATE_STARTUP
            CODE    5210H     0001H     UNIT         ?PR?_IRDATADEAL?STATE_STARTUP
            CODE    5211H     0001H     UNIT         ?PR?_RXDATADEAL?STATE_STARTUP
            CODE    5212H     0001H     UNIT         ?PR?_EXITEVENTDEAL?STATE_STARTUP
            CODE    5213H     0001H     UNIT         ?PR?_TASKEXE?STATE_STANDBY
            CODE    5214H     0001H     UNIT         ?PR?_RXDATADEAL?STATE_STANDBY
            CODE    5215H     0001H     UNIT         ?PR?_EXITEVENTDEAL?STATE_STANDBY
            CODE    5216H     0001H     UNIT         ?PR?_TASKEXE?STATE_CLOCKSETTING
            CODE    5217H     0001H     UNIT         ?PR?_IRDATADEAL?STATE_CLOCKSETTING
            CODE    5218H     0001H     UNIT         ?PR?_RXDATADEAL?STATE_CLOCKSETTING
            CODE    5219H     0001H     UNIT         ?PR?_EXITEVENTDEAL?STATE_CLOCKSETTING
            CODE    521AH     0001H     UNIT         ?PR?_TASKEXE?STATE_ECHECK
            CODE    521BH     0001H     UNIT         ?PR?_IRDATADEAL?STATE_ECHECK
            CODE    521CH     0001H     UNIT         ?PR?_RXDATADEAL?STATE_ECHECK
            CODE    521DH     0001H     UNIT         ?PR?_EXITEVENTDEAL?STATE_ECHECK
            CODE    521EH     0001H     UNIT         ?PR?_TASKEXE?STATE_TIMERSETTING
            CODE    521FH     0001H     UNIT         ?PR?_IRDATADEAL?STATE_TIMERSETTING
            CODE    5220H     0001H     UNIT         ?PR?_RXDATADEAL?STATE_TIMERSETTING
            CODE    5221H     0001H     UNIT         ?PR?_EXITEVENTDEAL?STATE_TIMERSETTING
            CODE    5222H     0001H     UNIT         ?PR?_TASKEXE?STATE_TIMERFNSETTING
            CODE    5223H     0001H     UNIT         ?PR?_IRDATADEAL?STATE_TIMERFNSETTING
            CODE    5224H     0001H     UNIT         ?PR?_RXDATADEAL?STATE_TIMERFNSETTING
            CODE    5225H     0001H     UNIT         ?PR?_EXITEVENTDEAL?STATE_TIMERFNSETTING
            CODE    5226H     0001H     UNIT         ?PR?_TASKEXE?STATE_TIMERLOOKUP
            CODE    5227H     0001H     UNIT         ?PR?_IRDATADEAL?STATE_TIMERLOOKUP
            CODE    5228H     0001H     UNIT         ?PR?_RXDATADEAL?STATE_TIMERLOOKUP
            CODE    5229H     0001H     UNIT         ?PR?_EXITEVENTDEAL?STATE_TIMERLOOKUP
            CODE    522AH     0001H     UNIT         ?PR?_RXDATADEAL?STATE_WORK
            CODE    522BH     0001H     UNIT         ?PR?_EXITEVENTDEAL?STATE_WORK



OVERLAY MAP OF MODULE:   YTN-E608-WIFI-6432 (IT)


SEGMENT                                             BIT_GROUP          XDATA_GROUP
  +--> CALLED SEGMENT                            START    LENGTH     START    LENGTH
------------------------------------------------------------------------------------
?PR?INT_WT?IT                                    -----    -----      -----    -----
  +--> ?PR?INITALL?MAIN

?PR?INITALL?MAIN                                 -----    -----      -----    -----
  +--> ?PR?BSP_INIT?BSP_INIT
  +--> ?PR?BUZZ_DEVICEINIT?BUZZER
  +--> ?PR?UART_MEMORYINIT?UART
  +--> ?PR?PROTOCOL_INIT?PROTOCOL
  +--> ?PR?HUMIDITY_DEVICEINIT?HUMIDITY
  +--> ?PR?DUST_DEVICEINIT?DUST
  +--> ?CO?STATE_STANDBY
  +--> ?PR?_STATE_TRANSITIONTO?FSM
  +--> ?PR?_BUZZ_SET?BUZZER

BL51 BANKED LINKER/LOCATER V6.22                                                      10/30/2015  13:58:41  PAGE 7


?PR?BSP_INIT?BSP_INIT                            -----    -----      -----    -----
  +--> ?PR?PORT_INIT?BSP_INIT
  +--> ?PR?CLOCK_INIT?BSP_INIT
  +--> ?PR?WT_INIT?BSP_INIT
  +--> ?PR?ADC_INIT?BSP_INIT
  +--> ?PR?BIT_INIT?BSP_INIT
  +--> ?PR?BUZ_INIT?BSP_INIT
  +--> ?PR?LCD_INIT?BSP_INIT
  +--> ?PR?TIMER0_INIT?BSP_INIT
  +--> ?PR?TIMER1_INIT?BSP_INIT
  +--> ?PR?UART_INIT?BSP_INIT

?PR?UART_MEMORYINIT?UART                         -----    -----      -----    -----
  +--> ?PR?_INITQUEUE?FIFO

?PR?HUMIDITY_DEVICEINIT?HUMIDITY                 -----    -----      -----    -----
  +--> ?PR?_UTILS_GETADVALUE?HUMIDITY
  +--> ?PR?_HUMIDITY_AD2T?HUMIDITY
  +--> ?PR?_HUMIDITY_AD2H?HUMIDITY

?PR?_HUMIDITY_AD2T?HUMIDITY                      -----    -----      -----    -----
  +--> ?CO?HUMIDITY

?PR?_HUMIDITY_AD2H?HUMIDITY                      -----    -----      01B7H    0003H
  +--> ?PR?_HUMIDITY_GETH?HUMIDITY

?PR?_HUMIDITY_GETH?HUMIDITY                      -----    -----      01BAH    0003H
  +--> ?CO?HUMIDITY

?CO?STATE_STANDBY                                -----    -----      -----    -----
  +--> ?PR?_KEYACTIONDEAL?STATE_STANDBY
  +--> ?PR?_DISPLAYCONTROL?STATE_STANDBY
  +--> ?PR?_TASKEXE?STATE_STANDBY
  +--> ?PR?_TIMETICK?STATE_STANDBY
  +--> ?PR?_MOTORCTR?STATE_STANDBY
  +--> ?PR?_IRDATADEAL?STATE_STANDBY
  +--> ?PR?_RXDATADEAL?STATE_STANDBY
  +--> ?PR?_ENTEREVENTDEAL?STATE_STANDBY
  +--> ?PR?_EXITEVENTDEAL?STATE_STANDBY

?PR?_KEYACTIONDEAL?STATE_STANDBY                 -----    -----      -----    -----
  +--> ?PR?_BUZZ_SET?BUZZER
  +--> ?CO?STATE_WORK
  +--> ?CO?STATE_ECHECK
  +--> ?CO?STATE_TIMERLOOKUP
  +--> ?CO?STATE_CLOCKSETTING
  +--> ?CO?STATE_TIMERSETTING
  +--> ?CO?STATE_TIMERFNSETTING
  +--> ?PR?_STATE_TRANSITIONTO?FSM
  +--> ?PR?PROTOCOL_ENTERATMODE?PROTOCOL
  +--> ?PR?SYS_RESET?SYSTEM

?CO?STATE_WORK                                   -----    -----      -----    -----
  +--> ?PR?_KEYACTIONDEAL?STATE_WORK
  +--> ?PR?_DISPLAYCONTROL?STATE_WORK
  +--> ?PR?_TASKEXE?STATE_WORK
  +--> ?PR?_TIMETICK?STATE_WORK
BL51 BANKED LINKER/LOCATER V6.22                                                      10/30/2015  13:58:41  PAGE 8


  +--> ?PR?_MOTORCTR?STATE_WORK
  +--> ?PR?_IRDATADEAL?STATE_WORK
  +--> ?PR?_RXDATADEAL?STATE_WORK
  +--> ?PR?_ENTEREVENTDEAL?STATE_WORK
  +--> ?PR?_EXITEVENTDEAL?STATE_WORK

?PR?_KEYACTIONDEAL?STATE_WORK                    -----    -----      -----    -----
  +--> ?PR?_STATE_TRANSITIONTO?FSM
  +--> ?PR?_BUZZ_SET?BUZZER

?PR?_STATE_TRANSITIONTO?FSM                      0021H.4  0000H.2    01BBH    0002H

?PR?_DISPLAYCONTROL?STATE_WORK                   -----    -----      -----    -----
  +--> ?PR?_DISPLAY_SPLEVEL?DISPLAY
  +--> ?PR?DISPLAY_SETLINE?DISPLAY
  +--> ?PR?_DISPLAY_DUSTDATA?DISPLAY
  +--> ?PR?_DISPLAY_DUSTLEVEL?DISPLAY
  +--> ?PR?_DISPLAY_SHOWTEMPERATURE?DISPLAY
  +--> ?PR?_DISPLAY_SHOWHUMIDITY?DISPLAY
  +--> ?PR?_DISPLAY_SHOWRT?DISPLAY
  +--> ?PR?_DISPLAY_CIRCLERUN?DISPLAY
  +--> ?CO?SYSTEM

?PR?_DISPLAY_DUSTDATA?DISPLAY                    -----    -----      01BAH    0003H
  +--> ?CO?DISPLAY

?PR?_DISPLAY_SHOWTEMPERATURE?DISPLAY             -----    -----      -----    -----
  +--> ?CO?DISPLAY

?PR?_DISPLAY_SHOWHUMIDITY?DISPLAY                -----    -----      -----    -----
  +--> ?CO?DISPLAY

?PR?_DISPLAY_SHOWRT?DISPLAY                      0021H.5  0000H.2    -----    -----
  +--> ?CO?DISPLAY

?PR?_TIMETICK?STATE_WORK                         -----    -----      01BAH    0001H
  +--> ?PR?_STATE_TRANSITIONTO?FSM
  +--> ?PR?_BUZZ_SET?BUZZER
  +--> ?CO?SYSTEM

?PR?_MOTORCTR?STATE_WORK                         -----    -----      -----    -----
  +--> ?PR?MOTOR_STOP?MOTOR
  +--> ?PR?_MOTOR_RUN?MOTOR

?PR?_IRDATADEAL?STATE_WORK                       -----    -----      -----    -----
  +--> ?PR?_BUZZ_SET?BUZZER
  +--> ?PR?_STATE_TRANSITIONTO?FSM

?PR?_ENTEREVENTDEAL?STATE_WORK                   -----    -----      -----    -----
  +--> ?PR?DUST_DEVICEINIT?DUST

?CO?STATE_ECHECK                                 -----    -----      -----    -----
  +--> ?PR?_KEYACTIONDEAL?STATE_ECHECK
  +--> ?PR?_DISPLAYCONTROL?STATE_ECHECK
  +--> ?PR?_TASKEXE?STATE_ECHECK
  +--> ?PR?_TIMETICK?STATE_ECHECK
  +--> ?PR?_MOTORCTR?STATE_ECHECK
BL51 BANKED LINKER/LOCATER V6.22                                                      10/30/2015  13:58:41  PAGE 9


  +--> ?PR?_IRDATADEAL?STATE_ECHECK
  +--> ?PR?_RXDATADEAL?STATE_ECHECK
  +--> ?PR?_ENTEREVENTDEAL?STATE_ECHECK
  +--> ?PR?_EXITEVENTDEAL?STATE_ECHECK

?PR?_KEYACTIONDEAL?STATE_ECHECK                  -----    -----      -----    -----
  +--> ?PR?_BUZZ_SET?BUZZER

?PR?_DISPLAYCONTROL?STATE_ECHECK                 -----    -----      -----    -----
  +--> ?PR?_DISPLAY_SHOWNUMINRTCAREA?DISPLAY

?PR?_DISPLAY_SHOWNUMINRTCAREA?DISPLAY            -----    -----      01BAH    0003H
  +--> ?CO?DISPLAY

?PR?_TIMETICK?STATE_ECHECK                       -----    -----      -----    -----
  +--> ?PR?_STATE_TRANSITIONTO?FSM

?PR?_MOTORCTR?STATE_ECHECK                       -----    -----      -----    -----
  +--> ?PR?MOTOR_STOP?MOTOR

?CO?STATE_TIMERLOOKUP                            -----    -----      -----    -----
  +--> ?PR?_KEYACTIONDEAL?STATE_TIMERLOOKUP
  +--> ?PR?_DISPLAYCONTROL?STATE_TIMERLOOKUP
  +--> ?PR?_TASKEXE?STATE_TIMERLOOKUP
  +--> ?PR?_TIMETICK?STATE_TIMERLOOKUP
  +--> ?PR?_MOTORCTR?STATE_TIMERLOOKUP
  +--> ?PR?_IRDATADEAL?STATE_TIMERLOOKUP
  +--> ?PR?_RXDATADEAL?STATE_TIMERLOOKUP
  +--> ?PR?_ENTEREVENTDEAL?STATE_TIMERLOOKUP
  +--> ?PR?_EXITEVENTDEAL?STATE_TIMERLOOKUP

?PR?_KEYACTIONDEAL?STATE_TIMERLOOKUP             -----    -----      -----    -----
  +--> ?PR?GETNEXTACTIVETIMERINDEX?STATE_TIM...
  +--> ?PR?_BUZZ_SET?BUZZER

?PR?GETNEXTACTIVETIMERINDEX?STATE_TIM...         -----    -----      -----    -----
  +--> ?CO?SYSTEM

?PR?_DISPLAYCONTROL?STATE_TIMERLOOKUP            -----    -----      -----    -----
  +--> ?PR?_DISPLAY_SHOWNUMINRTCAREA?DISPLAY
  +--> ?CO?SYSTEM
  +--> ?PR?_DISPLAY_SHOWRT?DISPLAY

?PR?_TIMETICK?STATE_TIMERLOOKUP                  -----    -----      -----    -----
  +--> ?PR?_STATE_TRANSITIONTO?FSM

?PR?_MOTORCTR?STATE_TIMERLOOKUP                  -----    -----      -----    -----
  +--> ?PR?MOTOR_STOP?MOTOR

?PR?_ENTEREVENTDEAL?STATE_TIMERLOOKUP            -----    -----      -----    -----
  +--> ?PR?GETNEXTACTIVETIMERINDEX?STATE_TIM...

?CO?STATE_CLOCKSETTING                           -----    -----      -----    -----
  +--> ?PR?_KEYACTIONDEAL?STATE_CLOCKSETTING
  +--> ?PR?_DISPLAYCONTROL?STATE_CLOCKSETTING
  +--> ?PR?_TASKEXE?STATE_CLOCKSETTING
  +--> ?PR?_TIMETICK?STATE_CLOCKSETTING
BL51 BANKED LINKER/LOCATER V6.22                                                      10/30/2015  13:58:41  PAGE 10


  +--> ?PR?_MOTORCTR?STATE_CLOCKSETTING
  +--> ?PR?_IRDATADEAL?STATE_CLOCKSETTING
  +--> ?PR?_RXDATADEAL?STATE_CLOCKSETTING
  +--> ?PR?_ENTEREVENTDEAL?STATE_CLOCKSETTING
  +--> ?PR?_EXITEVENTDEAL?STATE_CLOCKSETTING

?PR?_KEYACTIONDEAL?STATE_CLOCKSETTING            -----    -----      -----    -----
  +--> ?PR?HOURINC?STATE_CLOCKSETTING
  +--> ?PR?MININC?STATE_CLOCKSETTING
  +--> ?PR?HOURDEC?STATE_CLOCKSETTING
  +--> ?PR?MINDEC?STATE_CLOCKSETTING
  +--> ?PR?_BUZZ_SET?BUZZER

?PR?_DISPLAYCONTROL?STATE_CLOCKSETTING           -----    -----      -----    -----
  +--> ?PR?_DISPLAY_SHOWRT?DISPLAY

?PR?_TIMETICK?STATE_CLOCKSETTING                 -----    -----      -----    -----
  +--> ?PR?_STATE_TRANSITIONTO?FSM

?PR?_MOTORCTR?STATE_CLOCKSETTING                 -----    -----      -----    -----
  +--> ?PR?MOTOR_STOP?MOTOR

?CO?STATE_TIMERSETTING                           -----    -----      -----    -----
  +--> ?PR?_KEYACTIONDEAL?STATE_TIMERSETTING
  +--> ?PR?_DISPLAYCONTROL?STATE_TIMERSETTING
  +--> ?PR?_TASKEXE?STATE_TIMERSETTING
  +--> ?PR?_TIMETICK?STATE_TIMERSETTING
  +--> ?PR?_MOTORCTR?STATE_TIMERSETTING
  +--> ?PR?_IRDATADEAL?STATE_TIMERSETTING
  +--> ?PR?_RXDATADEAL?STATE_TIMERSETTING
  +--> ?PR?_ENTEREVENTDEAL?STATE_TIMERSETTING
  +--> ?PR?_EXITEVENTDEAL?STATE_TIMERSETTING

?PR?_KEYACTIONDEAL?STATE_TIMERSETTING            0021H.4  0000H.1    01BAH    0003H
  +--> ?CO?SYSTEM
  +--> ?PR?_BUZZ_SET?BUZZER

?PR?_DISPLAYCONTROL?STATE_TIMERSETTING           0021H.4  0000H.1    -----    -----
  +--> ?PR?_DISPLAY_SHOWNUMINRTCAREA?DISPLAY
  +--> ?CO?SYSTEM
  +--> ?PR?_DISPLAY_SHOWRT?DISPLAY

?PR?_TIMETICK?STATE_TIMERSETTING                 -----    -----      -----    -----
  +--> ?PR?_STATE_TRANSITIONTO?FSM

?PR?_MOTORCTR?STATE_TIMERSETTING                 -----    -----      -----    -----
  +--> ?PR?MOTOR_STOP?MOTOR

?CO?STATE_TIMERFNSETTING                         -----    -----      -----    -----
  +--> ?PR?_KEYACTIONDEAL?STATE_TIMERFNSETTING
  +--> ?PR?_DISPLAYCONTROL?STATE_TIMERFNSETTING
  +--> ?PR?_TASKEXE?STATE_TIMERFNSETTING
  +--> ?PR?_TIMETICK?STATE_TIMERFNSETTING
  +--> ?PR?_MOTORCTR?STATE_TIMERFNSETTING
  +--> ?PR?_IRDATADEAL?STATE_TIMERFNSETTING
  +--> ?PR?_RXDATADEAL?STATE_TIMERFNSETTING
  +--> ?PR?_ENTEREVENTDEAL?STATE_TIMERFNSETTING
BL51 BANKED LINKER/LOCATER V6.22                                                      10/30/2015  13:58:41  PAGE 11


  +--> ?PR?_EXITEVENTDEAL?STATE_TIMERFNSETTING

?PR?_KEYACTIONDEAL?STATE_TIMERFNSETTING          -----    -----      -----    -----
  +--> ?PR?_BUZZ_SET?BUZZER

?PR?_TIMETICK?STATE_TIMERFNSETTING               -----    -----      -----    -----
  +--> ?PR?_STATE_TRANSITIONTO?FSM

?PR?_MOTORCTR?STATE_TIMERFNSETTING               -----    -----      -----    -----
  +--> ?PR?MOTOR_STOP?MOTOR

?PR?PROTOCOL_ENTERATMODE?PROTOCOL                -----    -----      -----    -----
  +--> ?PR?_ENQUEUE?FIFO
  +--> ?PR?UART_SENDSTARTUP?UART

?PR?_ENQUEUE?FIFO                                -----    -----      01BFH    0004H
  +--> ?PR?_QUEUEISFULL?FIFO

?PR?_QUEUEISFULL?FIFO                            -----    -----      01C3H    0003H

?PR?UART_SENDSTARTUP?UART                        -----    -----      -----    -----
  +--> ?PR?_QUEUELEN?FIFO
  +--> ?PR?_DEQUEUE?FIFO

?PR?_DEQUEUE?FIFO                                -----    -----      01BFH    0004H
  +--> ?PR?_QUEUEISEMPTY?FIFO

?PR?_DISPLAYCONTROL?STATE_STANDBY                -----    -----      -----    -----
  +--> ?PR?_DISPLAY_DUSTDATA?DISPLAY
  +--> ?PR?_DISPLAY_SHOWRT?DISPLAY

?PR?_TIMETICK?STATE_STANDBY                      -----    -----      -----    -----
  +--> ?PR?PROTOCOL_RESETWIFIMODE?PROTOCOL
  +--> ?CO?SYSTEM
  +--> ?PR?_BUZZ_SET?BUZZER
  +--> ?CO?STATE_WORK
  +--> ?PR?_STATE_TRANSITIONTO?FSM

?PR?PROTOCOL_RESETWIFIMODE?PROTOCOL              -----    -----      -----    -----
  +--> ?PR?_ENQUEUE?FIFO
  +--> ?PR?UART_SENDSTARTUP?UART

?PR?_MOTORCTR?STATE_STANDBY                      -----    -----      -----    -----
  +--> ?PR?MOTOR_STOP?MOTOR

?PR?_IRDATADEAL?STATE_STANDBY                    -----    -----      -----    -----
  +--> ?PR?_BUZZ_SET?BUZZER
  +--> ?CO?STATE_WORK
  +--> ?PR?_STATE_TRANSITIONTO?FSM

?PR?_ENTEREVENTDEAL?STATE_STANDBY                -----    -----      -----    -----
  +--> ?PR?SYS_UPDATETIMERONINDEX?SYSTEM

?PR?SYS_UPDATETIMERONINDEX?SYSTEM                -----    -----      01BAH    0005H
  +--> ?CO?SYSTEM

*** NEW ROOT ***************************************************
BL51 BANKED LINKER/LOCATER V6.22                                                      10/30/2015  13:58:41  PAGE 12



?PR?INT_BIT?IT                                   -----    -----      -----    -----
  +--> ?PR?DISPLAY_LEDDRIVE?DISPLAY

?PR?DISPLAY_LEDDRIVE?DISPLAY                     0021H.4  0000H.1    -----    -----

*** NEW ROOT ***************************************************

?C_C51STARTUP                                    -----    -----      -----    -----
  +--> ?PR?MAIN?MAIN
  +--> ?C_INITSEG

?PR?MAIN?MAIN                                    -----    -----      -----    -----
  +--> ?PR?INITALL?MAIN
  +--> ?PR?UART_RXDATSDEAL?UART
  +--> ?PR?_UTILS_GETADVALUE?HUMIDITY
  +--> ?PR?KEY_ACTIONDETECT?KEY
  +--> ?PR?DISPLAY_LEDDRIVE?DISPLAY
  +--> ?PR?BUZZ_CTR?BUZZER
  +--> ?PR?DUST_DATAUPDATE?DUST
  +--> ?PR?MOTOR_CTR?MOTOR
  +--> ?PR?SYS_LOADCTR?SYSTEM
  +--> ?PR?SYS_ENTERSTOPMODE?SYSTEM
  +--> ?PR?DISPLAY_CTR?DISPLAY
  +--> ?PR?HUMIDITY_GETCURRENTT?HUMIDITY
  +--> ?PR?HUMIDITY_GETCURRENTH?HUMIDITY
  +--> ?PR?DUST_LEVELUPDATE?DUST

?PR?UART_RXDATSDEAL?UART                         -----    -----      -----    -----
  +--> ?PR?PROTOCOL_TASK?PROTOCOL

?PR?PROTOCOL_TASK?PROTOCOL                       -----    -----      01B6H    0004H
  +--> ?PR?CMD_DUMMY_DEAL?PROTOCOL
  +--> ?CO?PROTOCOL

?CO?PROTOCOL                                     -----    -----      -----    -----
  +--> ?PR?CMD_GET_SYS_STA_DEAL?PROTOCOL
  +--> ?PR?CMD_POWER_CTR_DEAL?PROTOCOL
  +--> ?PR?CMD_FAN_CTR_DEAL?PROTOCOL
  +--> ?PR?CMD_FIX_CTR_DEAL?PROTOCOL
  +--> ?PR?CMD_CLEAN_CTR_DEAL?PROTOCOL
  +--> ?PR?CMD_AION_CTR_DEAL?PROTOCOL
  +--> ?PR?CMD_UV_CTR_DEAL?PROTOCOL
  +--> ?PR?CMD_TIMER_CTR_DEAL?PROTOCOL
  +--> ?PR?CMD_GET_PM_DATAS_DEAL?PROTOCOL
  +--> ?PR?CMD_GET_ENE_DATAS_DEAL?PROTOCOL
  +--> ?PR?CMD_RT_SET_DEAL?PROTOCOL
  +--> ?PR?CMD_MEM_SET_DEAL?PROTOCOL
  +--> ?PR?CMD_REST_DEAL?PROTOCOL
  +--> ?PR?CMD_GET_DEVICE_INFO_DEAL?PROTOCOL
  +--> ?PR?CMD_WIFI_STA_CHANGE_DEAL?PROTOCOL

?PR?CMD_GET_SYS_STA_DEAL?PROTOCOL                -----    -----      -----    -----
  +--> ?PR?_PROTOCOL_STARESP?PROTOCOL

?PR?_PROTOCOL_STARESP?PROTOCOL                   -----    -----      01BAH    0002H
  +--> ?PR?_ENQUEUE?FIFO
BL51 BANKED LINKER/LOCATER V6.22                                                      10/30/2015  13:58:41  PAGE 13


  +--> ?PR?UART_SENDSTARTUP?UART

?PR?CMD_POWER_CTR_DEAL?PROTOCOL                  -----    -----      -----    -----
  +--> ?CO?STATE_WORK
  +--> ?CO?STATE_STANDBY
  +--> ?PR?_STATE_TRANSITIONTO?FSM
  +--> ?PR?_BUZZ_SET?BUZZER
  +--> ?PR?_PROTOCOL_STARESP?PROTOCOL

?PR?CMD_FAN_CTR_DEAL?PROTOCOL                    -----    -----      -----    -----
  +--> ?PR?_BUZZ_SET?BUZZER
  +--> ?PR?_PROTOCOL_STARESP?PROTOCOL

?PR?CMD_FIX_CTR_DEAL?PROTOCOL                    -----    -----      -----    -----
  +--> ?PR?_BUZZ_SET?BUZZER
  +--> ?PR?_PROTOCOL_STARESP?PROTOCOL

?PR?CMD_CLEAN_CTR_DEAL?PROTOCOL                  -----    -----      -----    -----
  +--> ?PR?_BUZZ_SET?BUZZER
  +--> ?PR?_PROTOCOL_STARESP?PROTOCOL

?PR?CMD_AION_CTR_DEAL?PROTOCOL                   -----    -----      -----    -----
  +--> ?PR?_BUZZ_SET?BUZZER
  +--> ?PR?_PROTOCOL_STARESP?PROTOCOL

?PR?CMD_UV_CTR_DEAL?PROTOCOL                     -----    -----      -----    -----
  +--> ?PR?_BUZZ_SET?BUZZER
  +--> ?PR?_PROTOCOL_STARESP?PROTOCOL

?PR?CMD_TIMER_CTR_DEAL?PROTOCOL                  -----    -----      -----    -----
  +--> ?PR?SYS_UPDATETIMERONINDEX?SYSTEM
  +--> ?PR?_BUZZ_SET?BUZZER
  +--> ?PR?_PROTOCOL_STARESP?PROTOCOL

?PR?CMD_GET_PM_DATAS_DEAL?PROTOCOL               -----    -----      01BAH    0005H
  +--> ?PR?_ENQUEUE?FIFO
  +--> ?PR?_BUZZ_SET?BUZZER
  +--> ?PR?UART_SENDSTARTUP?UART

?PR?CMD_GET_ENE_DATAS_DEAL?PROTOCOL              -----    -----      01BAH    0002H
  +--> ?PR?_ENQUEUE?FIFO
  +--> ?PR?_BUZZ_SET?BUZZER
  +--> ?PR?UART_SENDSTARTUP?UART

?PR?CMD_RT_SET_DEAL?PROTOCOL                     -----    -----      -----    -----
  +--> ?PR?_BUZZ_SET?BUZZER
  +--> ?PR?_PROTOCOL_STARESP?PROTOCOL

?PR?CMD_MEM_SET_DEAL?PROTOCOL                    -----    -----      -----    -----
  +--> ?CO?STATE_STANDBY
  +--> ?PR?_STATE_TRANSITIONTO?FSM
  +--> ?PR?_BUZZ_SET?BUZZER
  +--> ?PR?_PROTOCOL_STARESP?PROTOCOL

?PR?CMD_REST_DEAL?PROTOCOL                       -----    -----      -----    -----
  +--> ?PR?SYS_RESET?SYSTEM
  +--> ?CO?STATE_STANDBY
BL51 BANKED LINKER/LOCATER V6.22                                                      10/30/2015  13:58:41  PAGE 14


  +--> ?PR?_STATE_TRANSITIONTO?FSM
  +--> ?PR?_BUZZ_SET?BUZZER
  +--> ?PR?_PROTOCOL_STARESP?PROTOCOL

?PR?CMD_GET_DEVICE_INFO_DEAL?PROTOCOL            -----    -----      01BAH    0001H
  +--> ?PR?_ENQUEUE?FIFO
  +--> ?PR?UART_SENDSTARTUP?UART

?PR?KEY_ACTIONDETECT?KEY                         -----    -----      01B6H    0001H
  +--> ?PR?KEY_READ?KEY

?PR?DUST_DATAUPDATE?DUST                         -----    -----      -----    -----
  +--> ?PR?DUST_GETRTLEVEL?DUST

?PR?MOTOR_CTR?MOTOR                              -----    -----      01B6H    0006H

?PR?DISPLAY_CTR?DISPLAY                          -----    -----      -----    -----
  +--> ?PR?_DISPLAY_SETALL?DISPLAY
  +--> ?PR?_AIP1944_WRITEDISPDATAS?AIP1944

?PR?_AIP1944_WRITEDISPDATAS?AIP1944              -----    -----      01B6H    0005H
  +--> ?PR?_AIP1944_WRITEBYTE?AIP1944

?PR?HUMIDITY_GETCURRENTT?HUMIDITY                -----    -----      -----    -----
  +--> ?PR?_UTILS_GETADVALUE?HUMIDITY
  +--> ?PR?_HUMIDITY_AD2T?HUMIDITY

?PR?HUMIDITY_GETCURRENTH?HUMIDITY                -----    -----      01B6H    0001H
  +--> ?PR?_HUMIDITY_AD2H?HUMIDITY

?PR?DUST_LEVELUPDATE?DUST                        -----    -----      -----    -----
  +--> ?PR?DUST_GETRTLEVEL?DUST

?C_INITSEG                                       -----    -----      -----    -----
  +--> ?CO?FSM

?CO?FSM                                          -----    -----      -----    -----
  +--> ?PR?TASK_DONOTHING?FSM



SYMBOL TABLE OF MODULE:  YTN-E608-WIFI-6432 (IT)

  VALUE           TYPE          NAME
  ----------------------------------

  -------         MODULE        IT
  C:0000H         SYMBOL        _ICE_DUMMY_
  D:0080H         PUBLIC        P0
  C:50B6H         PUBLIC        INT_Timer0
  D:0088H         PUBLIC        P1
  D:0090H         PUBLIC        P2
  D:0098H         PUBLIC        P3
  D:00A0H         PUBLIC        P4
  D:00B0H         PUBLIC        P5
  D:008DH         PUBLIC        WDTCR
  D:00A8H         PUBLIC        IE
BL51 BANKED LINKER/LOCATER V6.22                                                      10/30/2015  13:58:41  PAGE 15


  D:00B2H         PUBLIC        T0CR
  C:3E53H         PUBLIC        INT_USI1_Rx
  C:40DCH         PUBLIC        INT_USI1_Tx
  C:2573H         PUBLIC        INT_BIT
  D:0087H         PUBLIC        PCON
  B:0090H.2       PUBLIC        P22
  B:0090H.3       PUBLIC        P23
  D:00F5H         PUBLIC        USI1DR
  D:00ABH         PUBLIC        IE3
  X:01F6H         PUBLIC        SysTick_4ms
  X:01F7H         SYMBOL        pgCntH
  I:0011H         PUBLIC        SquGen_Cnt
  D:00B3H         PUBLIC        T0CNT
  I:0012H         SYMBOL        IR_Flags
  D:00EAH         PUBLIC        USI1CR2
  C:304EH         PUBLIC        INT_WT
  -------         PROC          INT_USI1_RX
  -------         DO            
  D:0007H         SYMBOL        len
  -------         ENDDO         
  C:3E53H         LINE#         7
  C:3E70H         LINE#         12
  C:3E76H         LINE#         15
  C:3E91H         LINE#         16
  C:3EB8H         LINE#         19
  C:3EDCH         LINE#         20
  C:3EE2H         LINE#         21
  C:3EE2H         LINE#         22
  C:3EE4H         LINE#         23
  C:3EE4H         LINE#         24
  -------         ENDPROC       INT_USI1_RX
  -------         PROC          INT_USI1_TX
  C:40DCH         LINE#         26
  C:40F9H         LINE#         31
  C:4114H         LINE#         32
  C:413BH         LINE#         35
  C:414BH         LINE#         36
  C:414BH         LINE#         37
  C:414DH         LINE#         38
  C:4150H         LINE#         39
  C:4150H         LINE#         40
  -------         ENDPROC       INT_USI1_TX
  -------         PROC          INT_TIMER0
  C:50B6H         LINE#         43
  C:50BCH         LINE#         46
  C:50C2H         LINE#         47
  -------         ENDPROC       INT_TIMER0
  -------         PROC          INT_WT
  -------         DO            
  X:01F4H         SYMBOL        rt_05sCnt
  X:01F5H         SYMBOL        clearMemoryDataCnt
  -------         ENDDO         
  C:304EH         LINE#         51
  C:306BH         LINE#         58
  C:3080H         LINE#         59
  C:3083H         LINE#         60
  C:3088H         LINE#         62
BL51 BANKED LINKER/LOCATER V6.22                                                      10/30/2015  13:58:41  PAGE 16


  C:3092H         LINE#         63
  C:3092H         LINE#         64
  C:3094H         LINE#         65
  C:3096H         LINE#         66
  C:30A5H         LINE#         67
  C:30A5H         LINE#         68
  C:30A7H         LINE#         69
  C:30A7H         LINE#         71
  C:30A9H         LINE#         74
  C:30ABH         LINE#         77
  C:30B1H         LINE#         78
  C:30B7H         LINE#         79
  C:30B7H         LINE#         80
  C:30B9H         LINE#         82
  C:30BFH         LINE#         84
  C:30C5H         LINE#         85
  C:30CDH         LINE#         86
  C:30CDH         LINE#         87
  C:30D2H         LINE#         89
  C:30D4H         LINE#         91
  C:30DAH         LINE#         92
  C:30E0H         LINE#         93
  C:30E0H         LINE#         94
  C:30E2H         LINE#         96
  C:30E8H         LINE#         97
  C:30EDH         LINE#         98
  C:30EDH         LINE#         99
  C:30EFH         LINE#         100
  C:30EFH         LINE#         101
  C:30EFH         LINE#         102
  C:30EFH         LINE#         103
  C:30EFH         LINE#         106
  C:30F2H         LINE#         108
  C:30F7H         LINE#         109
  C:30F7H         LINE#         111
  C:30FAH         LINE#         112
  C:30FEH         LINE#         113
  C:3102H         LINE#         115
  C:3105H         LINE#         116
  C:3108H         LINE#         117
  C:310BH         LINE#         119
  C:310EH         LINE#         120
  C:3111H         LINE#         121
  C:3114H         LINE#         122
  C:3117H         LINE#         123
  C:311AH         LINE#         124
  C:311DH         LINE#         128
  C:3123H         LINE#         129
  C:3129H         LINE#         130
  C:3129H         LINE#         131
  C:312CH         LINE#         132
  C:312EH         LINE#         133
  C:312EH         LINE#         134
  C:3130H         LINE#         136
  C:3130H         LINE#         137
  C:3136H         LINE#         138
  C:3136H         LINE#         139
BL51 BANKED LINKER/LOCATER V6.22                                                      10/30/2015  13:58:41  PAGE 17


  C:3139H         LINE#         140
  C:3139H         LINE#         142
  C:313EH         LINE#         143
  C:313EH         LINE#         144
  -------         ENDPROC       INT_WT
  -------         PROC          INT_BIT
  -------         DO            
  I:0008H         SYMBOL        t_128usCnt
  I:0009H         SYMBOL        rx_mode
  I:000AH         SYMBOL        rxCount
  I:000CH         SYMBOL        dataCount
  I:000DH         SYMBOL        rxData
  I:000FH         SYMBOL        Dust_SignalLowHoldCnt
  -------         ENDDO         
  C:2573H         LINE#         172
  C:2590H         LINE#         185
  C:2595H         LINE#         186
  C:2595H         LINE#         187
  C:259BH         LINE#         188
  C:259EH         LINE#         190
  C:25A7H         LINE#         191
  C:25A7H         LINE#         192
  C:25AAH         LINE#         193
  C:25ADH         LINE#         196
  C:25B3H         LINE#         197
  C:25B3H         LINE#         199
  C:25C2H         LINE#         200
  C:25C2H         LINE#         201
  C:25C5H         LINE#         202
  C:25C9H         LINE#         203
  C:25CFH         LINE#         204
  C:25D6H         LINE#         205
  C:25D6H         LINE#         206
  C:25D8H         LINE#         208
  C:25DDH         LINE#         209
  C:25DDH         LINE#         210
  C:25EAH         LINE#         212
  C:25F6H         LINE#         213
  C:25F6H         LINE#         214
  C:25FCH         LINE#         215
  C:25FCH         LINE#         216
  C:2603H         LINE#         218
  C:2605H         LINE#         220
  C:260BH         LINE#         221
  C:260BH         LINE#         222
  C:2618H         LINE#         224
  C:261CH         LINE#         225
  C:2622H         LINE#         226
  C:2625H         LINE#         228
  C:2627H         LINE#         229
  C:2627H         LINE#         230
  C:2629H         LINE#         232
  C:262FH         LINE#         233
  C:262FH         LINE#         234
  C:263BH         LINE#         235
  C:263BH         LINE#         236
  C:263EH         LINE#         237
BL51 BANKED LINKER/LOCATER V6.22                                                      10/30/2015  13:58:41  PAGE 18


  C:2644H         LINE#         238
  C:2647H         LINE#         239
  C:2647H         LINE#         240
  C:2647H         LINE#         241
  C:2647H         LINE#         243
  C:264EH         LINE#         244
  C:264EH         LINE#         245
  C:2656H         LINE#         247
  C:2662H         LINE#         248
  C:2662H         LINE#         249
  C:2667H         LINE#         250
  C:266DH         LINE#         251
  C:2671H         LINE#         252
  C:2676H         LINE#         253
  C:2676H         LINE#         254
  C:2676H         LINE#         257
  C:2679H         LINE#         258
  C:267FH         LINE#         259
  C:267FH         LINE#         260
  C:2681H         LINE#         261
  C:2683H         LINE#         262
  C:2685H         LINE#         263
  C:268DH         LINE#         264
  C:268DH         LINE#         265
  C:268FH         LINE#         266
  C:2691H         LINE#         267
  C:2695H         LINE#         268
  C:2695H         LINE#         269
  C:2697H         LINE#         270
  C:2697H         LINE#         271
  C:2697H         LINE#         274
  C:269CH         LINE#         275
  C:269CH         LINE#         276
  C:26A6H         LINE#         277
  C:26A6H         LINE#         278
  C:26AEH         LINE#         279
  C:26B0H         LINE#         280
  C:26B0H         LINE#         281
  C:26B7H         LINE#         282
  C:26B9H         LINE#         284
  C:26B9H         LINE#         285
  C:26C1H         LINE#         286
  C:26C1H         LINE#         291
  C:26C4H         LINE#         292
  C:26CAH         LINE#         293
  C:26CAH         LINE#         294
  C:26CCH         LINE#         296
  C:26D2H         LINE#         298
  C:26D7H         LINE#         300
  C:26DDH         LINE#         301
  C:26DDH         LINE#         302
  C:26E0H         LINE#         303
  C:26E3H         LINE#         304
  C:26E3H         LINE#         305
  C:26E5H         LINE#         306
  C:26E5H         LINE#         307
  C:26E5H         LINE#         308
BL51 BANKED LINKER/LOCATER V6.22                                                      10/30/2015  13:58:41  PAGE 19


  C:26E5H         LINE#         310
  C:26E8H         LINE#         311
  C:26E8H         LINE#         312
  C:26F0H         LINE#         313
  C:26F0H         LINE#         314
  C:26F3H         LINE#         315
  C:26F3H         LINE#         316
  C:26F3H         LINE#         317
  -------         ENDPROC       INT_BIT
  -------         ENDMOD        IT

  -------         MODULE        ?C_STARTUP
  C:4042H         SEGMENT       ?C_C51STARTUP
  I:0025H         SEGMENT       ?STACK
  C:0000H         PUBLIC        ?C_STARTUP
  D:00E0H         SYMBOL        ACC
  D:00F0H         SYMBOL        B
  D:0083H         SYMBOL        DPH
  D:0082H         SYMBOL        DPL
  N:0000H         SYMBOL        IBPSTACK
  N:0100H         SYMBOL        IBPSTACKTOP
  N:0100H         SYMBOL        IDATALEN
  C:4045H         SYMBOL        IDATALOOP
  N:0000H         SYMBOL        PBPSTACK
  N:0000H         SYMBOL        PBPSTACKTOP
  N:0000H         SYMBOL        PDATALEN
  N:0000H         SYMBOL        PDATASTART
  N:0000H         SYMBOL        PPAGE
  N:0000H         SYMBOL        PPAGEENABLE
  D:00A0H         SYMBOL        PPAGE_SFR
  D:0081H         SYMBOL        SP
  C:4042H         SYMBOL        STARTUP1
  N:0000H         SYMBOL        XBPSTACK
  N:0000H         SYMBOL        XBPSTACKTOP
  N:02E5H         SYMBOL        XDATALEN
  C:4050H         SYMBOL        XDATALOOP
  N:001BH         SYMBOL        XDATASTART
  C:0000H         LINE#         94
  C:4042H         LINE#         101
  C:4044H         LINE#         102
  C:4045H         LINE#         103
  C:4046H         LINE#         104
  C:4048H         LINE#         108
  C:404BH         LINE#         109
  C:404DH         LINE#         111
  C:404FH         LINE#         115
  C:4050H         LINE#         116
  C:4051H         LINE#         117
  C:4052H         LINE#         118
  C:4054H         LINE#         119
  C:4056H         LINE#         153
  C:4059H         LINE#         157
  -------         ENDMOD        ?C_STARTUP

  -------         MODULE        MAIN
  C:0000H         SYMBOL        _ICE_DUMMY_
  D:008DH         PUBLIC        WDTCR
BL51 BANKED LINKER/LOCATER V6.22                                                      10/30/2015  13:58:41  PAGE 20


  D:00A8H         PUBLIC        IE
  C:392BH         PUBLIC        main
  C:4BCDH         PUBLIC        initAll
  -------         PROC          INITALL
  C:4BCDH         LINE#         3
  C:4BCDH         LINE#         4
  C:4BCDH         LINE#         5
  C:4BD0H         LINE#         6
  C:4BD3H         LINE#         7
  C:4BD6H         LINE#         8
  C:4BD9H         LINE#         9
  C:4BDCH         LINE#         10
  C:4BDFH         LINE#         12
  C:4BE5H         LINE#         13
  C:4BE7H         LINE#         17
  C:4BF2H         LINE#         21
  C:4BFBH         LINE#         23
  C:4BFEH         LINE#         24
  -------         ENDPROC       INITALL
  -------         PROC          MAIN
  -------         DO            
  I:0013H         SYMBOL        taskIndex
  I:0014H         SYMBOL        taskIndexExt
  I:0015H         SYMBOL        HSampleT_Cnt
  -------         ENDDO         
  C:392BH         LINE#         26
  C:392BH         LINE#         27
  C:392BH         LINE#         33
  C:392EH         LINE#         35
  C:392EH         LINE#         36
  C:392EH         LINE#         37
  C:3931H         LINE#         39
  C:3934H         LINE#         41
  C:393CH         LINE#         42
  C:393CH         LINE#         43
  C:3943H         LINE#         44
  C:3943H         LINE#         45
  C:394CH         LINE#         46
  C:3950H         LINE#         47
  C:3950H         LINE#         48
  C:3950H         LINE#         50
  C:3956H         LINE#         51
  C:3956H         LINE#         52
  C:3958H         LINE#         54
  C:395BH         LINE#         55
  C:395BH         LINE#         56
  C:395DH         LINE#         58
  C:3977H         LINE#         59
  C:3977H         LINE#         61
  C:397AH         LINE#         62
  C:397CH         LINE#         64
  C:397EH         LINE#         66
  C:3992H         LINE#         67
  C:3992H         LINE#         68
  C:3992H         LINE#         69
  C:3995H         LINE#         70
  C:399AH         LINE#         71
BL51 BANKED LINKER/LOCATER V6.22                                                      10/30/2015  13:58:41  PAGE 21


  C:399CH         LINE#         72
  C:399CH         LINE#         73
  C:399FH         LINE#         74
  C:39A1H         LINE#         75
  C:39A1H         LINE#         76
  C:39A4H         LINE#         77
  C:39A6H         LINE#         78
  C:39A6H         LINE#         79
  C:39A9H         LINE#         80
  C:39ABH         LINE#         81
  C:39ABH         LINE#         82
  C:39AEH         LINE#         83
  C:39B1H         LINE#         84
  C:39B1H         LINE#         85
  C:39B5H         LINE#         87
  C:39B5H         LINE#         88
  C:39B5H         LINE#         90
  C:39C0H         LINE#         91
  C:39C0H         LINE#         92
  C:39C2H         LINE#         94
  C:39C5H         LINE#         96
  C:39C8H         LINE#         97
  C:39CBH         LINE#         98
  C:39CEH         LINE#         100
  C:39E8H         LINE#         102
  C:39EEH         LINE#         103
  C:39EEH         LINE#         104
  C:39F1H         LINE#         105
  C:39F1H         LINE#         107
  C:39F7H         LINE#         108
  C:39F7H         LINE#         109
  C:39F9H         LINE#         110
  C:39F9H         LINE#         111
  C:39F9H         LINE#         112
  C:39F9H         LINE#         113
  -------         ENDPROC       MAIN
  -------         ENDMOD        MAIN

  -------         MODULE        BSP_INIT
  C:0000H         SYMBOL        _ICE_DUMMY_
  D:0080H         PUBLIC        P0
  D:0088H         PUBLIC        P1
  D:0090H         PUBLIC        P2
  D:0098H         PUBLIC        P3
  D:00A0H         PUBLIC        P4
  D:00B0H         PUBLIC        P5
  D:008DH         PUBLIC        WDTCR
  C:51A8H         SYMBOL        WDT_init
  D:008EH         PUBLIC        WDTDR
  D:00DEH         PUBLIC        P0DB
  D:0097H         PUBLIC        BUZCR
  C:51D9H         SYMBOL        BUZ_init
  D:008FH         PUBLIC        BUZDR
  D:00D8H         PUBLIC        LVRCR
  D:00A8H         PUBLIC        IE
  D:0091H         PUBLIC        P0OD
  D:0092H         PUBLIC        P1OD
BL51 BANKED LINKER/LOCATER V6.22                                                      10/30/2015  13:58:41  PAGE 22


  D:0093H         PUBLIC        P2OD
  D:0094H         PUBLIC        P4OD
  D:00A1H         PUBLIC        P0IO
  D:00B2H         PUBLIC        T0CR
  D:00B1H         PUBLIC        P1IO
  D:00B4H         PUBLIC        T0DR
  D:00B9H         PUBLIC        P2IO
  D:00C1H         PUBLIC        P3IO
  D:00C9H         PUBLIC        P4IO
  D:00D1H         PUBLIC        P5IO
  C:51E0H         SYMBOL        clock_init
  D:00BDH         PUBLIC        T1ADRH
  D:00ACH         PUBLIC        P0PU
  D:009DH         PUBLIC        ADCCRH
  D:00BFH         PUBLIC        T1BDRH
  D:00ADH         PUBLIC        P1PU
  D:00AEH         PUBLIC        P2PU
  D:00AFH         PUBLIC        P3PU
  D:00F3H         PUBLIC        USI1BD
  D:00BCH         PUBLIC        T1ADRL
  D:00A3H         PUBLIC        P4PU
  D:009CH         PUBLIC        ADCCRL
  D:00BEH         PUBLIC        T1BDRL
  D:0095H         PUBLIC        P5PU
  D:008AH         PUBLIC        SCCR
  C:50C9H         SYMBOL        _BUZ_OnOff
  D:009BH         PUBLIC        LCDCCR
  D:009AH         PUBLIC        LCDCRH
  D:00D3H         PUBLIC        P0FSRH
  D:0099H         PUBLIC        LCDCRL
  D:00D5H         PUBLIC        P1FSRH
  D:00D7H         PUBLIC        P2FSRH
  D:00D2H         PUBLIC        P0FSRL
  D:00D4H         PUBLIC        P1FSRL
  D:00D6H         PUBLIC        P2FSRL
  D:00DFH         PUBLIC        P15DB
  D:00AAH         PUBLIC        IE2
  D:00ABH         PUBLIC        IE3
  D:0096H         PUBLIC        WTCR
  C:5173H         SYMBOL        WT_init
  D:0089H         PUBLIC        WTDR
  C:5166H         SYMBOL        Timer0_init
  C:0003H         SYMBOL        Timer1_init
  C:5021H         SYMBOL        UART_init
  C:51EDH         SYMBOL        WDT_clear
  C:511DH         SYMBOL        _ADC_start
  C:4BFFH         PUBLIC        BSP_Init
  C:479CH         SYMBOL        port_init
  C:51D2H         SYMBOL        ADC_init
  D:00BBH         PUBLIC        T1CRH
  D:00BAH         PUBLIC        T1CRL
  C:51BAH         SYMBOL        LCD_init
  D:00E9H         PUBLIC        USI1CR1
  D:00EAH         PUBLIC        USI1CR2
  D:00EBH         PUBLIC        USI1CR3
  D:00EEH         PUBLIC        P3FSR
  D:00EFH         PUBLIC        P4FSR
BL51 BANKED LINKER/LOCATER V6.22                                                      10/30/2015  13:58:41  PAGE 23


  D:00FFH         PUBLIC        P5FSR
  D:008BH         PUBLIC        BITCR
  C:00A6H         SYMBOL        BIT_init
  D:00C8H         PUBLIC        OSCCR
  -------         PROC          ADC_INIT
  C:51D2H         LINE#         4
  C:51D2H         LINE#         5
  C:51D2H         LINE#         7
  C:51D5H         LINE#         8
  C:51D8H         LINE#         9
  -------         ENDPROC       ADC_INIT
  -------         PROC          _ADC_START
  D:0007H         SYMBOL        ch
  C:511DH         LINE#         11
  C:511DH         LINE#         12
  C:511DH         LINE#         14
  C:5128H         LINE#         15
  C:512BH         LINE#         16
  -------         ENDPROC       _ADC_START
  -------         PROC          BIT_INIT
  C:00A6H         LINE#         18
  C:00A6H         LINE#         19
  C:00A6H         LINE#         21
  C:00A9H         LINE#         22
  C:00ACH         LINE#         23
  C:00AFH         LINE#         24
  C:00B2H         LINE#         25
  -------         ENDPROC       BIT_INIT
  -------         PROC          _BUZ_ONOFF
  D:0007H         SYMBOL        On
  C:50C9H         LINE#         27
  C:50C9H         LINE#         28
  C:50C9H         LINE#         30
  C:50DAH         LINE#         31
  -------         ENDPROC       _BUZ_ONOFF
  -------         PROC          BUZ_INIT
  C:51D9H         LINE#         33
  C:51D9H         LINE#         34
  C:51D9H         LINE#         37
  C:51DCH         LINE#         38
  C:51DFH         LINE#         39
  -------         ENDPROC       BUZ_INIT
  -------         PROC          LCD_INIT
  C:51BAH         LINE#         41
  C:51BAH         LINE#         42
  C:51BAH         LINE#         45
  C:51BDH         LINE#         46
  C:51BFH         LINE#         47
  C:51C1H         LINE#         48
  -------         ENDPROC       LCD_INIT
  -------         PROC          TIMER0_INIT
  C:5166H         LINE#         50
  C:5166H         LINE#         51
  C:5166H         LINE#         54
  C:5169H         LINE#         55
  C:516CH         LINE#         56
  C:516FH         LINE#         57
BL51 BANKED LINKER/LOCATER V6.22                                                      10/30/2015  13:58:41  PAGE 24


  C:5172H         LINE#         58
  -------         ENDPROC       TIMER0_INIT
  -------         PROC          TIMER1_INIT
  C:0003H         LINE#         60
  C:0003H         LINE#         61
  C:0003H         LINE#         65
  C:0006H         LINE#         66
  C:0009H         LINE#         67
  C:000CH         LINE#         70
  C:000FH         LINE#         71
  C:0011H         LINE#         72
  C:0014H         LINE#         73
  C:0017H         LINE#         74
  C:001AH         LINE#         75
  -------         ENDPROC       TIMER1_INIT
  -------         PROC          UART_INIT
  C:5021H         LINE#         77
  C:5021H         LINE#         78
  C:5021H         LINE#         81
  C:5024H         LINE#         82
  C:5027H         LINE#         83
  C:502AH         LINE#         84
  C:502DH         LINE#         85
  C:5030H         LINE#         86
  C:5033H         LINE#         87
  C:5036H         LINE#         88
  -------         ENDPROC       UART_INIT
  -------         PROC          WDT_CLEAR
  C:51EDH         LINE#         90
  C:51EDH         LINE#         91
  C:51EDH         LINE#         92
  C:51F0H         LINE#         93
  -------         ENDPROC       WDT_CLEAR
  -------         PROC          WDT_INIT
  C:51A8H         LINE#         95
  C:51A8H         LINE#         96
  C:51A8H         LINE#         98
  C:51ABH         LINE#         99
  C:51AEH         LINE#         101
  -------         ENDPROC       WDT_INIT
  -------         PROC          WT_INIT
  C:5173H         LINE#         104
  C:5173H         LINE#         105
  C:5173H         LINE#         107
  C:5176H         LINE#         108
  C:5179H         LINE#         109
  C:517CH         LINE#         110
  C:517FH         LINE#         111
  -------         ENDPROC       WT_INIT
  -------         PROC          CLOCK_INIT
  C:51E0H         LINE#         113
  C:51E0H         LINE#         114
  C:51E0H         LINE#         116
  C:51E3H         LINE#         117
  C:51E6H         LINE#         118
  -------         ENDPROC       CLOCK_INIT
  -------         PROC          PORT_INIT
BL51 BANKED LINKER/LOCATER V6.22                                                      10/30/2015  13:58:41  PAGE 25


  C:479CH         LINE#         120
  C:479CH         LINE#         121
  C:479CH         LINE#         158
  C:479FH         LINE#         159
  C:47A2H         LINE#         160
  C:47A5H         LINE#         161
  C:47A7H         LINE#         162
  C:47A9H         LINE#         164
  C:47ACH         LINE#         165
  C:47AEH         LINE#         166
  C:47B0H         LINE#         167
  C:47B2H         LINE#         168
  C:47B4H         LINE#         170
  C:47B7H         LINE#         171
  C:47BAH         LINE#         172
  C:47BCH         LINE#         173
  C:47BEH         LINE#         175
  C:47C1H         LINE#         176
  C:47C3H         LINE#         177
  C:47C5H         LINE#         179
  C:47C8H         LINE#         180
  C:47CBH         LINE#         181
  C:47CDH         LINE#         182
  C:47CFH         LINE#         184
  C:47D2H         LINE#         185
  C:47D4H         LINE#         186
  C:47D6H         LINE#         189
  C:47D8H         LINE#         190
  C:47DBH         LINE#         191
  C:47DDH         LINE#         192
  C:47E0H         LINE#         193
  C:47E2H         LINE#         194
  C:47E5H         LINE#         195
  C:47E7H         LINE#         196
  C:47E9H         LINE#         197
  C:47ECH         LINE#         198
  -------         ENDPROC       PORT_INIT
  -------         PROC          BSP_INIT
  C:4BFFH         LINE#         200
  C:4BFFH         LINE#         201
  C:4BFFH         LINE#         202
  C:4C02H         LINE#         204
  C:4C05H         LINE#         205
  C:4C08H         LINE#         206
  C:4C0BH         LINE#         207
  C:4C0EH         LINE#         208
  C:4C0EH         LINE#         209
  C:4C0EH         LINE#         210
  C:4C13H         LINE#         211
  C:4C13H         LINE#         212
  C:4C16H         LINE#         213
  C:4C18H         LINE#         215
  C:4C18H         LINE#         216
  C:4C18H         LINE#         217
  C:4C18H         LINE#         218
  C:4C18H         LINE#         220
  C:4C1BH         LINE#         221
BL51 BANKED LINKER/LOCATER V6.22                                                      10/30/2015  13:58:41  PAGE 26


  C:4C1EH         LINE#         222
  C:4C21H         LINE#         223
  C:4C24H         LINE#         224
  C:4C27H         LINE#         225
  C:4C2AH         LINE#         226
  -------         ENDPROC       BSP_INIT
  -------         ENDMOD        BSP_INIT

  -------         MODULE        AIP1944
  C:0000H         SYMBOL        _ICE_DUMMY_
  C:4F44H         PUBLIC        _AIP1944_WriteByte
  B:00A0H.0       PUBLIC        P40
  B:00A0H.1       PUBLIC        P41
  B:00A0H.2       PUBLIC        P42
  C:47EDH         PUBLIC        _Aip1944_WriteDispDatas
  X:020AH         PUBLIC        Aip1944_BrightnessLevel
  -------         PROC          _AIP1944_WRITEBYTE
  D:0007H         SYMBOL        _byte
  -------         DO            
  D:0006H         SYMBOL        i
  -------         ENDDO         
  C:4F44H         LINE#         36
  C:4F44H         LINE#         37
  C:4F44H         LINE#         40
  C:4F46H         LINE#         41
  C:4F46H         LINE#         42
  C:4F4AH         LINE#         43
  C:4F4AH         LINE#         44
  C:4F4CH         LINE#         45
  C:4F4EH         LINE#         47
  C:4F4EH         LINE#         48
  C:4F50H         LINE#         49
  C:4F50H         LINE#         51
  C:4F52H         LINE#         53
  C:4F56H         LINE#         55
  C:4F58H         LINE#         56
  C:4F5DH         LINE#         57
  -------         ENDPROC       _AIP1944_WRITEBYTE
  -------         PROC          _AIP1944_WRITEDISPDATAS
  X:01B6H         SYMBOL        dats
  D:0005H         SYMBOL        len
  X:01BAH         SYMBOL        addr
  -------         DO            
  D:0004H         SYMBOL        i
  -------         ENDDO         
  C:47EDH         LINE#         59
  C:47F8H         LINE#         60
  C:47F8H         LINE#         63
  C:47FAH         LINE#         64
  C:47FFH         LINE#         65
  C:4801H         LINE#         66
  C:4803H         LINE#         67
  C:480DH         LINE#         68
  C:4814H         LINE#         69
  C:4814H         LINE#         70
  C:482BH         LINE#         71
  C:482EH         LINE#         72
BL51 BANKED LINKER/LOCATER V6.22                                                      10/30/2015  13:58:41  PAGE 27


  C:4830H         LINE#         74
  C:4832H         LINE#         75
  C:483AH         LINE#         76
  C:483CH         LINE#         77
  -------         ENDPROC       _AIP1944_WRITEDISPDATAS
  -------         ENDMOD        AIP1944

  -------         MODULE        DISPLAY
  C:0000H         SYMBOL        _ICE_DUMMY_
  D:0090H         PUBLIC        P2
  D:0098H         PUBLIC        P3
  C:508EH         PUBLIC        _Display_SetAll
  C:39FCH         PUBLIC        _Display_ShowRT
  C:2C99H         PUBLIC        PM_COM10_E_nums
  C:2CE2H         PUBLIC        RT_COM_H1_E_nums
  C:2CADH         PUBLIC        PM_COM1_E1_nums
  C:2CB7H         PUBLIC        PM_COM1_E2_nums
  C:2C35H         PUBLIC        H_COM10_nums
  C:2D19H         PUBLIC        RT_COM_M1_E_nums
  C:2C71H         PUBLIC        PM_COM100_nums
  C:2CC1H         PUBLIC        RT_COM_H10_nums
  D:00B9H         PUBLIC        P2IO
  C:2CEDH         PUBLIC        RT_COM_M10_nums
  C:2C0DH         PUBLIC        T_COM10_nums
  D:00C1H         PUBLIC        P3IO
  B:0022H.0       PUBLIC        Display_IsLowLight
  X:0157H         PUBLIC        Display_Datas
  C:345FH         PUBLIC        _Display_ShowNumInRTCArea
  C:2C53H         PUBLIC        H_COM1_EXT_nums
  C:4589H         PUBLIC        _Display_ShowHumidity
  C:2CA3H         PUBLIC        PM_COM1_nums
  C:2CCCH         PUBLIC        RT_COM_H10_E_nums
  C:2C2BH         PUBLIC        T_COM1_EXT_nums
  C:2C5DH         PUBLIC        PM_COM1000_nums
  C:48D3H         PUBLIC        _Display_CircleRun
  C:3B96H         PUBLIC        Display_LedDrive
  C:49A3H         PUBLIC        _Display_DustLevel
  C:3159H         PUBLIC        _Display_DustData
  C:2C49H         PUBLIC        H_COM1_nums
  C:2C3FH         PUBLIC        H_COM10_EXT_nums
  C:2C8FH         PUBLIC        PM_COM10_nums
  C:4B67H         PUBLIC        Display_Ctr
  C:2CD7H         PUBLIC        RT_COM_H1_nums
  B:0022H.1       PUBLIC        Display_FlashOn
  C:2D0EH         PUBLIC        RT_COM_M1_nums
  C:2C67H         PUBLIC        PM_COM1000_E_nums
  C:2C21H         PUBLIC        T_COM1_nums
  C:2C7BH         PUBLIC        PM_COM100_E1_nums
  C:2C85H         PUBLIC        PM_COM100_E2_nums
  C:2C17H         PUBLIC        T_COM10_EXT_nums
  C:2CF8H         PUBLIC        RT_COM_M10_E1_nums
  C:2D03H         PUBLIC        RT_COM_M10_E2_nums
  C:4D30H         PUBLIC        Display_SetLine
  C:452AH         PUBLIC        _Display_ShowTemperature
  X:0196H         PUBLIC        Display_LedsEn
  C:006EH         PUBLIC        _Display_SpLevel
  -------         PROC          _DISPLAY_SETALL
BL51 BANKED LINKER/LOCATER V6.22                                                      10/30/2015  13:58:41  PAGE 28


  D:0007H         SYMBOL        sta
  -------         DO            
  D:0006H         SYMBOL        i
  -------         ENDDO         
  C:508EH         LINE#         11
  C:508EH         LINE#         12
  C:508EH         LINE#         15
  C:5090H         LINE#         16
  C:5090H         LINE#         17
  C:509CH         LINE#         18
  C:50A1H         LINE#         19
  -------         ENDPROC       _DISPLAY_SETALL
  -------         PROC          DISPLAY_SETLINE
  C:4D30H         LINE#         22
  C:4D30H         LINE#         23
  C:4D30H         LINE#         24
  C:4D36H         LINE#         25
  C:4D38H         LINE#         26
  C:4D3AH         LINE#         28
  C:4D3EH         LINE#         29
  C:4D40H         LINE#         30
  C:4D42H         LINE#         32
  C:4D49H         LINE#         33
  C:4D4DH         LINE#         34
  C:4D4FH         LINE#         35
  -------         ENDPROC       DISPLAY_SETLINE
  -------         PROC          _DISPLAY_CIRCLERUN
  D:0007H         SYMBOL        sp
  -------         DO            
  X:0155H         SYMBOL        cnt
  B:0021H.7       SYMBOL        disIndex
  -------         ENDDO         
  C:48D3H         LINE#         37
  C:48D3H         LINE#         38
  C:48D3H         LINE#         41
  C:48D9H         LINE#         42
  C:48DEH         LINE#         43
  C:48DEH         LINE#         44
  C:48E0H         LINE#         46
  C:48E2H         LINE#         47
  C:48E2H         LINE#         49
  C:48E9H         LINE#         51
  C:48ECH         LINE#         52
  C:48ECH         LINE#         53
  C:48F3H         LINE#         54
  C:48FAH         LINE#         55
  C:4901H         LINE#         56
  C:4902H         LINE#         58
  C:4902H         LINE#         59
  C:490EH         LINE#         60
  C:4915H         LINE#         61
  C:491CH         LINE#         62
  C:491CH         LINE#         88
  -------         ENDPROC       _DISPLAY_CIRCLERUN
  -------         PROC          _DISPLAY_DUSTLEVEL
  D:0007H         SYMBOL        level
  C:49A3H         LINE#         90
BL51 BANKED LINKER/LOCATER V6.22                                                      10/30/2015  13:58:41  PAGE 29


  C:49A3H         LINE#         91
  C:49A3H         LINE#         92
  C:49B6H         LINE#         93
  C:49B6H         LINE#         94
  C:49B6H         LINE#         95
  C:49BDH         LINE#         96
  C:49BDH         LINE#         97
  C:49C4H         LINE#         98
  C:49C4H         LINE#         99
  C:49CBH         LINE#         100
  C:49CBH         LINE#         101
  C:49D2H         LINE#         102
  C:49D2H         LINE#         103
  C:49D9H         LINE#         104
  C:49D9H         LINE#         105
  C:49E0H         LINE#         106
  C:49E0H         LINE#         107
  C:49E0H         LINE#         108
  C:49E0H         LINE#         109
  C:49E0H         LINE#         110
  -------         ENDPROC       _DISPLAY_DUSTLEVEL
  -------         PROC          _DISPLAY_SPLEVEL
  D:0007H         SYMBOL        level
  C:006EH         LINE#         112
  C:006EH         LINE#         113
  C:006EH         LINE#         114
  C:007EH         LINE#         115
  C:007EH         LINE#         116
  C:007EH         LINE#         117
  C:0085H         LINE#         118
  C:0085H         LINE#         119
  C:008CH         LINE#         120
  C:008CH         LINE#         121
  C:0093H         LINE#         122
  C:0093H         LINE#         123
  C:009AH         LINE#         124
  C:009AH         LINE#         125
  C:00A1H         LINE#         126
  C:00A1H         LINE#         127
  C:00A1H         LINE#         128
  C:00A1H         LINE#         129
  C:00A1H         LINE#         130
  -------         ENDPROC       _DISPLAY_SPLEVEL
  -------         PROC          _DISPLAY_SHOWTEMPERATURE
  D:0007H         SYMBOL        t
  -------         DO            
  D:0005H         SYMBOL        v10
  D:0004H         SYMBOL        v1
  -------         ENDDO         
  C:452AH         LINE#         225
  C:452AH         LINE#         226
  C:452AH         LINE#         230
  C:4530H         LINE#         231
  C:4530H         LINE#         232
  C:4532H         LINE#         233
  C:4532H         LINE#         235
  C:4538H         LINE#         236
BL51 BANKED LINKER/LOCATER V6.22                                                      10/30/2015  13:58:41  PAGE 30


  C:453FH         LINE#         238
  C:4542H         LINE#         239
  C:4542H         LINE#         240
  C:4553H         LINE#         241
  C:4566H         LINE#         242
  C:4566H         LINE#         243
  C:4577H         LINE#         244
  C:4588H         LINE#         245
  -------         ENDPROC       _DISPLAY_SHOWTEMPERATURE
  -------         PROC          _DISPLAY_SHOWHUMIDITY
  D:0007H         SYMBOL        h
  -------         DO            
  D:0005H         SYMBOL        v10
  D:0004H         SYMBOL        v1
  -------         ENDDO         
  C:4589H         LINE#         328
  C:4589H         LINE#         329
  C:4589H         LINE#         333
  C:458FH         LINE#         334
  C:458FH         LINE#         335
  C:4591H         LINE#         336
  C:4591H         LINE#         338
  C:4597H         LINE#         339
  C:459EH         LINE#         341
  C:45A1H         LINE#         342
  C:45A1H         LINE#         343
  C:45B2H         LINE#         344
  C:45C5H         LINE#         345
  C:45C5H         LINE#         346
  C:45D6H         LINE#         347
  C:45E7H         LINE#         348
  -------         ENDPROC       _DISPLAY_SHOWHUMIDITY
  -------         PROC          _DISPLAY_DUSTDATA
  D:0002H         SYMBOL        pm
  -------         DO            
  X:01BAH         SYMBOL        v1000
  X:01BBH         SYMBOL        v100
  X:01BCH         SYMBOL        v10
  D:0003H         SYMBOL        v1
  -------         ENDDO         
  C:3159H         LINE#         553
  C:315DH         LINE#         554
  C:315DH         LINE#         560
  C:3166H         LINE#         561
  C:3166H         LINE#         562
  C:316AH         LINE#         563
  C:316AH         LINE#         565
  C:317AH         LINE#         566
  C:318FH         LINE#         567
  C:31A4H         LINE#         568
  C:31B1H         LINE#         571
  C:31C6H         LINE#         572
  C:31D8H         LINE#         574
  C:31E6H         LINE#         575
  C:31F7H         LINE#         576
  C:320CH         LINE#         578
  C:321AH         LINE#         579
BL51 BANKED LINKER/LOCATER V6.22                                                      10/30/2015  13:58:41  PAGE 31


  C:322CH         LINE#         582
  C:3236H         LINE#         583
  C:3247H         LINE#         584
  C:325AH         LINE#         585
  -------         ENDPROC       _DISPLAY_DUSTDATA
  -------         PROC          _DISPLAY_SHOWRT
  D:0007H         SYMBOL        h
  D:0005H         SYMBOL        m
  B:0021H.5       SYMBOL        hFlashEn
  B:0021H.6       SYMBOL        mFlashEn
  -------         DO            
  D:0001H         SYMBOL        h10
  D:0006H         SYMBOL        h1
  D:0004H         SYMBOL        m10
  D:0003H         SYMBOL        m1
  -------         ENDDO         
  C:39FCH         LINE#         787
  C:39FCH         LINE#         788
  C:39FCH         LINE#         795
  C:3A02H         LINE#         796
  C:3A09H         LINE#         797
  C:3A0FH         LINE#         798
  C:3A16H         LINE#         800
  C:3A1CH         LINE#         801
  C:3A1CH         LINE#         802
  C:3A1EH         LINE#         803
  C:3A20H         LINE#         804
  C:3A20H         LINE#         806
  C:3A26H         LINE#         807
  C:3A26H         LINE#         808
  C:3A28H         LINE#         809
  C:3A2AH         LINE#         810
  C:3A2AH         LINE#         811
  C:3A30H         LINE#         812
  C:3A30H         LINE#         813
  C:3A41H         LINE#         814
  C:3A52H         LINE#         816
  C:3A63H         LINE#         817
  C:3A74H         LINE#         818
  C:3A74H         LINE#         821
  C:3A7AH         LINE#         822
  C:3A7AH         LINE#         823
  C:3A8BH         LINE#         824
  C:3A9CH         LINE#         825
  C:3AAEH         LINE#         827
  C:3AB8H         LINE#         828
  C:3AC9H         LINE#         829
  C:3AC9H         LINE#         830
  -------         ENDPROC       _DISPLAY_SHOWRT
  -------         PROC          _DISPLAY_SHOWNUMINRTCAREA
  D:0002H         SYMBOL        num
  -------         DO            
  X:01BAH         SYMBOL        v1000
  X:01BBH         SYMBOL        v100
  X:01BCH         SYMBOL        v10
  D:0001H         SYMBOL        v1
  -------         ENDDO         
BL51 BANKED LINKER/LOCATER V6.22                                                      10/30/2015  13:58:41  PAGE 32


  C:345FH         LINE#         833
  C:3463H         LINE#         834
  C:3463H         LINE#         840
  C:346FH         LINE#         841
  C:3484H         LINE#         842
  C:3499H         LINE#         843
  C:34A6H         LINE#         846
  C:34AFH         LINE#         847
  C:34AFH         LINE#         848
  C:34B5H         LINE#         849
  C:34B7H         LINE#         850
  C:34B9H         LINE#         851
  C:34BAH         LINE#         852
  C:34BAH         LINE#         855
  C:34CFH         LINE#         856
  C:34E0H         LINE#         858
  C:34F5H         LINE#         859
  C:3506H         LINE#         861
  C:351BH         LINE#         862
  C:352CH         LINE#         863
  C:3541H         LINE#         865
  C:354BH         LINE#         866
  C:355CH         LINE#         867
  -------         ENDPROC       _DISPLAY_SHOWNUMINRTCAREA
  -------         PROC          DISPLAY_LEDDRIVE
  B:0021H.4       SYMBOL        comChangeEn
  -------         DO            
  X:0156H         SYMBOL        scanCnt
  -------         ENDDO         
  C:3B96H         LINE#         889
  C:3B96H         LINE#         890
  C:3B96H         LINE#         893
  C:3B99H         LINE#         894
  C:3B99H         LINE#         895
  C:3B9FH         LINE#         896
  C:3B9FH         LINE#         898
  C:3BA5H         LINE#         899
  C:3BABH         LINE#         900
  C:3BB6H         LINE#         901
  C:3BB6H         LINE#         902
  C:3BB6H         LINE#         903
  C:3BBDH         LINE#         904
  C:3BBDH         LINE#         905
  C:3BC0H         LINE#         906
  C:3BC2H         LINE#         908
  C:3BC2H         LINE#         909
  C:3BC5H         LINE#         910
  C:3BC5H         LINE#         911
  C:3BCCH         LINE#         912
  C:3BCCH         LINE#         913
  C:3BCFH         LINE#         914
  C:3BD1H         LINE#         916
  C:3BD1H         LINE#         917
  C:3BD4H         LINE#         918
  C:3BD4H         LINE#         920
  C:3BDAH         LINE#         921
  C:3BDBH         LINE#         922
BL51 BANKED LINKER/LOCATER V6.22                                                      10/30/2015  13:58:41  PAGE 33


  C:3BDBH         LINE#         923
  C:3BE2H         LINE#         924
  C:3BE2H         LINE#         925
  C:3BE5H         LINE#         926
  C:3BE7H         LINE#         928
  C:3BE7H         LINE#         929
  C:3BEAH         LINE#         930
  C:3BEAH         LINE#         931
  C:3BF1H         LINE#         932
  C:3BF1H         LINE#         933
  C:3BF4H         LINE#         934
  C:3BF6H         LINE#         936
  C:3BF6H         LINE#         937
  C:3BF9H         LINE#         938
  C:3BF9H         LINE#         939
  C:3BFFH         LINE#         940
  C:3C00H         LINE#         941
  C:3C00H         LINE#         942
  C:3C00H         LINE#         943
  C:3C07H         LINE#         944
  C:3C07H         LINE#         945
  C:3C0AH         LINE#         946
  C:3C0CH         LINE#         948
  C:3C0CH         LINE#         949
  C:3C0FH         LINE#         950
  C:3C0FH         LINE#         952
  C:3C16H         LINE#         953
  C:3C16H         LINE#         954
  C:3C19H         LINE#         955
  C:3C1BH         LINE#         957
  C:3C1BH         LINE#         958
  C:3C1EH         LINE#         959
  C:3C1EH         LINE#         961
  C:3C25H         LINE#         962
  C:3C25H         LINE#         963
  C:3C28H         LINE#         964
  C:3C2AH         LINE#         966
  C:3C2AH         LINE#         967
  C:3C2DH         LINE#         968
  C:3C2DH         LINE#         970
  C:3C34H         LINE#         971
  C:3C34H         LINE#         972
  C:3C37H         LINE#         973
  C:3C39H         LINE#         975
  C:3C39H         LINE#         976
  C:3C3CH         LINE#         977
  C:3C3CH         LINE#         978
  C:3C42H         LINE#         980
  C:3C47H         LINE#         981
  C:3C47H         LINE#         982
  C:3C47H         LINE#         983
  -------         ENDPROC       DISPLAY_LEDDRIVE
  -------         PROC          DISPLAY_CTR
  C:4B67H         LINE#         986
  C:4B67H         LINE#         987
  C:4B67H         LINE#         988
  C:4B6CH         LINE#         989
BL51 BANKED LINKER/LOCATER V6.22                                                      10/30/2015  13:58:41  PAGE 34


  C:4B71H         LINE#         991
  C:4B8AH         LINE#         993
  -------         ENDPROC       DISPLAY_CTR
  -------         ENDMOD        DISPLAY

  -------         MODULE        BUZZER
  C:0000H         SYMBOL        _ICE_DUMMY_
  D:0097H         PUBLIC        BUZCR
  X:01F8H         SYMBOL        Buzz_times
  C:491DH         PUBLIC        Buzz_Ctr
  C:4E00H         PUBLIC        _Buzz_Set
  B:0023H.3       SYMBOL        Buzz_En
  X:01F9H         SYMBOL        Buzz_off
  X:01FAH         SYMBOL        Buzz_cnt
  X:01FBH         SYMBOL        Buzz_on
  C:50DBH         PUBLIC        Buzz_DeviceInit
  -------         PROC          BUZZ_DEVICEINIT
  C:50DBH         LINE#         11
  C:50DBH         LINE#         12
  C:50DBH         LINE#         13
  C:50DDH         LINE#         15
  C:50E2H         LINE#         16
  C:50E6H         LINE#         17
  C:50EAH         LINE#         19
  C:50ECH         LINE#         20
  -------         ENDPROC       BUZZ_DEVICEINIT
  -------         PROC          _BUZZ_SET
  D:0007H         SYMBOL        times
  D:0005H         SYMBOL        on
  D:0003H         SYMBOL        off
  C:4E00H         LINE#         22
  C:4E00H         LINE#         23
  C:4E00H         LINE#         24
  C:4E05H         LINE#         25
  C:4E05H         LINE#         26
  C:4E08H         LINE#         27
  C:4E08H         LINE#         29
  C:4E0DH         LINE#         30
  C:4E12H         LINE#         31
  C:4E17H         LINE#         33
  C:4E1AH         LINE#         34
  -------         ENDPROC       _BUZZ_SET
  -------         PROC          BUZZ_CTR
  C:491DH         LINE#         36
  C:491DH         LINE#         37
  C:491DH         LINE#         38
  C:4923H         LINE#         39
  C:4923H         LINE#         40
  C:4929H         LINE#         42
  C:4935H         LINE#         43
  C:4935H         LINE#         44
  C:4938H         LINE#         45
  C:4938H         LINE#         46
  C:493BH         LINE#         47
  C:493BH         LINE#         49
  C:493DH         LINE#         50
  C:493EH         LINE#         51
BL51 BANKED LINKER/LOCATER V6.22                                                      10/30/2015  13:58:41  PAGE 35


  C:4948H         LINE#         52
  C:4948H         LINE#         53
  C:494BH         LINE#         54
  C:494BH         LINE#         55
  C:494EH         LINE#         56
  C:494EH         LINE#         57
  C:4950H         LINE#         58
  C:4951H         LINE#         60
  C:4951H         LINE#         61
  C:4957H         LINE#         62
  C:495CH         LINE#         63
  C:495CH         LINE#         64
  C:495DH         LINE#         66
  C:495DH         LINE#         67
  C:495FH         LINE#         68
  C:495FH         LINE#         69
  -------         ENDPROC       BUZZ_CTR
  -------         ENDMOD        BUZZER

  -------         MODULE        IR
  C:0000H         SYMBOL        _ICE_DUMMY_
  B:0023H.4       PUBLIC        IR_Changed
  X:0204H         PUBLIC        IR_Code
  -------         ENDMOD        IR

  -------         MODULE        HUMIDITY
  C:0000H         SYMBOL        _ICE_DUMMY_
  C:097DH         SYMBOL        H_Table38
  C:0758H         SYMBOL        H_Table29
  C:09BAH         SYMBOL        H_Table39
  C:3FA2H         PUBLIC        Humidity_GetCurrentH
  B:0022H.6       PUBLIC        NTC_IsError
  C:41F6H         PUBLIC        Humidity_GetCurrentT
  C:43F5H         SYMBOL        _Humidity_GetH
  C:01A0H         SYMBOL        H_table45
  C:50EDH         PUBLIC        Humidity_DeviceInit
  C:0B28H         SYMBOL        H_tables
  D:009FH         PUBLIC        ADCDRH
  D:009CH         PUBLIC        ADCCRL
  C:5037H         PUBLIC        _Utils_GetAdValue
  C:00B6H         SYMBOL        T_table
  I:0016H         PUBLIC        Humidity_AdHBuf
  C:01DDH         SYMBOL        H_Table6
  C:021AH         SYMBOL        H_Table7
  C:0257H         SYMBOL        H_Table8
  C:0294H         SYMBOL        H_Table9
  C:355DH         SYMBOL        _Humidity_Ad2H
  C:4D0AH         SYMBOL        _Humidity_Ad2T
  I:0017H         PUBLIC        Humidity_CurrentH
  C:0163H         SYMBOL        H_table5
  I:0018H         PUBLIC        Humidity_CurrentT
  C:02D1H         SYMBOL        H_Table10
  C:0533H         SYMBOL        H_Table20
  C:030EH         SYMBOL        H_Table11
  C:0795H         SYMBOL        H_Table30
  C:0570H         SYMBOL        H_Table21
  C:034BH         SYMBOL        H_Table12
BL51 BANKED LINKER/LOCATER V6.22                                                      10/30/2015  13:58:41  PAGE 36


  C:09F7H         SYMBOL        H_Table40
  C:07D2H         SYMBOL        H_Table31
  C:05ADH         SYMBOL        H_Table22
  C:0388H         SYMBOL        H_Table13
  C:0A34H         SYMBOL        H_Table41
  C:080FH         SYMBOL        H_Table32
  C:05EAH         SYMBOL        H_Table23
  C:03C5H         SYMBOL        H_Table14
  C:0A71H         SYMBOL        H_Table42
  C:084CH         SYMBOL        H_Table33
  C:0627H         SYMBOL        H_Table24
  C:0402H         SYMBOL        H_Table15
  C:0AAEH         SYMBOL        H_Table43
  C:0889H         SYMBOL        H_Table34
  C:0664H         SYMBOL        H_Table25
  C:043FH         SYMBOL        H_Table16
  C:0AEBH         SYMBOL        H_Table44
  C:08C6H         SYMBOL        H_Table35
  C:06A1H         SYMBOL        H_Table26
  C:047CH         SYMBOL        H_Table17
  C:0903H         SYMBOL        H_Table36
  C:06DEH         SYMBOL        H_Table27
  C:04B9H         SYMBOL        H_Table18
  C:0940H         SYMBOL        H_Table37
  C:071BH         SYMBOL        H_Table28
  C:04F6H         SYMBOL        H_Table19
  -------         PROC          _UTILS_GETADVALUE
  D:0007H         SYMBOL        ch
  C:5037H         LINE#         3084
  C:5037H         LINE#         3085
  C:5037H         LINE#         3088
  C:5042H         LINE#         3089
  C:5045H         LINE#         3091
  C:504AH         LINE#         3096
  C:504CH         LINE#         3097
  -------         ENDPROC       _UTILS_GETADVALUE
  -------         PROC          _HUMIDITY_AD2T
  D:0007H         SYMBOL        adValue
  C:4D0AH         LINE#         3100
  C:4D0AH         LINE#         3101
  C:4D0AH         LINE#         3102
  C:4D16H         LINE#         3103
  C:4D16H         LINE#         3104
  C:4D18H         LINE#         3105
  C:4D1AH         LINE#         3107
  C:4D1AH         LINE#         3108
  C:4D1CH         LINE#         3109
  C:4D1CH         LINE#         3111
  C:4D22H         LINE#         3112
  C:4D22H         LINE#         3113
  C:4D26H         LINE#         3114
  C:4D27H         LINE#         3116
  C:4D27H         LINE#         3117
  C:4D2FH         LINE#         3118
  C:4D2FH         LINE#         3119
  -------         ENDPROC       _HUMIDITY_AD2T
  -------         PROC          HUMIDITY_GETCURRENTT
BL51 BANKED LINKER/LOCATER V6.22                                                      10/30/2015  13:58:41  PAGE 37


  -------         DO            
  X:01DBH         SYMBOL        adSum
  X:01DDH         SYMBOL        adMax
  X:01DEH         SYMBOL        adMin
  X:01DFH         SYMBOL        sampleCnt
  D:0007H         SYMBOL        adValue
  -------         ENDDO         
  C:41F6H         LINE#         3121
  C:41F6H         LINE#         3122
  C:41F6H         LINE#         3130
  C:41FBH         LINE#         3132
  C:4205H         LINE#         3133
  C:4205H         LINE#         3134
  C:4207H         LINE#         3135
  C:4207H         LINE#         3137
  C:4211H         LINE#         3138
  C:4211H         LINE#         3139
  C:4213H         LINE#         3140
  C:4213H         LINE#         3142
  C:4220H         LINE#         3143
  C:4226H         LINE#         3144
  C:422CH         LINE#         3145
  C:422CH         LINE#         3146
  C:4251H         LINE#         3147
  C:426AH         LINE#         3149
  C:426DH         LINE#         3151
  C:4272H         LINE#         3153
  C:4278H         LINE#         3154
  C:427AH         LINE#         3155
  C:427EH         LINE#         3156
  C:427EH         LINE#         3157
  -------         ENDPROC       HUMIDITY_GETCURRENTT
  -------         PROC          L?0047
  -------         ENDPROC       L?0047
  -------         PROC          _HUMIDITY_GETH
  D:0007H         SYMBOL        adH
  D:0005H         SYMBOL        adT
  -------         DO            
  X:01BAH         SYMBOL        table
  D:0006H         SYMBOL        i
  -------         ENDDO         
  C:43F5H         LINE#         3159
  C:43F5H         LINE#         3160
  C:43F5H         LINE#         3164
  C:43F9H         LINE#         3165
  C:43F9H         LINE#         3166
  C:4407H         LINE#         3167
  C:4409H         LINE#         3168
  C:440DH         LINE#         3169
  C:440DH         LINE#         3170
  C:441BH         LINE#         3171
  C:441DH         LINE#         3173
  C:441DH         LINE#         3174
  C:4440H         LINE#         3175
  C:4440H         LINE#         3177
  C:4442H         LINE#         3178
  C:4442H         LINE#         3179
BL51 BANKED LINKER/LOCATER V6.22                                                      10/30/2015  13:58:41  PAGE 38


  C:445BH         LINE#         3180
  C:445BH         LINE#         3181
  C:445BH         LINE#         3182
  C:445BH         LINE#         3183
  C:4460H         LINE#         3185
  C:4464H         LINE#         3186
  -------         ENDPROC       _HUMIDITY_GETH
  -------         PROC          _HUMIDITY_AD2H
  X:01B7H         SYMBOL        adH
  -------         DO            
  X:01B8H         SYMBOL        h1
  X:01B9H         SYMBOL        h2
  -------         ENDDO         
  C:355DH         LINE#         3188
  C:3562H         LINE#         3189
  C:3562H         LINE#         3193
  C:356DH         LINE#         3194
  C:356DH         LINE#         3195
  C:3571H         LINE#         3196
  C:3574H         LINE#         3197
  C:357CH         LINE#         3198
  C:357CH         LINE#         3199
  C:3583H         LINE#         3200
  C:3586H         LINE#         3201
  C:3590H         LINE#         3202
  C:3590H         LINE#         3203
  C:359AH         LINE#         3204
  C:35A4H         LINE#         3207
  C:35E3H         LINE#         3208
  C:35E5H         LINE#         3209
  C:35F4H         LINE#         3210
  C:35F4H         LINE#         3211
  C:35FEH         LINE#         3212
  C:360DH         LINE#         3215
  C:364EH         LINE#         3216
  C:364FH         LINE#         3218
  C:364FH         LINE#         3219
  C:365AH         LINE#         3220
  C:365AH         LINE#         3221
  -------         ENDPROC       _HUMIDITY_AD2H
  -------         PROC          HUMIDITY_GETCURRENTH
  -------         DO            
  X:01E0H         SYMBOL        adSum
  X:01E2H         SYMBOL        sampleCnt
  X:01E3H         SYMBOL        circleIndex
  X:01E4H         SYMBOL        circleBuf
  B:0022H.5       SYMBOL        circleEnable
  D:0004H         SYMBOL        i
  D:0006H         SYMBOL        sumExt
  X:01B6H         SYMBOL        ad
  -------         ENDDO         
  C:3FA2H         LINE#         3224
  C:3FA2H         LINE#         3225
  C:3FA2H         LINE#         3237
  C:3FB3H         LINE#         3238
  C:3FB9H         LINE#         3239
  C:3FC2H         LINE#         3240
BL51 BANKED LINKER/LOCATER V6.22                                                      10/30/2015  13:58:41  PAGE 39


  C:3FC2H         LINE#         3241
  C:3FD8H         LINE#         3243
  C:3FDEH         LINE#         3244
  C:3FE4H         LINE#         3245
  C:3FE4H         LINE#         3246
  C:3FE6H         LINE#         3247
  C:3FE8H         LINE#         3248
  C:3FE8H         LINE#         3249
  C:3FFDH         LINE#         3251
  C:4000H         LINE#         3252
  C:4000H         LINE#         3253
  C:4003H         LINE#         3254
  C:4004H         LINE#         3255
  C:4004H         LINE#         3256
  C:4014H         LINE#         3257
  C:4019H         LINE#         3258
  C:4023H         LINE#         3259
  C:4027H         LINE#         3260
  C:4029H         LINE#         3262
  C:4029H         LINE#         3263
  C:402EH         LINE#         3264
  C:402EH         LINE#         3265
  C:4036H         LINE#         3267
  C:403BH         LINE#         3268
  C:4041H         LINE#         3269
  C:4041H         LINE#         3270
  -------         ENDPROC       HUMIDITY_GETCURRENTH
  -------         PROC          HUMIDITY_DEVICEINIT
  C:50EDH         LINE#         3272
  C:50EDH         LINE#         3273
  C:50EDH         LINE#         3274
  C:50F5H         LINE#         3275
  -------         ENDPROC       HUMIDITY_DEVICEINIT
  -------         ENDMOD        HUMIDITY

  -------         MODULE        DUST
  C:0000H         SYMBOL        _ICE_DUMMY_
  X:01D2H         PUBLIC        Dust_Data
  C:483DH         SYMBOL        Dust_getRtLevel
  X:01D4H         PUBLIC        Dust_RTData
  B:0022H.7       PUBLIC        Dust_IsReady
  X:01D6H         PUBLIC        Dust_LevelForFan
  X:01D7H         SYMBOL        Dust_levelPre
  X:01D8H         SYMBOL        Dust_readyCountdown
  C:3C48H         PUBLIC        Dust_LevelUpdate
  C:3CF9H         PUBLIC        Dust_DataUpdate
  C:50A2H         PUBLIC        Dust_DeviceInit
  B:0023H.0       PUBLIC        Dust_DataValid
  X:01DAH         PUBLIC        Dust_Level
  -------         PROC          DUST_DEVICEINIT
  C:50A2H         LINE#         21
  C:50A2H         LINE#         22
  C:50A2H         LINE#         23
  C:50ACH         LINE#         24
  C:50AEH         LINE#         25
  C:50B5H         LINE#         26
  -------         ENDPROC       DUST_DEVICEINIT
BL51 BANKED LINKER/LOCATER V6.22                                                      10/30/2015  13:58:41  PAGE 40


  -------         PROC          DUST_GETRTLEVEL
  -------         DO            
  D:0007H         SYMBOL        level
  -------         ENDDO         
  C:483DH         LINE#         29
  C:483DH         LINE#         30
  C:483DH         LINE#         33
  C:484DH         LINE#         34
  C:484DH         LINE#         35
  C:484FH         LINE#         36
  C:4851H         LINE#         37
  C:485AH         LINE#         38
  C:485AH         LINE#         39
  C:485CH         LINE#         40
  C:485EH         LINE#         41
  C:4867H         LINE#         42
  C:4867H         LINE#         43
  C:4869H         LINE#         44
  C:486BH         LINE#         45
  C:4874H         LINE#         46
  C:4874H         LINE#         47
  C:4876H         LINE#         48
  C:4878H         LINE#         49
  C:4881H         LINE#         50
  C:4881H         LINE#         51
  C:4883H         LINE#         52
  C:4885H         LINE#         54
  C:4885H         LINE#         55
  C:4887H         LINE#         56
  C:4887H         LINE#         58
  C:4887H         LINE#         59
  -------         ENDPROC       DUST_GETRTLEVEL
  -------         PROC          DUST_DATAUPDATE
  -------         DO            
  X:01C6H         SYMBOL        tabs
  D:0007H         SYMBOL        i
  -------         ENDDO         
  C:3CF9H         LINE#         63
  C:3CF9H         LINE#         64
  C:3CF9H         LINE#         68
  C:3D03H         LINE#         69
  C:3D03H         LINE#         70
  C:3D11H         LINE#         71
  C:3D18H         LINE#         72
  C:3D18H         LINE#         73
  C:3D20H         LINE#         74
  C:3D24H         LINE#         75
  C:3D26H         LINE#         76
  C:3D26H         LINE#         77
  C:3D28H         LINE#         79
  C:3D28H         LINE#         80
  C:3D2AH         LINE#         81
  C:3D2AH         LINE#         83
  C:3D2DH         LINE#         84
  C:3D2DH         LINE#         85
  C:3D3AH         LINE#         86
  C:3D47H         LINE#         87
BL51 BANKED LINKER/LOCATER V6.22                                                      10/30/2015  13:58:41  PAGE 41


  C:3D54H         LINE#         88
  C:3D63H         LINE#         90
  C:3D65H         LINE#         92
  C:3D6CH         LINE#         93
  C:3D6DH         LINE#         94
  C:3D6DH         LINE#         95
  C:3D8AH         LINE#         96
  C:3D8FH         LINE#         97
  C:3DA5H         LINE#         98
  C:3DA5H         LINE#         99
  -------         ENDPROC       DUST_DATAUPDATE
  -------         PROC          DUST_LEVELUPDATE
  -------         DO            
  X:01CEH         SYMBOL        upperHoldCntForFan
  X:01CFH         SYMBOL        lowerHoldCntForFan
  X:01D0H         SYMBOL        lowerHoldCnt
  D:0007H         SYMBOL        levelCur
  -------         ENDDO         
  C:3C48H         LINE#         101
  C:3C48H         LINE#         102
  C:3C48H         LINE#         110
  C:3C4BH         LINE#         111
  C:3C4BH         LINE#         112
  C:3C50H         LINE#         113
  C:3C52H         LINE#         115
  C:3C56H         LINE#         118
  C:3C56H         LINE#         121
  C:3C59H         LINE#         123
  C:3C63H         LINE#         124
  C:3C63H         LINE#         125
  C:3C6AH         LINE#         127
  C:3C6FH         LINE#         128
  C:3C6FH         LINE#         129
  C:3C71H         LINE#         130
  C:3C76H         LINE#         131
  C:3C76H         LINE#         132
  C:3C84H         LINE#         133
  C:3C95H         LINE#         134
  C:3C95H         LINE#         135
  C:3C99H         LINE#         137
  C:3CA2H         LINE#         138
  C:3CA2H         LINE#         139
  C:3CA5H         LINE#         140
  C:3CA5H         LINE#         142
  C:3CADH         LINE#         143
  C:3CADH         LINE#         144
  C:3CADH         LINE#         151
  C:3CBBH         LINE#         152
  C:3CBBH         LINE#         153
  C:3CC0H         LINE#         155
  C:3CC6H         LINE#         156
  C:3CCCH         LINE#         157
  C:3CCCH         LINE#         158
  C:3CCEH         LINE#         160
  C:3CD4H         LINE#         161
  C:3CD4H         LINE#         162
  C:3CD5H         LINE#         163
BL51 BANKED LINKER/LOCATER V6.22                                                      10/30/2015  13:58:41  PAGE 42


  C:3CDAH         LINE#         164
  C:3CDAH         LINE#         165
  C:3CDFH         LINE#         167
  C:3CE3H         LINE#         168
  C:3CE8H         LINE#         169
  C:3CE8H         LINE#         170
  C:3CEAH         LINE#         172
  C:3CF0H         LINE#         173
  C:3CF0H         LINE#         174
  C:3CF1H         LINE#         176
  C:3CF1H         LINE#         177
  C:3CF6H         LINE#         178
  C:3CF8H         LINE#         179
  C:3CF8H         LINE#         180
  -------         ENDPROC       DUST_LEVELUPDATE
  -------         ENDMOD        DUST

  -------         MODULE        MOTOR
  C:0000H         SYMBOL        _ICE_DUMMY_
  X:01EEH         PUBLIC        Motor_CurSpeed
  B:0022H.2       SYMBOL        Motor_runEnable
  B:0022H.3       PUBLIC        Motor_IsRunning
  C:5180H         PUBLIC        Motor_Stop
  C:222DH         PUBLIC        Motor_Ctr
  D:00BFH         PUBLIC        T1BDRH
  C:4D8DH         PUBLIC        _Motor_Run
  D:00BEH         PUBLIC        T1BDRL
  B:0022H.4       PUBLIC        Motor_SpeedUpdated
  X:01F0H         SYMBOL        Motor_pwnData
  X:01F2H         PUBLIC        Motor_ExpectSpeed
  -------         PROC          MOTOR_STOP
  C:5180H         LINE#         11
  C:5180H         LINE#         12
  C:5180H         LINE#         13
  C:5182H         LINE#         14
  C:5189H         LINE#         15
  -------         ENDPROC       MOTOR_STOP
  -------         PROC          _MOTOR_RUN
  D:0006H         SYMBOL        rpm
  C:4D8DH         LINE#         17
  C:4D8DH         LINE#         18
  C:4D8DH         LINE#         19
  C:4D8FH         LINE#         20
  C:4DA9H         LINE#         21
  -------         ENDPROC       _MOTOR_RUN
  -------         PROC          MOTOR_CTR
  -------         DO            
  X:01ECH         SYMBOL        Motor_lastSpeed
  X:01B6H         SYMBOL        deltaSp
  X:01B8H         SYMBOL        deltaA
  X:01BAH         SYMBOL        e
  -------         ENDDO         
  C:222DH         LINE#         23
  C:222DH         LINE#         24
  C:222DH         LINE#         31
  C:2247H         LINE#         33
  C:2255H         LINE#         34
BL51 BANKED LINKER/LOCATER V6.22                                                      10/30/2015  13:58:41  PAGE 43


  C:2255H         LINE#         35
  C:2258H         LINE#         36
  C:225AH         LINE#         37
  C:2260H         LINE#         38
  C:2261H         LINE#         40
  C:2261H         LINE#         41
  C:2264H         LINE#         42
  C:2264H         LINE#         44
  C:2272H         LINE#         45
  C:2282H         LINE#         46
  C:2282H         LINE#         47
  C:2289H         LINE#         49
  C:2289H         LINE#         50
  C:228CH         LINE#         52
  C:228CH         LINE#         54
  C:2292H         LINE#         55
  C:2292H         LINE#         56
  C:22A7H         LINE#         57
  C:22A7H         LINE#         58
  C:22B0H         LINE#         59
  C:22B2H         LINE#         61
  C:22B2H         LINE#         62
  C:22CDH         LINE#         63
  C:22CDH         LINE#         65
  C:22DAH         LINE#         66
  C:22DAH         LINE#         67
  C:22F4H         LINE#         69
  C:231EH         LINE#         71
  C:232EH         LINE#         72
  C:232EH         LINE#         73
  C:2342H         LINE#         74
  C:2342H         LINE#         75
  C:2344H         LINE#         77
  C:2344H         LINE#         78
  C:235FH         LINE#         79
  C:2389H         LINE#         80
  C:239FH         LINE#         81
  C:239FH         LINE#         82
  C:23B3H         LINE#         83
  C:23B3H         LINE#         84
  C:23B3H         LINE#         86
  C:23B5H         LINE#         87
  C:23B5H         LINE#         88
  C:23B5H         LINE#         90
  C:23C0H         LINE#         91
  C:23C2H         LINE#         93
  C:23D1H         LINE#         94
  C:23D1H         LINE#         95
  -------         ENDPROC       MOTOR_CTR
  -------         ENDMOD        MOTOR

  -------         MODULE        SYSTEM
  C:0000H         SYMBOL        _ICE_DUMMY_
  B:0020H.0       PUBLIC        Sys_SuperFastModeEn
  D:0088H         PUBLIC        P1
  B:0020H.1       PUBLIC        Sys_IsAutoMode
  B:0020H.2       PUBLIC        Sys_TimerFunEn
BL51 BANKED LINKER/LOCATER V6.22                                                      10/30/2015  13:58:41  PAGE 44


  X:00D9H         PUBLIC        Sys_WifiStrength
  X:00DAH         PUBLIC        Time_100msCnt
  X:00DBH         PUBLIC        Sys_PowerOffPoint1
  X:00DDH         PUBLIC        Sys_UVLedSta
  D:00A8H         PUBLIC        IE
  X:00DEH         PUBLIC        Sys_PowerOffPoint2
  X:00E0H         PUBLIC        Sys_CleanMode
  X:00E1H         PUBLIC        Sys_PowerOffPoint3
  X:00E3H         PUBLIC        Time_Flag1s
  X:00E4H         PUBLIC        Sys_AionStaEEPROM
  X:00E5H         PUBLIC        Sys_PlanformConnSta
  X:00E6H         PUBLIC        Sys_ClockTime
  C:4377H         PUBLIC        Sys_Reset
  X:00ECH         PUBLIC        Sys_UsedTimeRecord
  X:0100H         PUBLIC        Sys_TotalWorkedTime
  B:0020H.3       PUBLIC        Sys_MemoryDataExist
  B:0020H.4       PUBLIC        Sys_EDispEn
  X:0102H         PUBLIC        Sys_SpOptionEEPROM
  X:0103H         PUBLIC        Sys_PowerOnPoint1
  X:0105H         PUBLIC        Sys_PowerOnPoint2
  X:0107H         PUBLIC        Sys_PowerOnPoint3
  D:0087H         PUBLIC        PCON
  B:0088H.4       PUBLIC        P14
  B:0088H.5       PUBLIC        P15
  B:00A0H.3       PUBLIC        P43
  B:0088H.6       PUBLIC        P16
  X:0109H         PUBLIC        Sys_HVpgCnt
  X:010BH         PUBLIC        Sys_LeftTime
  X:010DH         PUBLIC        Sys_RemoteTimerCtr
  D:00ABH         PUBLIC        IE3
  B:0020H.5       PUBLIC        Time_Flag1Min
  C:3755H         PUBLIC        Sys_UpdateTimerOnIndex
  B:0020H.6       PUBLIC        Sys_NHVModeEn
  X:010EH         PUBLIC        Sys_LoadsEn
  B:0020H.7       PUBLIC        Sys_IsAutoModeEEPROM
  C:46A4H         PUBLIC        Sys_LoadCtr
  X:010FH         PUBLIC        Sys_FixMode
  C:4C2DH         PUBLIC        Sys_EnterStopMode
  X:0110H         PUBLIC        Sys_AionSta
  X:0111H         PUBLIC        Sys_WorkTime
  X:0113H         PUBLIC        Sys_UVLedStaEEPROM
  X:0114H         PUBLIC        Sys_PowerSta
  X:0115H         PUBLIC        Sys_TimerOnIndex
  X:0116H         PUBLIC        Sys_Pm25Records_10
  X:0130H         PUBLIC        Sys_Pm25Records_30
  X:014AH         PUBLIC        Sys_SpOption
  C:4D6FH         PUBLIC        Timer_Points
  X:014BH         PUBLIC        Sys_RouteConnSta
  X:014CH         PUBLIC        Sys_AmountOfWipedDust
  X:014EH         PUBLIC        Sys_LightLowerCountdown
  C:4D81H         PUBLIC        Sys_TimerSegments
  X:014FH         PUBLIC        Time_RTCSec
  X:0150H         PUBLIC        Sys_EWorkedMin
  X:0154H         PUBLIC        Sys_TimerStartedIndex
  -------         PROC          SYS_UPDATETIMERONINDEX
  -------         DO            
  X:01BAH         SYMBOL        temp
BL51 BANKED LINKER/LOCATER V6.22                                                      10/30/2015  13:58:41  PAGE 45


  X:01BCH         SYMBOL        i
  X:01BDH         SYMBOL        t1
  D:0006H         SYMBOL        t2
  -------         ENDDO         
  C:3755H         LINE#         81
  C:3755H         LINE#         82
  C:3755H         LINE#         89
  C:375FH         LINE#         90
  C:3765H         LINE#         91
  C:3777H         LINE#         92
  C:3777H         LINE#         93
  C:379FH         LINE#         94
  C:379FH         LINE#         95
  C:37F3H         LINE#         96
  C:3804H         LINE#         98
  C:3812H         LINE#         99
  C:3812H         LINE#         100
  C:3825H         LINE#         101
  C:3825H         LINE#         102
  C:3837H         LINE#         103
  C:383DH         LINE#         104
  C:383DH         LINE#         105
  C:383DH         LINE#         106
  C:383DH         LINE#         107
  C:3847H         LINE#         108
  -------         ENDPROC       SYS_UPDATETIMERONINDEX
  -------         PROC          SYS_LOADCTR
  C:46A4H         LINE#         111
  C:46A4H         LINE#         112
  C:46A4H         LINE#         113
  C:46A9H         LINE#         114
  C:46C3H         LINE#         116
  C:46CAH         LINE#         117
  C:46CAH         LINE#         118
  C:46CCH         LINE#         119
  C:46CEH         LINE#         121
  C:46CEH         LINE#         122
  C:46D0H         LINE#         123
  C:46D0H         LINE#         125
  C:46D7H         LINE#         126
  C:46D7H         LINE#         127
  C:46D9H         LINE#         128
  C:46DBH         LINE#         130
  C:46DBH         LINE#         131
  C:46DDH         LINE#         132
  C:46DDH         LINE#         134
  C:46E4H         LINE#         135
  C:46E4H         LINE#         136
  C:46E6H         LINE#         137
  C:46E8H         LINE#         139
  C:46E8H         LINE#         140
  C:46EAH         LINE#         141
  C:46EAH         LINE#         143
  C:46F1H         LINE#         144
  C:46F1H         LINE#         145
  C:46F3H         LINE#         146
  C:46F4H         LINE#         148
BL51 BANKED LINKER/LOCATER V6.22                                                      10/30/2015  13:58:41  PAGE 46


  C:46F4H         LINE#         149
  C:46F6H         LINE#         150
  C:46F6H         LINE#         151
  -------         ENDPROC       SYS_LOADCTR
  -------         PROC          SYS_ENTERSTOPMODE
  -------         DO            
  X:00D8H         SYMBOL        cnt
  -------         ENDDO         
  C:4C2DH         LINE#         153
  C:4C2DH         LINE#         154
  C:4C2DH         LINE#         158
  C:4C32H         LINE#         159
  C:4C32H         LINE#         160
  C:4C38H         LINE#         161
  C:4C3EH         LINE#         162
  C:4C3EH         LINE#         163
  C:4C40H         LINE#         165
  C:4C43H         LINE#         166
  C:4C47H         LINE#         167
  C:4C4BH         LINE#         169
  C:4C4EH         LINE#         170
  C:4C51H         LINE#         171
  C:4C54H         LINE#         172
  C:4C54H         LINE#         173
  C:4C55H         LINE#         175
  C:4C55H         LINE#         176
  C:4C5AH         LINE#         177
  C:4C5AH         LINE#         178
  -------         ENDPROC       SYS_ENTERSTOPMODE
  -------         PROC          SYS_RESET
  -------         DO            
  D:0007H         SYMBOL        i
  -------         ENDDO         
  C:4377H         LINE#         181
  C:4377H         LINE#         182
  C:4377H         LINE#         185
  C:4379H         LINE#         186
  C:437FH         LINE#         188
  C:4384H         LINE#         189
  C:4388H         LINE#         190
  C:438CH         LINE#         191
  C:4390H         LINE#         192
  C:4394H         LINE#         193
  C:4398H         LINE#         195
  C:439CH         LINE#         196
  C:43A0H         LINE#         197
  C:43A4H         LINE#         198
  C:43A8H         LINE#         199
  C:43ACH         LINE#         200
  C:43B0H         LINE#         202
  C:43B1H         LINE#         203
  C:43B1H         LINE#         204
  C:43BDH         LINE#         205
  C:43C2H         LINE#         207
  C:43C4H         LINE#         208
  C:43CBH         LINE#         209
  C:43CEH         LINE#         211
BL51 BANKED LINKER/LOCATER V6.22                                                      10/30/2015  13:58:41  PAGE 47


  C:43D4H         LINE#         212
  C:43D8H         LINE#         214
  C:43DAH         LINE#         216
  C:43E4H         LINE#         217
  C:43E6H         LINE#         219
  C:43E8H         LINE#         220
  C:43EFH         LINE#         221
  -------         ENDPROC       SYS_RESET
  -------         ENDMOD        SYSTEM

  -------         MODULE        KEY
  C:0000H         SYMBOL        _ICE_DUMMY_
  D:0090H         PUBLIC        P2
  D:0098H         PUBLIC        P3
  X:01FEH         PUBLIC        Key_Code
  C:46F7H         SYMBOL        Key_Read
  D:00B9H         PUBLIC        P2IO
  D:00C1H         PUBLIC        P3IO
  B:0023H.5       PUBLIC        Key_Released
  C:3ACAH         PUBLIC        Key_ActionDetect
  X:01FFH         PUBLIC        Key_Action
  -------         PROC          KEY_READ
  -------         DO            
  D:0007H         SYMBOL        keyDat
  -------         ENDDO         
  C:46F7H         LINE#         9
  C:46F7H         LINE#         10
  C:46F7H         LINE#         14
  C:46FAH         LINE#         16
  C:46FEH         LINE#         17
  C:4701H         LINE#         18
  C:4704H         LINE#         19
  C:470AH         LINE#         20
  C:470EH         LINE#         22
  C:4710H         LINE#         24
  C:4715H         LINE#         25
  C:4715H         LINE#         26
  C:4716H         LINE#         27
  C:4716H         LINE#         29
  C:471BH         LINE#         30
  C:471BH         LINE#         31
  C:471FH         LINE#         32
  C:471FH         LINE#         34
  C:4724H         LINE#         35
  C:4724H         LINE#         36
  C:4728H         LINE#         37
  C:4728H         LINE#         39
  C:472DH         LINE#         40
  C:472DH         LINE#         41
  C:4731H         LINE#         42
  C:4731H         LINE#         44
  C:4736H         LINE#         45
  C:4736H         LINE#         46
  C:473AH         LINE#         47
  C:473AH         LINE#         49
  C:473FH         LINE#         50
  C:473FH         LINE#         51
BL51 BANKED LINKER/LOCATER V6.22                                                      10/30/2015  13:58:41  PAGE 48


  C:4743H         LINE#         52
  C:4743H         LINE#         54
  C:4749H         LINE#         56
  C:4749H         LINE#         57
  -------         ENDPROC       KEY_READ
  -------         PROC          KEY_ACTIONDETECT
  -------         DO            
  X:01B6H         SYMBOL        Key_codeBuf
  X:01FCH         SYMBOL        Key_stateHoldCnt
  X:01FDH         SYMBOL        Key_stateHoldCntExt
  -------         ENDDO         
  C:3ACAH         LINE#         59
  C:3ACAH         LINE#         60
  C:3ACAH         LINE#         66
  C:3AD2H         LINE#         67
  C:3AD9H         LINE#         68
  C:3AD9H         LINE#         69
  C:3AEEH         LINE#         70
  C:3AEEH         LINE#         71
  C:3AF4H         LINE#         72
  C:3B0AH         LINE#         73
  C:3B0AH         LINE#         74
  C:3B12H         LINE#         75
  C:3B13H         LINE#         77
  C:3B13H         LINE#         78
  C:3B19H         LINE#         79
  C:3B19H         LINE#         80
  C:3B1DH         LINE#         81
  C:3B1FH         LINE#         83
  C:3B21H         LINE#         84
  C:3B22H         LINE#         86
  C:3B22H         LINE#         87
  C:3B27H         LINE#         88
  C:3B2DH         LINE#         89
  C:3B31H         LINE#         91
  C:3B37H         LINE#         92
  C:3B37H         LINE#         93
  C:3B3AH         LINE#         94
  C:3B40H         LINE#         95
  C:3B56H         LINE#         96
  C:3B56H         LINE#         98
  C:3B5EH         LINE#         99
  C:3B5EH         LINE#         100
  C:3B64H         LINE#         101
  C:3B66H         LINE#         102
  C:3B6AH         LINE#         103
  C:3B6AH         LINE#         104
  C:3B70H         LINE#         105
  C:3B72H         LINE#         107
  C:3B72H         LINE#         108
  C:3B78H         LINE#         109
  C:3B78H         LINE#         110
  C:3B7EH         LINE#         111
  C:3B7FH         LINE#         113
  C:3B7FH         LINE#         115
  C:3B95H         LINE#         116
  C:3B95H         LINE#         117
BL51 BANKED LINKER/LOCATER V6.22                                                      10/30/2015  13:58:41  PAGE 49


  C:3B95H         LINE#         118
  -------         ENDPROC       KEY_ACTIONDETECT
  -------         ENDMOD        KEY

  -------         MODULE        FIFO
  C:0000H         SYMBOL        _ICE_DUMMY_
  C:514AH         PUBLIC        _InitQueue
  C:4F5EH         PUBLIC        _QueueLen
  C:4647H         PUBLIC        _Dequeue
  C:5079H         PUBLIC        _QueueIsEmpty
  C:4A57H         PUBLIC        _QueueIsFull
  C:44C9H         PUBLIC        _Enqueue
  -------         PROC          _INITQUEUE
  D:0001H         SYMBOL        queue
  C:514AH         LINE#         3
  C:514AH         LINE#         4
  C:514AH         LINE#         5
  -------         ENDPROC       _INITQUEUE
  -------         PROC          _QUEUEISEMPTY
  D:0001H         SYMBOL        queue
  C:5079H         LINE#         8
  C:5079H         LINE#         9
  C:5079H         LINE#         10
  C:508DH         LINE#         11
  -------         ENDPROC       _QUEUEISEMPTY
  -------         PROC          _QUEUEISFULL
  X:01C3H         SYMBOL        queue
  C:4A57H         LINE#         13
  C:4A62H         LINE#         14
  C:4A62H         LINE#         15
  C:4A8FH         LINE#         16
  -------         ENDPROC       _QUEUEISFULL
  -------         PROC          _QUEUELEN
  D:0001H         SYMBOL        queue
  C:4F5EH         LINE#         18
  C:4F5EH         LINE#         19
  C:4F5EH         LINE#         20
  C:4F77H         LINE#         21
  -------         ENDPROC       _QUEUELEN
  -------         PROC          _ENQUEUE
  X:01BFH         SYMBOL        queue
  X:01C2H         SYMBOL        element
  C:44C9H         LINE#         23
  C:44D9H         LINE#         24
  C:44D9H         LINE#         25
  C:44DEH         LINE#         26
  C:44DEH         LINE#         27
  C:44FDH         LINE#         28
  C:4524H         LINE#         29
  C:4524H         LINE#         31
  C:4529H         LINE#         32
  -------         ENDPROC       _ENQUEUE
  -------         PROC          _DEQUEUE
  X:01BFH         SYMBOL        queue
  -------         DO            
  X:01C2H         SYMBOL        result
  -------         ENDDO         
BL51 BANKED LINKER/LOCATER V6.22                                                      10/30/2015  13:58:41  PAGE 50


  C:4647H         LINE#         34
  C:4652H         LINE#         35
  C:4652H         LINE#         38
  C:4655H         LINE#         39
  C:465AH         LINE#         40
  C:465AH         LINE#         41
  C:4677H         LINE#         42
  C:469EH         LINE#         43
  C:469EH         LINE#         45
  C:46A3H         LINE#         46
  -------         ENDPROC       _DEQUEUE
  -------         ENDMOD        FIFO

  -------         MODULE        PROTOCOL
  C:0000H         SYMBOL        _ICE_DUMMY_
  C:11C3H         SYMBOL        _Protocol_StaResp
  B:0023H.6       SYMBOL        isWaitingHeader
  C:4CB4H         SYMBOL        CMD_POWER_CTR_DEAL
  C:3DA6H         SYMBOL        CMD_GET_ENE_DATAS_DEAL
  C:4DAAH         SYMBOL        CMD_AION_CTR_DEAL
  C:4960H         SYMBOL        CMD_RT_SET_DEAL
  C:4DC7H         SYMBOL        CMD_UV_CTR_DEAL
  C:2082H         SYMBOL        CMD_GET_DEVICE_INFO_DEAL
  C:4F78H         SYMBOL        CMD_WIFI_STA_CHANGE_DEAL
  C:001EH         SYMBOL        CMD_GET_SYS_STA_DEAL
  C:006AH         SYMBOL        CMD_DUMMY_DEAL
  C:45E8H         SYMBOL        CMD_FAN_CTR_DEAL
  C:23D2H         PUBLIC        Protocol_Task
  C:51C2H         PUBLIC        Protocol_Init
  C:3848H         PUBLIC        Protocol_ResetWifiMode
  C:4AC8H         SYMBOL        CMD_MEM_SET_DEAL
  C:270EH         SYMBOL        CMD_GET_PM_DATAS_DEAL
  C:5063H         SYMBOL        CMD_CLEAN_CTR_DEAL
  C:504DH         SYMBOL        CMD_FIX_CTR_DEAL
  X:0203H         SYMBOL        rxIndex
  C:4DE4H         SYMBOL        CMD_REST_DEAL
  C:4888H         PUBLIC        ProtocolTab
  C:3EFFH         PUBLIC        Protocol_EnterATmode
  C:42FDH         SYMBOL        CMD_TIMER_CTR_DEAL
  -------         PROC          _PROTOCOL_STARESP
  X:01BAH         SYMBOL        cmd
  -------         DO            
  X:01BBH         SYMBOL        sum
  -------         ENDDO         
  C:11C3H         LINE#         41
  C:11C8H         LINE#         42
  C:11C8H         LINE#         45
  C:11CBH         LINE#         47
  C:11DBH         LINE#         48
  C:11EBH         LINE#         50
  C:1204H         LINE#         51
  C:121AH         LINE#         53
  C:1233H         LINE#         55
  C:124CH         LINE#         56
  C:1266H         LINE#         58
  C:127FH         LINE#         59
  C:1299H         LINE#         61
BL51 BANKED LINKER/LOCATER V6.22                                                      10/30/2015  13:58:41  PAGE 51


  C:12B2H         LINE#         62
  C:12CCH         LINE#         64
  C:12E5H         LINE#         65
  C:12FFH         LINE#         67
  C:1317H         LINE#         68
  C:132FH         LINE#         70
  C:133DH         LINE#         71
  C:133DH         LINE#         72
  C:133EH         LINE#         73
  C:1340H         LINE#         75
  C:1340H         LINE#         76
  C:134EH         LINE#         77
  C:134EH         LINE#         79
  C:136FH         LINE#         80
  C:1390H         LINE#         82
  C:13A9H         LINE#         83
  C:13C2H         LINE#         85
  C:13DBH         LINE#         86
  C:13F4H         LINE#         87
  C:140DH         LINE#         88
  C:1426H         LINE#         90
  C:143FH         LINE#         91
  C:1458H         LINE#         92
  C:1471H         LINE#         93
  C:148AH         LINE#         95
  C:14A3H         LINE#         96
  C:14BCH         LINE#         97
  C:14D5H         LINE#         98
  C:14EEH         LINE#         100
  C:1504H         LINE#         101
  C:151AH         LINE#         103
  C:1530H         LINE#         105
  C:1546H         LINE#         106
  C:155CH         LINE#         108
  C:1572H         LINE#         110
  C:1588H         LINE#         112
  C:159EH         LINE#         113
  C:15B4H         LINE#         116
  C:15C7H         LINE#         117
  C:15D7H         LINE#         119
  -------         ENDPROC       _PROTOCOL_STARESP
  -------         PROC          CMD_DUMMY_DEAL
  C:006AH         LINE#         123
  C:006AH         LINE#         124
  C:006AH         LINE#         126
  -------         ENDPROC       CMD_DUMMY_DEAL
  -------         PROC          CMD_GET_SYS_STA_DEAL
  C:001EH         LINE#         128
  C:001EH         LINE#         129
  C:001EH         LINE#         130
  -------         ENDPROC       CMD_GET_SYS_STA_DEAL
  -------         PROC          CMD_POWER_CTR_DEAL
  C:4CB4H         LINE#         132
  C:4CB4H         LINE#         133
  C:4CB4H         LINE#         134
  C:4CBDH         LINE#         135
  C:4CC0H         LINE#         136
BL51 BANKED LINKER/LOCATER V6.22                                                      10/30/2015  13:58:41  PAGE 52


  C:4CC0H         LINE#         137
  C:4CC4H         LINE#         138
  C:4CC6H         LINE#         140
  C:4CC6H         LINE#         141
  C:4CD1H         LINE#         142
  C:4CD1H         LINE#         143
  C:4CDAH         LINE#         144
  -------         ENDPROC       CMD_POWER_CTR_DEAL
  -------         PROC          CMD_FAN_CTR_DEAL
  C:45E8H         LINE#         146
  C:45E8H         LINE#         147
  C:45E8H         LINE#         148
  C:45F0H         LINE#         149
  C:45F0H         LINE#         150
  C:45F7H         LINE#         151
  C:45F7H         LINE#         152
  C:45F9H         LINE#         153
  C:4601H         LINE#         154
  C:4603H         LINE#         156
  C:4603H         LINE#         157
  C:4605H         LINE#         158
  C:4605H         LINE#         161
  C:460CH         LINE#         162
  C:460CH         LINE#         163
  C:4611H         LINE#         164
  C:4611H         LINE#         165
  C:4617H         LINE#         166
  C:461BH         LINE#         167
  C:461BH         LINE#         168
  C:4620H         LINE#         169
  C:4624H         LINE#         170
  C:4624H         LINE#         172
  C:462DH         LINE#         174
  C:4630H         LINE#         175
  C:4630H         LINE#         176
  C:4635H         LINE#         177
  C:4639H         LINE#         178
  C:4639H         LINE#         180
  C:4642H         LINE#         181
  C:4642H         LINE#         183
  -------         ENDPROC       CMD_FAN_CTR_DEAL
  -------         PROC          CMD_FIX_CTR_DEAL
  C:504DH         LINE#         185
  C:504DH         LINE#         186
  C:504DH         LINE#         187
  C:5055H         LINE#         188
  C:505EH         LINE#         189
  -------         ENDPROC       CMD_FIX_CTR_DEAL
  -------         PROC          CMD_CLEAN_CTR_DEAL
  C:5063H         LINE#         191
  C:5063H         LINE#         192
  C:5063H         LINE#         193
  C:506BH         LINE#         194
  C:5074H         LINE#         195
  -------         ENDPROC       CMD_CLEAN_CTR_DEAL
  -------         PROC          CMD_AION_CTR_DEAL
  C:4DAAH         LINE#         197
BL51 BANKED LINKER/LOCATER V6.22                                                      10/30/2015  13:58:41  PAGE 53


  C:4DAAH         LINE#         198
  C:4DAAH         LINE#         199
  C:4DB1H         LINE#         200
  C:4DB1H         LINE#         201
  C:4DB9H         LINE#         202
  C:4DC2H         LINE#         203
  C:4DC2H         LINE#         205
  -------         ENDPROC       CMD_AION_CTR_DEAL
  -------         PROC          CMD_UV_CTR_DEAL
  C:4DC7H         LINE#         207
  C:4DC7H         LINE#         208
  C:4DC7H         LINE#         209
  C:4DCEH         LINE#         210
  C:4DCEH         LINE#         211
  C:4DD6H         LINE#         212
  C:4DDFH         LINE#         213
  C:4DDFH         LINE#         215
  -------         ENDPROC       CMD_UV_CTR_DEAL
  -------         PROC          CMD_TIMER_CTR_DEAL
  C:42FDH         LINE#         217
  C:42FDH         LINE#         218
  C:42FDH         LINE#         219
  C:4305H         LINE#         220
  C:430DH         LINE#         221
  C:4315H         LINE#         222
  C:431DH         LINE#         224
  C:4325H         LINE#         225
  C:432DH         LINE#         226
  C:4335H         LINE#         227
  C:433DH         LINE#         229
  C:4345H         LINE#         230
  C:434DH         LINE#         231
  C:4355H         LINE#         232
  C:435DH         LINE#         234
  C:435FH         LINE#         235
  C:4366H         LINE#         237
  C:4369H         LINE#         239
  C:4372H         LINE#         240
  -------         ENDPROC       CMD_TIMER_CTR_DEAL
  -------         PROC          CMD_GET_PM_DATAS_DEAL
  -------         DO            
  X:01BAH         SYMBOL        sum
  X:01BBH         SYMBOL        i
  X:01BCH         SYMBOL        ptr
  -------         ENDDO         
  C:270EH         LINE#         242
  C:270EH         LINE#         243
  C:270EH         LINE#         248
  C:2718H         LINE#         249
  C:2718H         LINE#         250
  C:2723H         LINE#         251
  C:2725H         LINE#         253
  C:2725H         LINE#         254
  C:2730H         LINE#         255
  C:2730H         LINE#         257
  C:2740H         LINE#         258
  C:2750H         LINE#         260
BL51 BANKED LINKER/LOCATER V6.22                                                      10/30/2015  13:58:41  PAGE 54


  C:2765H         LINE#         261
  C:277BH         LINE#         264
  C:279EH         LINE#         265
  C:27C4H         LINE#         267
  C:27D1H         LINE#         268
  C:27D1H         LINE#         269
  C:2803H         LINE#         270
  C:2838H         LINE#         271
  C:283EH         LINE#         273
  C:2851H         LINE#         274
  C:2861H         LINE#         276
  C:286AH         LINE#         278
  -------         ENDPROC       CMD_GET_PM_DATAS_DEAL
  -------         PROC          CMD_GET_ENE_DATAS_DEAL
  -------         DO            
  X:01BAH         SYMBOL        sum
  X:01BBH         SYMBOL        i
  -------         ENDDO         
  C:3DA6H         LINE#         280
  C:3DA6H         LINE#         281
  C:3DA6H         LINE#         285
  C:3DB6H         LINE#         286
  C:3DC6H         LINE#         288
  C:3DDBH         LINE#         289
  C:3DF1H         LINE#         291
  C:3DFEH         LINE#         292
  C:3DFEH         LINE#         293
  C:3E1EH         LINE#         294
  C:3E24H         LINE#         296
  C:3E37H         LINE#         297
  C:3E47H         LINE#         299
  C:3E50H         LINE#         301
  -------         ENDPROC       CMD_GET_ENE_DATAS_DEAL
  -------         PROC          CMD_RT_SET_DEAL
  C:4960H         LINE#         303
  C:4960H         LINE#         304
  C:4960H         LINE#         306
  C:4975H         LINE#         307
  C:497DH         LINE#         308
  C:4985H         LINE#         309
  C:498DH         LINE#         310
  C:4995H         LINE#         312
  C:499EH         LINE#         314
  -------         ENDPROC       CMD_RT_SET_DEAL
  -------         PROC          CMD_MEM_SET_DEAL
  C:4AC8H         LINE#         316
  C:4AC8H         LINE#         317
  C:4AC8H         LINE#         320
  C:4ACAH         LINE#         322
  C:4ACEH         LINE#         323
  C:4AD6H         LINE#         324
  C:4ADEH         LINE#         325
  C:4AE6H         LINE#         327
  C:4AF1H         LINE#         329
  C:4AFAH         LINE#         330
  -------         ENDPROC       CMD_MEM_SET_DEAL
  -------         PROC          CMD_REST_DEAL
BL51 BANKED LINKER/LOCATER V6.22                                                      10/30/2015  13:58:41  PAGE 55


  C:4DE4H         LINE#         332
  C:4DE4H         LINE#         333
  C:4DE4H         LINE#         334
  C:4DE7H         LINE#         336
  C:4DF2H         LINE#         337
  C:4DFBH         LINE#         338
  -------         ENDPROC       CMD_REST_DEAL
  -------         PROC          CMD_GET_DEVICE_INFO_DEAL
  -------         DO            
  X:01BAH         SYMBOL        sum
  -------         ENDDO         
  C:2082H         LINE#         342
  C:2082H         LINE#         343
  C:2082H         LINE#         346
  C:2087H         LINE#         348
  C:2097H         LINE#         349
  C:20A7H         LINE#         351
  C:20BDH         LINE#         353
  C:20D3H         LINE#         356
  C:20E9H         LINE#         357
  C:20FFH         LINE#         359
  C:2115H         LINE#         360
  C:212BH         LINE#         362
  C:2141H         LINE#         363
  C:2157H         LINE#         365
  C:216DH         LINE#         366
  C:2183H         LINE#         368
  C:2199H         LINE#         369
  C:21AFH         LINE#         371
  C:21C5H         LINE#         372
  C:21DBH         LINE#         374
  C:21F1H         LINE#         375
  C:2207H         LINE#         377
  C:221AH         LINE#         379
  C:222AH         LINE#         381
  -------         ENDPROC       CMD_GET_DEVICE_INFO_DEAL
  -------         PROC          CMD_WIFI_STA_CHANGE_DEAL
  C:4F78H         LINE#         383
  C:4F78H         LINE#         384
  C:4F78H         LINE#         386
  C:4F80H         LINE#         388
  C:4F88H         LINE#         390
  C:4F90H         LINE#         391
  -------         ENDPROC       CMD_WIFI_STA_CHANGE_DEAL
  -------         PROC          PROTOCOL_INIT
  C:51C2H         LINE#         423
  C:51C2H         LINE#         424
  C:51C2H         LINE#         425
  C:51C4H         LINE#         426
  C:51C9H         LINE#         427
  -------         ENDPROC       PROTOCOL_INIT
  -------         PROC          PROTOCOL_ENTERATMODE
  C:3EFFH         LINE#         429
  C:3EFFH         LINE#         430
  C:3EFFH         LINE#         432
  C:3F0FH         LINE#         433
  C:3F1FH         LINE#         434
BL51 BANKED LINKER/LOCATER V6.22                                                      10/30/2015  13:58:41  PAGE 56


  C:3F2FH         LINE#         435
  C:3F3FH         LINE#         436
  C:3F4FH         LINE#         437
  C:3F5FH         LINE#         438
  C:3F6FH         LINE#         439
  C:3F7FH         LINE#         440
  C:3F8FH         LINE#         441
  C:3F9FH         LINE#         443
  -------         ENDPROC       PROTOCOL_ENTERATMODE
  -------         PROC          PROTOCOL_RESETWIFIMODE
  C:3848H         LINE#         446
  C:3848H         LINE#         447
  C:3848H         LINE#         450
  C:3858H         LINE#         451
  C:3868H         LINE#         452
  C:3878H         LINE#         453
  C:3888H         LINE#         454
  C:3898H         LINE#         455
  C:38A8H         LINE#         456
  C:38B8H         LINE#         457
  C:38C8H         LINE#         458
  C:38D8H         LINE#         459
  C:38E8H         LINE#         460
  C:38F8H         LINE#         461
  C:3908H         LINE#         462
  C:3918H         LINE#         463
  C:3928H         LINE#         465
  -------         ENDPROC       PROTOCOL_RESETWIFIMODE
  -------         PROC          PROTOCOL_TASK
  -------         DO            
  X:01B6H         SYMBOL        dat
  X:01B7H         SYMBOL        cmdDeal
  X:0200H         SYMBOL        checksum
  X:0201H         SYMBOL        len
  X:0202H         SYMBOL        cmd
  -------         ENDDO         
  C:23D2H         LINE#         468
  C:23D2H         LINE#         469
  C:23D2H         LINE#         478
  C:23E0H         LINE#         480
  C:23FEH         LINE#         481
  C:23FEH         LINE#         483
  C:2410H         LINE#         484
  C:2437H         LINE#         487
  C:243AH         LINE#         488
  C:243AH         LINE#         489
  C:2441H         LINE#         490
  C:2441H         LINE#         491
  C:2447H         LINE#         492
  C:244CH         LINE#         493
  C:244CH         LINE#         494
  C:244EH         LINE#         495
  C:244FH         LINE#         496
  C:2453H         LINE#         497
  C:2453H         LINE#         498
  C:2455H         LINE#         500
  C:2455H         LINE#         501
BL51 BANKED LINKER/LOCATER V6.22                                                      10/30/2015  13:58:41  PAGE 57


  C:2455H         LINE#         502
  C:2455H         LINE#         503
  C:2458H         LINE#         505
  C:2458H         LINE#         506
  C:246CH         LINE#         507
  C:2472H         LINE#         509
  C:2478H         LINE#         511
  C:247DH         LINE#         512
  C:247DH         LINE#         513
  C:2485H         LINE#         514
  C:2488H         LINE#         515
  C:2490H         LINE#         516
  C:2490H         LINE#         517
  C:24A0H         LINE#         518
  C:24A0H         LINE#         519
  C:24B4H         LINE#         520
  C:24C2H         LINE#         521
  C:24C4H         LINE#         522
  C:24CCH         LINE#         523
  C:24CCH         LINE#         524
  C:24D5H         LINE#         525
  C:24D8H         LINE#         526
  C:24DAH         LINE#         527
  C:24DEH         LINE#         528
  C:24DEH         LINE#         529
  C:24E7H         LINE#         530
  C:24FFH         LINE#         531
  C:2501H         LINE#         533
  C:2501H         LINE#         535
  C:2501H         LINE#         536
  C:2503H         LINE#         538
  C:2503H         LINE#         540
  C:2512H         LINE#         541
  C:2512H         LINE#         543
  C:2514H         LINE#         544
  C:251AH         LINE#         546
  C:251AH         LINE#         547
  C:251AH         LINE#         548
  C:2536H         LINE#         549
  C:2536H         LINE#         551
  C:255CH         LINE#         554
  C:255CH         LINE#         556
  C:2568H         LINE#         557
  C:2568H         LINE#         559
  C:256AH         LINE#         560
  C:256FH         LINE#         561
  C:256FH         LINE#         562
  C:256FH         LINE#         563
  C:2572H         LINE#         564
  -------         ENDPROC       PROTOCOL_TASK
  -------         ENDMOD        PROTOCOL

  -------         MODULE        UART
  C:0000H         SYMBOL        _ICE_DUMMY_
  C:0026H         PUBLIC        Uart_SendStartup
  C:4AFFH         PUBLIC        Uart_MemoryInit
  X:006AH         PUBLIC        Rx_Timeout
BL51 BANKED LINKER/LOCATER V6.22                                                      10/30/2015  13:58:41  PAGE 58


  X:006BH         PUBLIC        Tx_Timeout
  X:006CH         PUBLIC        Rx_Queue
  X:006FH         PUBLIC        Tx_Queue
  D:00F5H         PUBLIC        USI1DR
  B:0023H.1       PUBLIC        Rx_QueueDataExist
  X:0072H         PUBLIC        Rx_Buf
  X:00A5H         PUBLIC        Tx_Buf
  C:51B1H         PUBLIC        Uart_RxDatsDeal
  B:0023H.2       PUBLIC        Tx_Busy
  D:00EAH         PUBLIC        USI1CR2
  -------         PROC          UART_MEMORYINIT
  -------         DO            
  X:0000H         SYMBOL        Rx_queue
  X:0035H         SYMBOL        Tx_queue
  -------         ENDDO         
  C:4AFFH         LINE#         15
  C:4AFFH         LINE#         16
  C:4AFFH         LINE#         20
  C:4B10H         LINE#         21
  C:4B13H         LINE#         23
  C:4B24H         LINE#         24
  C:4B27H         LINE#         26
  C:4B2CH         LINE#         27
  C:4B2EH         LINE#         29
  C:4B30H         LINE#         30
  C:4B32H         LINE#         31
  -------         ENDPROC       UART_MEMORYINIT
  -------         PROC          UART_SENDSTARTUP
  -------         DO            
  D:0007H         SYMBOL        len
  -------         ENDDO         
  C:0026H         LINE#         33
  C:0026H         LINE#         34
  C:0026H         LINE#         37
  C:0029H         LINE#         38
  C:0029H         LINE#         39
  C:0037H         LINE#         41
  C:003DH         LINE#         42
  C:003EH         LINE#         44
  C:003EH         LINE#         45
  C:0042H         LINE#         46
  C:0042H         LINE#         47
  C:0052H         LINE#         48
  C:0054H         LINE#         50
  C:0054H         LINE#         51
  C:0064H         LINE#         52
  C:0066H         LINE#         53
  C:0066H         LINE#         55
  C:0069H         LINE#         56
  C:0069H         LINE#         57
  -------         ENDPROC       UART_SENDSTARTUP
  -------         PROC          UART_RXDATSDEAL
  C:51B1H         LINE#         59
  C:51B1H         LINE#         60
  C:51B1H         LINE#         61
  C:51B4H         LINE#         62
  C:51B4H         LINE#         63
BL51 BANKED LINKER/LOCATER V6.22                                                      10/30/2015  13:58:41  PAGE 59


  C:51B7H         LINE#         64
  C:51B9H         LINE#         65
  C:51B9H         LINE#         66
  -------         ENDPROC       UART_RXDATSDEAL
  -------         ENDMOD        UART

  -------         MODULE        FSM
  C:0000H         SYMBOL        _ICE_DUMMY_
  C:00A2H         PUBLIC        Task_DoNothing
  X:0206H         PUBLIC        currentState
  C:4E1BH         SYMBOL        doNothing
  C:474AH         PUBLIC        _State_TransitionTo
  -------         PROC          TASK_DONOTHING
  C:00A2H         LINE#         3
  -------         ENDPROC       TASK_DONOTHING
  -------         PROC          _STATE_TRANSITIONTO
  X:01BBH         SYMBOL        state
  B:0021H.4       SYMBOL        desStateEnterEventEnable
  B:0021H.5       SYMBOL        currentStateExitEventEnable
  C:474AH         LINE#         20
  C:4752H         LINE#         23
  C:4752H         LINE#         25
  C:4755H         LINE#         26
  C:4755H         LINE#         27
  C:476FH         LINE#         28
  C:476FH         LINE#         31
  C:477EH         LINE#         34
  C:4781H         LINE#         35
  C:4781H         LINE#         36
  C:479BH         LINE#         37
  C:479BH         LINE#         38
  -------         ENDPROC       _STATE_TRANSITIONTO
  -------         ENDMOD        FSM

  -------         MODULE        STATE_TEST
  C:0000H         SYMBOL        _ICE_DUMMY_
  C:520CH         SYMBOL        _enterEventDeal
  C:5206H         SYMBOL        _keyActionDeal
  C:4E36H         PUBLIC        State_Test
  C:520DH         SYMBOL        _exitEventDeal
  C:5208H         SYMBOL        _timeTick
  C:520AH         SYMBOL        _irDataDeal
  C:5207H         SYMBOL        _taskExe
  C:5209H         SYMBOL        _motorCtr
  C:520BH         SYMBOL        _rxDataDeal
  C:365BH         SYMBOL        _displayControl
  -------         PROC          _KEYACTIONDEAL
  C:5206H         LINE#         4
  C:5206H         LINE#         5
  C:5206H         LINE#         7
  -------         ENDPROC       _KEYACTIONDEAL
  -------         PROC          _DISPLAYCONTROL
  C:365BH         LINE#         9
  C:365BH         LINE#         10
  C:365BH         LINE#         11
  C:365EH         LINE#         12
  C:3665H         LINE#         13
BL51 BANKED LINKER/LOCATER V6.22                                                      10/30/2015  13:58:41  PAGE 60


  C:366CH         LINE#         15
  C:367AH         LINE#         16
  C:367AH         LINE#         17
  C:3688H         LINE#         18
  C:3688H         LINE#         20
  C:3696H         LINE#         21
  C:36A4H         LINE#         30
  C:36B0H         LINE#         31
  C:36B7H         LINE#         32
  C:36C5H         LINE#         33
  C:36CCH         LINE#         34
  C:36DAH         LINE#         35
  C:36E4H         LINE#         36
  C:36EBH         LINE#         37
  C:36F2H         LINE#         38
  C:36F5H         LINE#         39
  C:36F8H         LINE#         40
  C:36FBH         LINE#         41
  C:36FEH         LINE#         44
  C:3705H         LINE#         45
  C:370CH         LINE#         46
  C:371BH         LINE#         48
  C:3725H         LINE#         50
  C:372AH         LINE#         52
  C:372FH         LINE#         54
  C:3744H         LINE#         56
  C:3747H         LINE#         57
  C:3747H         LINE#         58
  C:374EH         LINE#         59
  C:374EH         LINE#         61
  C:3754H         LINE#         62
  -------         ENDPROC       _DISPLAYCONTROL
  -------         PROC          _TASKEXE
  C:5207H         LINE#         64
  C:5207H         LINE#         65
  C:5207H         LINE#         67
  -------         ENDPROC       _TASKEXE
  -------         PROC          _TIMETICK
  C:5208H         LINE#         70
  C:5208H         LINE#         71
  C:5208H         LINE#         73
  -------         ENDPROC       _TIMETICK
  -------         PROC          _MOTORCTR
  C:5209H         LINE#         76
  C:5209H         LINE#         77
  C:5209H         LINE#         79
  -------         ENDPROC       _MOTORCTR
  -------         PROC          _IRDATADEAL
  C:520AH         LINE#         82
  C:520AH         LINE#         83
  C:520AH         LINE#         89
  -------         ENDPROC       _IRDATADEAL
  -------         PROC          _RXDATADEAL
  C:520BH         LINE#         92
  C:520BH         LINE#         93
  C:520BH         LINE#         95
  -------         ENDPROC       _RXDATADEAL
BL51 BANKED LINKER/LOCATER V6.22                                                      10/30/2015  13:58:41  PAGE 61


  -------         PROC          _ENTEREVENTDEAL
  C:520CH         LINE#         97
  C:520CH         LINE#         98
  C:520CH         LINE#         100
  -------         ENDPROC       _ENTEREVENTDEAL
  -------         PROC          _EXITEVENTDEAL
  C:520DH         LINE#         102
  C:520DH         LINE#         103
  C:520DH         LINE#         105
  -------         ENDPROC       _EXITEVENTDEAL
  -------         ENDMOD        STATE_TEST

  -------         MODULE        STATE_STARTUP
  C:0000H         SYMBOL        _ICE_DUMMY_
  C:5158H         SYMBOL        _enterEventDeal
  C:520EH         SYMBOL        _keyActionDeal
  C:5212H         SYMBOL        _exitEventDeal
  C:4F91H         SYMBOL        _timeTick
  C:5210H         SYMBOL        _irDataDeal
  C:520FH         SYMBOL        _taskExe
  C:51F1H         SYMBOL        _motorCtr
  C:5211H         SYMBOL        _rxDataDeal
  C:518AH         SYMBOL        _displayControl
  C:4E51H         PUBLIC        State_Startup
  -------         PROC          _KEYACTIONDEAL
  C:520EH         LINE#         4
  C:520EH         LINE#         5
  C:520EH         LINE#         7
  -------         ENDPROC       _KEYACTIONDEAL
  -------         PROC          _DISPLAYCONTROL
  C:518AH         LINE#         9
  C:518AH         LINE#         10
  C:518AH         LINE#         12
  C:5190H         LINE#         13
  -------         ENDPROC       _DISPLAYCONTROL
  -------         PROC          _TASKEXE
  C:520FH         LINE#         16
  C:520FH         LINE#         17
  C:520FH         LINE#         19
  -------         ENDPROC       _TASKEXE
  -------         PROC          _TIMETICK
  C:4F91H         LINE#         22
  C:4F91H         LINE#         23
  C:4F91H         LINE#         24
  C:4F97H         LINE#         25
  C:4F9DH         LINE#         26
  C:4F9DH         LINE#         27
  C:4FA8H         LINE#         28
  C:4FA8H         LINE#         29
  -------         ENDPROC       _TIMETICK
  -------         PROC          _MOTORCTR
  C:51F1H         LINE#         32
  C:51F1H         LINE#         33
  C:51F1H         LINE#         34
  -------         ENDPROC       _MOTORCTR
  -------         PROC          _IRDATADEAL
  C:5210H         LINE#         38
BL51 BANKED LINKER/LOCATER V6.22                                                      10/30/2015  13:58:41  PAGE 62


  C:5210H         LINE#         39
  C:5210H         LINE#         41
  -------         ENDPROC       _IRDATADEAL
  -------         PROC          _RXDATADEAL
  C:5211H         LINE#         44
  C:5211H         LINE#         45
  C:5211H         LINE#         47
  -------         ENDPROC       _RXDATADEAL
  -------         PROC          _ENTEREVENTDEAL
  C:5158H         LINE#         49
  C:5158H         LINE#         50
  C:5158H         LINE#         51
  C:515DH         LINE#         53
  C:5163H         LINE#         54
  C:5165H         LINE#         55
  -------         ENDPROC       _ENTEREVENTDEAL
  -------         PROC          _EXITEVENTDEAL
  C:5212H         LINE#         57
  C:5212H         LINE#         58
  C:5212H         LINE#         60
  -------         ENDPROC       _EXITEVENTDEAL
  -------         ENDMOD        STATE_STARTUP

  -------         MODULE        STATE_STANDBY
  C:0000H         SYMBOL        _ICE_DUMMY_
  C:4A90H         SYMBOL        _enterEventDeal
  C:325BH         SYMBOL        _keyActionDeal
  C:5215H         SYMBOL        _exitEventDeal
  C:2E33H         SYMBOL        _timeTick
  C:2D24H         SYMBOL        _irDataDeal
  C:5213H         SYMBOL        _taskExe
  X:0208H         SYMBOL        NHVMode_countdown
  C:4E6CH         PUBLIC        State_Standby
  C:51F4H         SYMBOL        _motorCtr
  C:5214H         SYMBOL        _rxDataDeal
  C:335DH         SYMBOL        _displayControl
  X:0209H         SYMBOL        wifiResetCmdDelay
  B:0023H.7       SYMBOL        remoteTimerChanged
  -------         PROC          _KEYACTIONDEAL
  C:325BH         LINE#         8
  C:325BH         LINE#         9
  C:325BH         LINE#         11
  C:3261H         LINE#         12
  C:3261H         LINE#         13
  C:3264H         LINE#         14
  C:3267H         LINE#         16
  C:3267H         LINE#         17
  C:326DH         LINE#         19
  C:3273H         LINE#         20
  C:3273H         LINE#         22
  C:3273H         LINE#         25
  C:3276H         LINE#         26
  C:3276H         LINE#         27
  C:3281H         LINE#         28
  C:3281H         LINE#         30
  C:3281H         LINE#         31
  C:3281H         LINE#         34
BL51 BANKED LINKER/LOCATER V6.22                                                      10/30/2015  13:58:41  PAGE 63


  C:3289H         LINE#         35
  C:3289H         LINE#         37
  C:3290H         LINE#         38
  C:3290H         LINE#         39
  C:3299H         LINE#         40
  C:329DH         LINE#         41
  C:329FH         LINE#         43
  C:32A6H         LINE#         44
  C:32A6H         LINE#         45
  C:32AFH         LINE#         46
  C:32B3H         LINE#         47
  C:32B5H         LINE#         49
  C:32C0H         LINE#         50
  C:32C0H         LINE#         51
  C:32C9H         LINE#         52
  C:32CDH         LINE#         53
  C:32CDH         LINE#         54
  C:32CFH         LINE#         55
  C:32D7H         LINE#         56
  C:32D7H         LINE#         58
  C:32DEH         LINE#         59
  C:32DEH         LINE#         60
  C:32E7H         LINE#         61
  C:32EBH         LINE#         62
  C:32EDH         LINE#         64
  C:32F4H         LINE#         65
  C:32F4H         LINE#         66
  C:32FDH         LINE#         67
  C:3301H         LINE#         68
  C:3303H         LINE#         70
  C:330AH         LINE#         71
  C:330AH         LINE#         72
  C:3313H         LINE#         73
  C:331EH         LINE#         74
  C:331EH         LINE#         75
  C:3326H         LINE#         76
  C:3326H         LINE#         78
  C:3329H         LINE#         79
  C:332EH         LINE#         81
  C:332EH         LINE#         82
  C:332EH         LINE#         83
  C:3330H         LINE#         84
  C:3338H         LINE#         85
  C:3338H         LINE#         87
  C:333FH         LINE#         88
  C:333FH         LINE#         89
  C:3341H         LINE#         90
  C:3347H         LINE#         92
  C:3347H         LINE#         93
  C:3349H         LINE#         94
  C:3350H         LINE#         95
  C:3350H         LINE#         96
  C:3353H         LINE#         98
  C:335CH         LINE#         99
  C:335CH         LINE#         100
  C:335CH         LINE#         101
  -------         ENDPROC       _KEYACTIONDEAL
BL51 BANKED LINKER/LOCATER V6.22                                                      10/30/2015  13:58:41  PAGE 64


  -------         PROC          _DISPLAYCONTROL
  C:335DH         LINE#         103
  C:335DH         LINE#         104
  C:335DH         LINE#         105
  C:3363H         LINE#         106
  C:3363H         LINE#         107
  C:336BH         LINE#         109
  C:336BH         LINE#         111
  C:3372H         LINE#         113
  C:3379H         LINE#         114
  C:3380H         LINE#         115
  C:3387H         LINE#         116
  C:338EH         LINE#         119
  C:3394H         LINE#         122
  C:33A3H         LINE#         124
  C:33A6H         LINE#         125
  C:33A6H         LINE#         126
  C:33ADH         LINE#         129
  C:33B0H         LINE#         130
  C:33B0H         LINE#         131
  C:33BEH         LINE#         132
  C:33BEH         LINE#         133
  C:33BEH         LINE#         135
  C:33C6H         LINE#         136
  C:33C6H         LINE#         137
  C:33D2H         LINE#         138
  C:33D9H         LINE#         139
  C:33E8H         LINE#         140
  C:33E8H         LINE#         141
  C:33E8H         LINE#         142
  C:33EFH         LINE#         143
  C:33F6H         LINE#         144
  C:33F7H         LINE#         145
  C:33F7H         LINE#         146
  C:33FEH         LINE#         147
  C:3401H         LINE#         148
  C:3402H         LINE#         149
  C:3402H         LINE#         150
  C:3406H         LINE#         151
  C:3406H         LINE#         152
  C:3408H         LINE#         153
  C:3408H         LINE#         154
  C:3408H         LINE#         155
  C:340FH         LINE#         156
  C:3416H         LINE#         157
  C:3419H         LINE#         158
  C:341CH         LINE#         159
  C:341FH         LINE#         160
  C:341FH         LINE#         161
  C:3421H         LINE#         162
  C:3421H         LINE#         163
  C:3421H         LINE#         165
  C:3421H         LINE#         167
  C:3424H         LINE#         168
  C:3424H         LINE#         169
  C:342CH         LINE#         170
  C:342CH         LINE#         171
BL51 BANKED LINKER/LOCATER V6.22                                                      10/30/2015  13:58:41  PAGE 65


  C:3438H         LINE#         172
  C:343BH         LINE#         173
  C:343BH         LINE#         174
  C:3442H         LINE#         175
  C:3443H         LINE#         176
  C:344BH         LINE#         177
  C:344BH         LINE#         178
  C:3452H         LINE#         179
  C:3453H         LINE#         180
  C:3457H         LINE#         181
  C:3457H         LINE#         182
  C:345EH         LINE#         183
  C:345EH         LINE#         184
  C:345EH         LINE#         185
  C:345EH         LINE#         186
  C:345EH         LINE#         187
  -------         ENDPROC       _DISPLAYCONTROL
  -------         PROC          _TASKEXE
  C:5213H         LINE#         189
  C:5213H         LINE#         190
  C:5213H         LINE#         192
  -------         ENDPROC       _TASKEXE
  -------         PROC          _TIMETICK
  C:2E33H         LINE#         195
  C:2E33H         LINE#         196
  C:2E33H         LINE#         197
  C:2E39H         LINE#         198
  C:2E39H         LINE#         199
  C:2E3BH         LINE#         200
  C:2E3EH         LINE#         201
  C:2E3EH         LINE#         202
  C:2E41H         LINE#         203
  C:2E41H         LINE#         204
  C:2E41H         LINE#         206
  C:2E47H         LINE#         207
  C:2E47H         LINE#         208
  C:2E4DH         LINE#         209
  C:2E4DH         LINE#         210
  C:2E4FH         LINE#         211
  C:2E4FH         LINE#         213
  C:2E55H         LINE#         214
  C:2E55H         LINE#         215
  C:2E57H         LINE#         216
  C:2E5AH         LINE#         217
  C:2E5AH         LINE#         218
  C:2E5CH         LINE#         219
  C:2E5CH         LINE#         220
  C:2E5CH         LINE#         221
  C:2E5CH         LINE#         224
  C:2E65H         LINE#         225
  C:2E65H         LINE#         226
  C:2E67H         LINE#         229
  C:2E6EH         LINE#         230
  C:2E6EH         LINE#         231
  C:2E7AH         LINE#         232
  C:2E7AH         LINE#         233
  C:2EBBH         LINE#         235
BL51 BANKED LINKER/LOCATER V6.22                                                      10/30/2015  13:58:41  PAGE 66


  C:2EBBH         LINE#         236
  C:2EBBH         LINE#         237
  C:2EBBH         LINE#         238
  C:2EBBH         LINE#         239
  C:2EBBH         LINE#         240
  C:2EBDH         LINE#         242
  C:2EBDH         LINE#         244
  C:2EC3H         LINE#         245
  C:2EC3H         LINE#         246
  C:2ECBH         LINE#         247
  C:2ECBH         LINE#         248
  C:2F27H         LINE#         250
  C:2F27H         LINE#         252
  C:2F2CH         LINE#         254
  C:2F35H         LINE#         255
  C:2F40H         LINE#         256
  C:2F40H         LINE#         257
  C:2F40H         LINE#         258
  C:2F40H         LINE#         259
  C:2F40H         LINE#         260
  C:2F40H         LINE#         261
  -------         ENDPROC       _TIMETICK
  -------         PROC          _MOTORCTR
  C:51F4H         LINE#         264
  C:51F4H         LINE#         265
  C:51F4H         LINE#         266
  -------         ENDPROC       _MOTORCTR
  -------         PROC          _IRDATADEAL
  C:2D24H         LINE#         270
  C:2D24H         LINE#         271
  C:2D24H         LINE#         272
  C:2D2AH         LINE#         273
  C:2D2AH         LINE#         274
  C:2D2EH         LINE#         276
  C:2D2EH         LINE#         277
  C:2D34H         LINE#         279
  C:2D3FH         LINE#         280
  C:2D3FH         LINE#         281
  C:2D48H         LINE#         282
  C:2D53H         LINE#         283
  C:2D53H         LINE#         284
  C:2D61H         LINE#         285
  C:2D61H         LINE#         286
  C:2D68H         LINE#         287
  C:2D68H         LINE#         288
  C:2D6BH         LINE#         289
  C:2D6DH         LINE#         291
  C:2D6DH         LINE#         292
  C:2D74H         LINE#         293
  C:2D74H         LINE#         295
  C:2D7CH         LINE#         296
  C:2D7CH         LINE#         297
  C:2D7FH         LINE#         298
  C:2D8DH         LINE#         299
  C:2D8DH         LINE#         300
  C:2D97H         LINE#         301
  C:2D97H         LINE#         302
BL51 BANKED LINKER/LOCATER V6.22                                                      10/30/2015  13:58:41  PAGE 67


  C:2D9DH         LINE#         303
  C:2D9DH         LINE#         304
  C:2DA3H         LINE#         305
  C:2DA6H         LINE#         307
  C:2DA6H         LINE#         308
  C:2DADH         LINE#         309
  C:2DAFH         LINE#         310
  C:2DAFH         LINE#         312
  C:2DAFH         LINE#         313
  C:2DAFH         LINE#         314
  C:2DB1H         LINE#         315
  C:2DBFH         LINE#         316
  C:2DBFH         LINE#         317
  C:2DC6H         LINE#         318
  C:2DC6H         LINE#         319
  C:2DCEH         LINE#         320
  C:2DCEH         LINE#         321
  C:2DD4H         LINE#         322
  C:2DD6H         LINE#         324
  C:2DD6H         LINE#         325
  C:2DDFH         LINE#         326
  C:2DE1H         LINE#         327
  C:2DE1H         LINE#         328
  C:2DE1H         LINE#         329
  C:2DE1H         LINE#         330
  C:2DE3H         LINE#         331
  C:2DF1H         LINE#         332
  C:2DF1H         LINE#         333
  C:2DF8H         LINE#         334
  C:2DF8H         LINE#         335
  C:2E00H         LINE#         336
  C:2E00H         LINE#         337
  C:2E06H         LINE#         338
  C:2E08H         LINE#         340
  C:2E08H         LINE#         341
  C:2E11H         LINE#         342
  C:2E13H         LINE#         343
  C:2E13H         LINE#         344
  C:2E13H         LINE#         345
  C:2E13H         LINE#         346
  C:2E15H         LINE#         347
  C:2E21H         LINE#         348
  C:2E21H         LINE#         349
  C:2E23H         LINE#         350
  C:2E29H         LINE#         352
  C:2E32H         LINE#         353
  C:2E32H         LINE#         354
  -------         ENDPROC       _IRDATADEAL
  -------         PROC          _RXDATADEAL
  C:5214H         LINE#         357
  C:5214H         LINE#         358
  C:5214H         LINE#         360
  -------         ENDPROC       _RXDATADEAL
  -------         PROC          _ENTEREVENTDEAL
  C:4A90H         LINE#         362
  C:4A90H         LINE#         363
  C:4A90H         LINE#         364
BL51 BANKED LINKER/LOCATER V6.22                                                      10/30/2015  13:58:41  PAGE 68


  C:4A92H         LINE#         366
  C:4A97H         LINE#         368
  C:4A9BH         LINE#         370
  C:4A9DH         LINE#         371
  C:4AA3H         LINE#         372
  C:4AA9H         LINE#         374
  C:4AABH         LINE#         376
  C:4AADH         LINE#         378
  C:4AB3H         LINE#         381
  C:4ABAH         LINE#         382
  C:4ABAH         LINE#         383
  C:4ABDH         LINE#         384
  C:4ABDH         LINE#         385
  C:4AC0H         LINE#         386
  C:4AC0H         LINE#         387
  C:4AC0H         LINE#         389
  C:4AC7H         LINE#         390
  -------         ENDPROC       _ENTEREVENTDEAL
  -------         PROC          _EXITEVENTDEAL
  C:5215H         LINE#         392
  C:5215H         LINE#         393
  C:5215H         LINE#         395
  -------         ENDPROC       _EXITEVENTDEAL
  -------         ENDMOD        STATE_STANDBY

  -------         MODULE        STATE_CLOCKSETTING
  C:0000H         SYMBOL        _ICE_DUMMY_
  C:5194H         SYMBOL        _enterEventDeal
  X:020BH         SYMBOL        clockSettingItem
  C:427FH         SYMBOL        _keyActionDeal
  C:5219H         SYMBOL        _exitEventDeal
  C:4FA9H         SYMBOL        _timeTick
  C:5217H         SYMBOL        _irDataDeal
  C:4E87H         PUBLIC        State_ClockSetting
  C:5216H         SYMBOL        _taskExe
  C:51F7H         SYMBOL        _motorCtr
  C:5218H         SYMBOL        _rxDataDeal
  C:4C88H         SYMBOL        _displayControl
  C:50FDH         SYMBOL        hourDec
  C:510DH         SYMBOL        minDec
  C:512CH         SYMBOL        hourInc
  C:513BH         SYMBOL        minInc
  -------         PROC          HOURINC
  C:512CH         LINE#         7
  C:512CH         LINE#         8
  C:512CH         LINE#         9
  C:5132H         LINE#         10
  C:5138H         LINE#         11
  C:5138H         LINE#         12
  C:513AH         LINE#         13
  C:513AH         LINE#         14
  -------         ENDPROC       HOURINC
  -------         PROC          HOURDEC
  C:50FDH         LINE#         16
  C:50FDH         LINE#         17
  C:50FDH         LINE#         18
  C:5103H         LINE#         19
BL51 BANKED LINKER/LOCATER V6.22                                                      10/30/2015  13:58:41  PAGE 69


  C:5103H         LINE#         20
  C:5105H         LINE#         21
  C:5106H         LINE#         23
  C:5106H         LINE#         24
  C:510CH         LINE#         25
  C:510CH         LINE#         26
  -------         ENDPROC       HOURDEC
  -------         PROC          MININC
  C:513BH         LINE#         28
  C:513BH         LINE#         29
  C:513BH         LINE#         30
  C:5141H         LINE#         31
  C:5147H         LINE#         32
  C:5147H         LINE#         33
  C:5149H         LINE#         34
  C:5149H         LINE#         35
  -------         ENDPROC       MININC
  -------         PROC          MINDEC
  C:510DH         LINE#         37
  C:510DH         LINE#         38
  C:510DH         LINE#         39
  C:5113H         LINE#         40
  C:5113H         LINE#         41
  C:5115H         LINE#         42
  C:5116H         LINE#         44
  C:5116H         LINE#         45
  C:511CH         LINE#         46
  C:511CH         LINE#         47
  -------         ENDPROC       MINDEC
  -------         PROC          _KEYACTIONDEAL
  C:427FH         LINE#         51
  C:427FH         LINE#         52
  C:427FH         LINE#         53
  C:4284H         LINE#         55
  C:4292H         LINE#         56
  C:4292H         LINE#         57
  C:429AH         LINE#         58
  C:429AH         LINE#         59
  C:42A1H         LINE#         60
  C:42A2H         LINE#         62
  C:42A2H         LINE#         64
  C:42A2H         LINE#         65
  C:42A8H         LINE#         66
  C:42AEH         LINE#         67
  C:42AEH         LINE#         68
  C:42B0H         LINE#         69
  C:42B0H         LINE#         70
  C:42B0H         LINE#         71
  C:42B2H         LINE#         72
  C:42B6H         LINE#         73
  C:42B6H         LINE#         74
  C:42BDH         LINE#         75
  C:42BDH         LINE#         76
  C:42C0H         LINE#         78
  C:42C0H         LINE#         79
  C:42C2H         LINE#         80
  C:42C7H         LINE#         81
BL51 BANKED LINKER/LOCATER V6.22                                                      10/30/2015  13:58:41  PAGE 70


  C:42C7H         LINE#         82
  C:42CAH         LINE#         84
  C:42CAH         LINE#         85
  C:42CAH         LINE#         86
  C:42CCH         LINE#         87
  C:42D4H         LINE#         88
  C:42D4H         LINE#         89
  C:42DBH         LINE#         90
  C:42DBH         LINE#         91
  C:42DEH         LINE#         93
  C:42DEH         LINE#         94
  C:42E0H         LINE#         95
  C:42E4H         LINE#         96
  C:42E4H         LINE#         97
  C:42E7H         LINE#         99
  C:42ECH         LINE#         100
  C:42ECH         LINE#         101
  C:42ECH         LINE#         103
  C:42ECH         LINE#         105
  C:42ECH         LINE#         107
  C:42F3H         LINE#         108
  C:42F3H         LINE#         109
  C:42FCH         LINE#         110
  C:42FCH         LINE#         111
  C:42FCH         LINE#         112
  -------         ENDPROC       _KEYACTIONDEAL
  -------         PROC          _DISPLAYCONTROL
  C:4C88H         LINE#         114
  C:4C88H         LINE#         115
  C:4C88H         LINE#         116
  C:4C8BH         LINE#         117
  C:4C8BH         LINE#         118
  C:4C92H         LINE#         119
  C:4C92H         LINE#         122
  -------         ENDPROC       _DISPLAYCONTROL
  -------         PROC          _TASKEXE
  C:5216H         LINE#         126
  C:5216H         LINE#         127
  C:5216H         LINE#         129
  -------         ENDPROC       _TASKEXE
  -------         PROC          _TIMETICK
  C:4FA9H         LINE#         132
  C:4FA9H         LINE#         133
  C:4FA9H         LINE#         134
  C:4FAFH         LINE#         135
  C:4FB5H         LINE#         136
  C:4FB5H         LINE#         137
  C:4FC0H         LINE#         138
  C:4FC0H         LINE#         139
  -------         ENDPROC       _TIMETICK
  -------         PROC          _MOTORCTR
  C:51F7H         LINE#         142
  C:51F7H         LINE#         143
  C:51F7H         LINE#         144
  -------         ENDPROC       _MOTORCTR
  -------         PROC          _IRDATADEAL
  C:5217H         LINE#         148
BL51 BANKED LINKER/LOCATER V6.22                                                      10/30/2015  13:58:41  PAGE 71


  C:5217H         LINE#         149
  C:5217H         LINE#         151
  -------         ENDPROC       _IRDATADEAL
  -------         PROC          _RXDATADEAL
  C:5218H         LINE#         154
  C:5218H         LINE#         155
  C:5218H         LINE#         157
  -------         ENDPROC       _RXDATADEAL
  -------         PROC          _ENTEREVENTDEAL
  C:5194H         LINE#         159
  C:5194H         LINE#         160
  C:5194H         LINE#         161
  C:5199H         LINE#         162
  C:519DH         LINE#         163
  -------         ENDPROC       _ENTEREVENTDEAL
  -------         PROC          _EXITEVENTDEAL
  C:5219H         LINE#         165
  C:5219H         LINE#         166
  C:5219H         LINE#         168
  -------         ENDPROC       _EXITEVENTDEAL
  -------         ENDMOD        STATE_CLOCKSETTING

  -------         MODULE        STATE_ECHECK
  C:0000H         SYMBOL        _ICE_DUMMY_
  C:51CAH         SYMBOL        _enterEventDeal
  C:49E1H         SYMBOL        _keyActionDeal
  C:4EA2H         PUBLIC        State_ECheck
  C:521DH         SYMBOL        _exitEventDeal
  C:4FC1H         SYMBOL        _timeTick
  C:521BH         SYMBOL        _irDataDeal
  C:521AH         SYMBOL        _taskExe
  C:51FAH         SYMBOL        _motorCtr
  C:521CH         SYMBOL        _rxDataDeal
  C:4CDFH         SYMBOL        _displayControl
  B:0024H.0       SYMBOL        disEn
  -------         PROC          _KEYACTIONDEAL
  C:49E1H         LINE#         5
  C:49E1H         LINE#         6
  C:49E1H         LINE#         7
  C:49E6H         LINE#         9
  C:49EDH         LINE#         10
  C:49EDH         LINE#         11
  C:49F5H         LINE#         12
  C:49F5H         LINE#         13
  C:49FEH         LINE#         15
  C:4A00H         LINE#         16
  C:4A02H         LINE#         17
  C:4A02H         LINE#         18
  C:4A03H         LINE#         19
  C:4A0AH         LINE#         20
  C:4A0AH         LINE#         21
  C:4A11H         LINE#         22
  C:4A11H         LINE#         23
  C:4A1AH         LINE#         24
  C:4A1CH         LINE#         25
  C:4A1CH         LINE#         26
  C:4A1CH         LINE#         27
BL51 BANKED LINKER/LOCATER V6.22                                                      10/30/2015  13:58:41  PAGE 72


  -------         ENDPROC       _KEYACTIONDEAL
  -------         PROC          _DISPLAYCONTROL
  C:4CDFH         LINE#         29
  C:4CDFH         LINE#         30
  C:4CDFH         LINE#         31
  C:4CE2H         LINE#         32
  C:4CE2H         LINE#         33
  C:4CF0H         LINE#         34
  C:4CF0H         LINE#         36
  -------         ENDPROC       _DISPLAYCONTROL
  -------         PROC          _TASKEXE
  C:521AH         LINE#         39
  C:521AH         LINE#         40
  C:521AH         LINE#         42
  -------         ENDPROC       _TASKEXE
  -------         PROC          _TIMETICK
  C:4FC1H         LINE#         45
  C:4FC1H         LINE#         46
  C:4FC1H         LINE#         48
  C:4FC7H         LINE#         49
  C:4FCDH         LINE#         50
  C:4FCDH         LINE#         51
  C:4FD8H         LINE#         52
  C:4FD8H         LINE#         53
  -------         ENDPROC       _TIMETICK
  -------         PROC          _MOTORCTR
  C:51FAH         LINE#         56
  C:51FAH         LINE#         57
  C:51FAH         LINE#         58
  -------         ENDPROC       _MOTORCTR
  -------         PROC          _IRDATADEAL
  C:521BH         LINE#         62
  C:521BH         LINE#         63
  C:521BH         LINE#         65
  -------         ENDPROC       _IRDATADEAL
  -------         PROC          _RXDATADEAL
  C:521CH         LINE#         68
  C:521CH         LINE#         69
  C:521CH         LINE#         71
  -------         ENDPROC       _RXDATADEAL
  -------         PROC          _ENTEREVENTDEAL
  C:51CAH         LINE#         73
  C:51CAH         LINE#         74
  C:51CAH         LINE#         75
  C:51CFH         LINE#         76
  C:51D1H         LINE#         77
  -------         ENDPROC       _ENTEREVENTDEAL
  -------         PROC          _EXITEVENTDEAL
  C:521DH         LINE#         79
  C:521DH         LINE#         80
  C:521DH         LINE#         82
  -------         ENDPROC       _EXITEVENTDEAL
  -------         ENDMOD        STATE_ECHECK

  -------         MODULE        STATE_TIMERSETTING
  C:0000H         SYMBOL        _ICE_DUMMY_
  C:519EH         SYMBOL        _enterEventDeal
BL51 BANKED LINKER/LOCATER V6.22                                                      10/30/2015  13:58:41  PAGE 73


  C:1ECFH         SYMBOL        _keyActionDeal
  X:020CH         SYMBOL        timerSettingItem
  C:5221H         SYMBOL        _exitEventDeal
  C:4FD9H         SYMBOL        _timeTick
  C:521FH         SYMBOL        _irDataDeal
  C:521EH         SYMBOL        _taskExe
  C:51FDH         SYMBOL        _motorCtr
  C:5220H         SYMBOL        _rxDataDeal
  C:286DH         SYMBOL        _displayControl
  C:4EBDH         PUBLIC        State_TimerSetting
  -------         PROC          _KEYACTIONDEAL
  -------         DO            
  X:01BAH         SYMBOL        tsPtr
  B:0021H.4       SYMBOL        isM
  -------         ENDDO         
  C:1ECFH         LINE#         19
  C:1ECFH         LINE#         20
  C:1ECFH         LINE#         24
  C:1ED4H         LINE#         26
  C:1EDAH         LINE#         27
  C:1EDAH         LINE#         29
  C:1EDAH         LINE#         31
  C:1EE5H         LINE#         32
  C:1EE5H         LINE#         33
  C:1F0EH         LINE#         34
  C:1F12H         LINE#         36
  C:1F19H         LINE#         37
  C:1F19H         LINE#         38
  C:1F1FH         LINE#         39
  C:1F25H         LINE#         40
  C:1F25H         LINE#         41
  C:1F27H         LINE#         42
  C:1F27H         LINE#         44
  C:1F27H         LINE#         45
  C:1F2AH         LINE#         46
  C:1F35H         LINE#         47
  C:1F35H         LINE#         48
  C:1F48H         LINE#         50
  C:1F4BH         LINE#         51
  C:1F4BH         LINE#         52
  C:1F64H         LINE#         53
  C:1F7AH         LINE#         54
  C:1F7AH         LINE#         55
  C:1F85H         LINE#         56
  C:1F85H         LINE#         57
  C:1F87H         LINE#         59
  C:1F87H         LINE#         60
  C:1FA1H         LINE#         61
  C:1FB7H         LINE#         62
  C:1FB7H         LINE#         63
  C:1FBDH         LINE#         64
  C:1FBDH         LINE#         65
  C:1FBDH         LINE#         67
  C:1FBDH         LINE#         68
  C:1FC0H         LINE#         69
  C:1FC8H         LINE#         70
  C:1FC8H         LINE#         71
BL51 BANKED LINKER/LOCATER V6.22                                                      10/30/2015  13:58:41  PAGE 74


  C:1FDBH         LINE#         73
  C:1FDEH         LINE#         74
  C:1FDEH         LINE#         75
  C:1FF1H         LINE#         76
  C:1FF1H         LINE#         77
  C:1FFEH         LINE#         78
  C:2000H         LINE#         80
  C:2000H         LINE#         81
  C:2016H         LINE#         82
  C:2016H         LINE#         83
  C:2018H         LINE#         85
  C:2018H         LINE#         86
  C:202BH         LINE#         87
  C:202BH         LINE#         88
  C:2034H         LINE#         89
  C:2036H         LINE#         91
  C:2036H         LINE#         92
  C:2040H         LINE#         93
  C:2040H         LINE#         94
  C:2040H         LINE#         96
  C:2040H         LINE#         97
  C:2042H         LINE#         98
  C:204AH         LINE#         99
  C:204AH         LINE#         100
  C:2053H         LINE#         101
  C:2053H         LINE#         102
  C:206BH         LINE#         103
  C:206BH         LINE#         104
  C:206EH         LINE#         105
  C:2070H         LINE#         107
  C:2070H         LINE#         108
  C:2078H         LINE#         109
  C:2078H         LINE#         111
  C:2081H         LINE#         112
  C:2081H         LINE#         113
  C:2081H         LINE#         114
  C:2081H         LINE#         115
  -------         ENDPROC       _KEYACTIONDEAL
  -------         PROC          _DISPLAYCONTROL
  -------         DO            
  D:0001H         SYMBOL        tsPtr
  B:0021H.4       SYMBOL        isM
  -------         ENDDO         
  C:286DH         LINE#         117
  C:286DH         LINE#         118
  C:286DH         LINE#         122
  C:2870H         LINE#         123
  C:2870H         LINE#         124
  C:287CH         LINE#         125
  C:2883H         LINE#         126
  C:2889H         LINE#         127
  C:2889H         LINE#         128
  C:2890H         LINE#         129
  C:2897H         LINE#         130
  C:289AH         LINE#         132
  C:289DH         LINE#         133
  C:28A0H         LINE#         134
BL51 BANKED LINKER/LOCATER V6.22                                                      10/30/2015  13:58:41  PAGE 75


  C:28A3H         LINE#         135
  C:28A4H         LINE#         138
  C:28A4H         LINE#         140
  C:28ACH         LINE#         141
  C:28ACH         LINE#         142
  C:28AFH         LINE#         143
  C:28AFH         LINE#         144
  C:28BBH         LINE#         145
  C:28C2H         LINE#         146
  C:28C2H         LINE#         148
  C:28C9H         LINE#         149
  C:28C9H         LINE#         151
  C:28C9H         LINE#         152
  C:28E8H         LINE#         153
  C:28ECH         LINE#         155
  C:2923H         LINE#         156
  C:2923H         LINE#         157
  C:2923H         LINE#         158
  C:2923H         LINE#         159
  C:292FH         LINE#         160
  C:2933H         LINE#         161
  C:2935H         LINE#         162
  C:2935H         LINE#         163
  C:2935H         LINE#         164
  C:293CH         LINE#         165
  C:293FH         LINE#         166
  C:2941H         LINE#         167
  C:2941H         LINE#         168
  C:2941H         LINE#         169
  C:294DH         LINE#         170
  C:2954H         LINE#         171
  C:2956H         LINE#         172
  C:2956H         LINE#         173
  C:2956H         LINE#         174
  C:295DH         LINE#         175
  C:2960H         LINE#         176
  C:2962H         LINE#         177
  C:2962H         LINE#         178
  C:2962H         LINE#         179
  C:296EH         LINE#         180
  C:2975H         LINE#         181
  C:2977H         LINE#         182
  C:2977H         LINE#         183
  C:2977H         LINE#         184
  C:297EH         LINE#         185
  C:2981H         LINE#         186
  C:2981H         LINE#         187
  C:2981H         LINE#         189
  C:298EH         LINE#         190
  C:298EH         LINE#         191
  C:29A2H         LINE#         192
  C:29A4H         LINE#         194
  C:29A4H         LINE#         195
  C:29B4H         LINE#         196
  C:29B4H         LINE#         197
  C:29B4H         LINE#         198
  -------         ENDPROC       _DISPLAYCONTROL
BL51 BANKED LINKER/LOCATER V6.22                                                      10/30/2015  13:58:41  PAGE 76


  -------         PROC          _TASKEXE
  C:521EH         LINE#         200
  C:521EH         LINE#         201
  C:521EH         LINE#         203
  -------         ENDPROC       _TASKEXE
  -------         PROC          _TIMETICK
  C:4FD9H         LINE#         206
  C:4FD9H         LINE#         207
  C:4FD9H         LINE#         208
  C:4FDFH         LINE#         209
  C:4FE5H         LINE#         210
  C:4FE5H         LINE#         211
  C:4FF0H         LINE#         212
  C:4FF0H         LINE#         213
  -------         ENDPROC       _TIMETICK
  -------         PROC          _MOTORCTR
  C:51FDH         LINE#         216
  C:51FDH         LINE#         217
  C:51FDH         LINE#         218
  -------         ENDPROC       _MOTORCTR
  -------         PROC          _IRDATADEAL
  C:521FH         LINE#         222
  C:521FH         LINE#         223
  C:521FH         LINE#         225
  -------         ENDPROC       _IRDATADEAL
  -------         PROC          _RXDATADEAL
  C:5220H         LINE#         228
  C:5220H         LINE#         229
  C:5220H         LINE#         231
  -------         ENDPROC       _RXDATADEAL
  -------         PROC          _ENTEREVENTDEAL
  C:519EH         LINE#         233
  C:519EH         LINE#         234
  C:519EH         LINE#         235
  C:51A3H         LINE#         236
  C:51A7H         LINE#         237
  -------         ENDPROC       _ENTEREVENTDEAL
  -------         PROC          _EXITEVENTDEAL
  C:5221H         LINE#         239
  C:5221H         LINE#         240
  C:5221H         LINE#         242
  -------         ENDPROC       _EXITEVENTDEAL
  -------         ENDMOD        STATE_TIMERSETTING

  -------         MODULE        STATE_TIMERFNSETTING
  C:0000H         SYMBOL        _ICE_DUMMY_
  C:51E7H         SYMBOL        _enterEventDeal
  C:4ED8H         PUBLIC        State_TimerFnSetting
  C:4D50H         SYMBOL        _keyActionDeal
  C:5225H         SYMBOL        _exitEventDeal
  C:4FF1H         SYMBOL        _timeTick
  C:5223H         SYMBOL        _irDataDeal
  C:5222H         SYMBOL        _taskExe
  C:5200H         SYMBOL        _motorCtr
  C:5224H         SYMBOL        _rxDataDeal
  C:4B33H         SYMBOL        _displayControl
  -------         PROC          _KEYACTIONDEAL
BL51 BANKED LINKER/LOCATER V6.22                                                      10/30/2015  13:58:41  PAGE 77


  C:4D50H         LINE#         4
  C:4D50H         LINE#         5
  C:4D50H         LINE#         6
  C:4D55H         LINE#         8
  C:4D5CH         LINE#         9
  C:4D5CH         LINE#         10
  C:4D63H         LINE#         11
  C:4D63H         LINE#         12
  C:4D65H         LINE#         13
  C:4D6EH         LINE#         14
  C:4D6EH         LINE#         15
  C:4D6EH         LINE#         16
  -------         ENDPROC       _KEYACTIONDEAL
  -------         PROC          _DISPLAYCONTROL
  C:4B33H         LINE#         18
  C:4B33H         LINE#         19
  C:4B33H         LINE#         20
  C:4B3FH         LINE#         21
  C:4B46H         LINE#         22
  C:4B4CH         LINE#         23
  C:4B4CH         LINE#         24
  C:4B53H         LINE#         25
  C:4B5AH         LINE#         26
  C:4B5DH         LINE#         28
  C:4B60H         LINE#         29
  C:4B63H         LINE#         30
  C:4B66H         LINE#         31
  C:4B66H         LINE#         32
  -------         ENDPROC       _DISPLAYCONTROL
  -------         PROC          _TASKEXE
  C:5222H         LINE#         34
  C:5222H         LINE#         35
  C:5222H         LINE#         37
  -------         ENDPROC       _TASKEXE
  -------         PROC          _TIMETICK
  C:4FF1H         LINE#         40
  C:4FF1H         LINE#         41
  C:4FF1H         LINE#         42
  C:4FF7H         LINE#         43
  C:4FFDH         LINE#         44
  C:4FFDH         LINE#         45
  C:5008H         LINE#         46
  C:5008H         LINE#         47
  -------         ENDPROC       _TIMETICK
  -------         PROC          _MOTORCTR
  C:5200H         LINE#         50
  C:5200H         LINE#         51
  C:5200H         LINE#         52
  -------         ENDPROC       _MOTORCTR
  -------         PROC          _IRDATADEAL
  C:5223H         LINE#         56
  C:5223H         LINE#         57
  C:5223H         LINE#         59
  -------         ENDPROC       _IRDATADEAL
  -------         PROC          _RXDATADEAL
  C:5224H         LINE#         62
  C:5224H         LINE#         63
BL51 BANKED LINKER/LOCATER V6.22                                                      10/30/2015  13:58:41  PAGE 78


  C:5224H         LINE#         65
  -------         ENDPROC       _RXDATADEAL
  -------         PROC          _ENTEREVENTDEAL
  C:51E7H         LINE#         67
  C:51E7H         LINE#         68
  C:51E7H         LINE#         69
  C:51ECH         LINE#         70
  -------         ENDPROC       _ENTEREVENTDEAL
  -------         PROC          _EXITEVENTDEAL
  C:5225H         LINE#         72
  C:5225H         LINE#         73
  C:5225H         LINE#         75
  -------         ENDPROC       _EXITEVENTDEAL
  -------         ENDMOD        STATE_TIMERFNSETTING

  -------         MODULE        STATE_TIMERLOOKUP
  C:0000H         SYMBOL        _ICE_DUMMY_
  C:4EF3H         SYMBOL        _enterEventDeal
  C:4A1DH         SYMBOL        _keyActionDeal
  C:5229H         SYMBOL        _exitEventDeal
  C:5009H         SYMBOL        _timeTick
  C:5227H         SYMBOL        _irDataDeal
  X:020DH         SYMBOL        timerLookupItem
  C:5226H         SYMBOL        _taskExe
  C:5203H         SYMBOL        _motorCtr
  C:5228H         SYMBOL        _rxDataDeal
  C:2AEFH         SYMBOL        _displayControl
  C:4B9AH         SYMBOL        getNextActiveTimerIndex
  C:4F0EH         PUBLIC        State_TimerLookup
  -------         PROC          GETNEXTACTIVETIMERINDEX
  C:4B9AH         LINE#         7
  C:4B9AH         LINE#         8
  C:4B9AH         LINE#         10
  C:4B9AH         LINE#         11
  C:4BA0H         LINE#         12
  C:4BA7H         LINE#         13
  C:4BA7H         LINE#         14
  C:4BA7H         LINE#         15
  C:4BA7H         LINE#         16
  C:4BCCH         LINE#         17
  -------         ENDPROC       GETNEXTACTIVETIMERINDEX
  -------         PROC          _KEYACTIONDEAL
  C:4A1DH         LINE#         19
  C:4A1DH         LINE#         20
  C:4A1DH         LINE#         21
  C:4A22H         LINE#         23
  C:4A25H         LINE#         24
  C:4A25H         LINE#         26
  C:4A25H         LINE#         28
  C:4A2DH         LINE#         29
  C:4A2DH         LINE#         30
  C:4A34H         LINE#         31
  C:4A34H         LINE#         32
  C:4A3BH         LINE#         33
  C:4A3BH         LINE#         35
  C:4A3BH         LINE#         37
  C:4A3BH         LINE#         38
BL51 BANKED LINKER/LOCATER V6.22                                                      10/30/2015  13:58:41  PAGE 79


  C:4A3EH         LINE#         39
  C:4A47H         LINE#         40
  C:4A47H         LINE#         41
  C:4A4AH         LINE#         42
  C:4A4DH         LINE#         43
  C:4A4DH         LINE#         45
  C:4A56H         LINE#         46
  C:4A56H         LINE#         47
  C:4A56H         LINE#         48
  C:4A56H         LINE#         49
  -------         ENDPROC       _KEYACTIONDEAL
  -------         PROC          _DISPLAYCONTROL
  -------         DO            
  D:0006H         SYMBOL        t1
  D:0005H         SYMBOL        t2
  -------         ENDDO         
  C:2AEFH         LINE#         51
  C:2AEFH         LINE#         52
  C:2AEFH         LINE#         55
  C:2AF2H         LINE#         56
  C:2AF2H         LINE#         57
  C:2AFEH         LINE#         58
  C:2B05H         LINE#         59
  C:2B0BH         LINE#         60
  C:2B0BH         LINE#         61
  C:2B12H         LINE#         62
  C:2B19H         LINE#         63
  C:2B1CH         LINE#         65
  C:2B1FH         LINE#         66
  C:2B22H         LINE#         67
  C:2B22H         LINE#         68
  C:2B25H         LINE#         71
  C:2B25H         LINE#         73
  C:2B2CH         LINE#         74
  C:2B2CH         LINE#         75
  C:2B33H         LINE#         76
  C:2B33H         LINE#         78
  C:2B33H         LINE#         79
  C:2B56H         LINE#         80
  C:2B76H         LINE#         82
  C:2B7FH         LINE#         84
  C:2B86H         LINE#         86
  C:2B9DH         LINE#         87
  C:2B9DH         LINE#         88
  C:2B9DH         LINE#         89
  C:2BA9H         LINE#         90
  C:2BACH         LINE#         91
  C:2BACH         LINE#         92
  C:2BB0H         LINE#         93
  C:2BB0H         LINE#         94
  C:2BB2H         LINE#         95
  C:2BB2H         LINE#         96
  C:2BB9H         LINE#         97
  C:2BBCH         LINE#         98
  C:2BBCH         LINE#         99
  C:2BC0H         LINE#         100
  C:2BC0H         LINE#         101
BL51 BANKED LINKER/LOCATER V6.22                                                      10/30/2015  13:58:41  PAGE 80


  C:2BC1H         LINE#         102
  C:2BC1H         LINE#         103
  C:2BCDH         LINE#         104
  C:2BD0H         LINE#         105
  C:2BD0H         LINE#         106
  C:2BD7H         LINE#         107
  C:2BD7H         LINE#         108
  C:2BD8H         LINE#         109
  C:2BD8H         LINE#         110
  C:2BDFH         LINE#         111
  C:2BE2H         LINE#         112
  C:2BE2H         LINE#         113
  C:2BE6H         LINE#         114
  C:2BE6H         LINE#         115
  C:2BE7H         LINE#         116
  C:2BE7H         LINE#         117
  C:2BF3H         LINE#         118
  C:2BF6H         LINE#         119
  C:2BF6H         LINE#         120
  C:2BFDH         LINE#         121
  C:2BFDH         LINE#         122
  C:2BFEH         LINE#         123
  C:2BFEH         LINE#         124
  C:2C05H         LINE#         125
  C:2C08H         LINE#         126
  C:2C08H         LINE#         127
  C:2C0CH         LINE#         128
  C:2C0CH         LINE#         129
  C:2C0CH         LINE#         130
  C:2C0CH         LINE#         132
  C:2C0CH         LINE#         133
  C:2C0CH         LINE#         134
  C:2C0CH         LINE#         135
  -------         ENDPROC       _DISPLAYCONTROL
  -------         PROC          _TASKEXE
  C:5226H         LINE#         137
  C:5226H         LINE#         138
  C:5226H         LINE#         140
  -------         ENDPROC       _TASKEXE
  -------         PROC          _TIMETICK
  C:5009H         LINE#         143
  C:5009H         LINE#         144
  C:5009H         LINE#         145
  C:500FH         LINE#         146
  C:5015H         LINE#         147
  C:5015H         LINE#         148
  C:5020H         LINE#         149
  C:5020H         LINE#         150
  -------         ENDPROC       _TIMETICK
  -------         PROC          _MOTORCTR
  C:5203H         LINE#         153
  C:5203H         LINE#         154
  C:5203H         LINE#         155
  -------         ENDPROC       _MOTORCTR
  -------         PROC          _IRDATADEAL
  C:5227H         LINE#         159
  C:5227H         LINE#         160
BL51 BANKED LINKER/LOCATER V6.22                                                      10/30/2015  13:58:41  PAGE 81


  C:5227H         LINE#         162
  -------         ENDPROC       _IRDATADEAL
  -------         PROC          _RXDATADEAL
  C:5228H         LINE#         165
  C:5228H         LINE#         166
  C:5228H         LINE#         168
  -------         ENDPROC       _RXDATADEAL
  -------         PROC          _ENTEREVENTDEAL
  C:4EF3H         LINE#         170
  C:4EF3H         LINE#         171
  C:4EF3H         LINE#         172
  C:4EF8H         LINE#         174
  C:4EFEH         LINE#         175
  C:4F01H         LINE#         176
  C:4F0AH         LINE#         177
  C:4F0AH         LINE#         178
  C:4F0DH         LINE#         179
  C:4F0DH         LINE#         180
  -------         ENDPROC       _ENTEREVENTDEAL
  -------         PROC          _EXITEVENTDEAL
  C:5229H         LINE#         182
  C:5229H         LINE#         183
  C:5229H         LINE#         185
  -------         ENDPROC       _EXITEVENTDEAL
  -------         ENDMOD        STATE_TIMERLOOKUP

  -------         MODULE        STATE_WORK
  C:0000H         SYMBOL        _ICE_DUMMY_
  C:2F41H         SYMBOL        _enterEventDeal
  X:0197H         SYMBOL        countOfSec
  D:0080H         PUBLIC        P0
  X:0198H         SYMBOL        spOptionBuf
  X:0199H         SYMBOL        dustRecord10Index
  C:29B5H         SYMBOL        _keyActionDeal
  X:019AH         SYMBOL        dustRecord30Index
  C:4F29H         PUBLIC        State_Work
  C:522BH         SYMBOL        _exitEventDeal
  X:019BH         SYMBOL        TotalWorkedMin
  C:0B9DH         SYMBOL        _timeTick
  B:0024H.1       SYMBOL        IsAutoOffSta
  X:019CH         SYMBOL        dustWipeOffCur
  X:019EH         SYMBOL        dustRecord10Cnt
  C:1CEEH         SYMBOL        _irDataDeal
  X:019FH         SYMBOL        dustRecord30Cnt
  C:416BH         SYMBOL        _taskExe
  C:4465H         SYMBOL        _motorCtr
  X:01A0H         SYMBOL        dustRecord10Sum
  C:522AH         SYMBOL        _rxDataDeal
  C:19E2H         SYMBOL        _displayControl
  X:01A2H         SYMBOL        dustRecord30Sum
  X:01A4H         SYMBOL        runStatus
  X:01AAH         SYMBOL        AutoOffCnt
  X:01ACH         SYMBOL        memoryOffCounedown
  X:01ADH         SYMBOL        dustWipeOffBase
  -------         PROC          _KEYACTIONDEAL
  C:29B5H         LINE#         35
  C:29B5H         LINE#         36
BL51 BANKED LINKER/LOCATER V6.22                                                      10/30/2015  13:58:41  PAGE 82


  C:29B5H         LINE#         38
  C:29BBH         LINE#         39
  C:29BBH         LINE#         40
  C:29BDH         LINE#         41
  C:29C3H         LINE#         43
  C:29C9H         LINE#         44
  C:29CCH         LINE#         46
  C:29CCH         LINE#         48
  C:29D2H         LINE#         50
  C:29D8H         LINE#         51
  C:29D8H         LINE#         53
  C:29D8H         LINE#         55
  C:29E0H         LINE#         56
  C:29E0H         LINE#         58
  C:29EBH         LINE#         59
  C:29EBH         LINE#         60
  C:29F6H         LINE#         61
  C:29F6H         LINE#         62
  C:29F6H         LINE#         63
  C:29F9H         LINE#         65
  C:2A04H         LINE#         66
  C:2A04H         LINE#         68
  C:2A0CH         LINE#         69
  C:2A0CH         LINE#         70
  C:2A12H         LINE#         71
  C:2A14H         LINE#         73
  C:2A17H         LINE#         74
  C:2A17H         LINE#         75
  C:2A1CH         LINE#         76
  C:2A1EH         LINE#         77
  C:2A20H         LINE#         79
  C:2A20H         LINE#         80
  C:2A26H         LINE#         81
  C:2A2CH         LINE#         82
  C:2A2CH         LINE#         83
  C:2A2EH         LINE#         84
  C:2A36H         LINE#         85
  C:2A3CH         LINE#         86
  C:2A3CH         LINE#         87
  C:2A3EH         LINE#         88
  C:2A3EH         LINE#         89
  C:2A3EH         LINE#         90
  C:2A3EH         LINE#         93
  C:2A46H         LINE#         94
  C:2A46H         LINE#         95
  C:2A4AH         LINE#         96
  C:2A4AH         LINE#         97
  C:2A4CH         LINE#         99
  C:2A52H         LINE#         100
  C:2A52H         LINE#         101
  C:2A59H         LINE#         102
  C:2A59H         LINE#         103
  C:2A5FH         LINE#         104
  C:2A63H         LINE#         105
  C:2A63H         LINE#         106
  C:2A63H         LINE#         108
  C:2A6BH         LINE#         110
BL51 BANKED LINKER/LOCATER V6.22                                                      10/30/2015  13:58:41  PAGE 83


  C:2A6BH         LINE#         111
  C:2A6DH         LINE#         113
  C:2A74H         LINE#         114
  C:2A74H         LINE#         115
  C:2A85H         LINE#         117
  C:2A85H         LINE#         118
  C:2A87H         LINE#         120
  C:2A8FH         LINE#         121
  C:2A8FH         LINE#         122
  C:2AA0H         LINE#         124
  C:2AA0H         LINE#         125
  C:2AA0H         LINE#         126
  C:2AA2H         LINE#         127
  C:2AAAH         LINE#         128
  C:2AAAH         LINE#         129
  C:2AB2H         LINE#         130
  C:2AB2H         LINE#         131
  C:2AB8H         LINE#         132
  C:2ABAH         LINE#         134
  C:2ABEH         LINE#         135
  C:2AC6H         LINE#         136
  C:2ACEH         LINE#         137
  C:2AD6H         LINE#         139
  C:2ADAH         LINE#         140
  C:2ADCH         LINE#         141
  C:2AE3H         LINE#         142
  C:2AE3H         LINE#         143
  C:2AE5H         LINE#         144
  C:2AEEH         LINE#         145
  C:2AEEH         LINE#         146
  C:2AEEH         LINE#         147
  -------         ENDPROC       _KEYACTIONDEAL
  -------         PROC          _DISPLAYCONTROL
  C:19E2H         LINE#         149
  C:19E2H         LINE#         150
  C:19E2H         LINE#         152
  C:19E8H         LINE#         153
  C:19E8H         LINE#         154
  C:19EEH         LINE#         155
  C:19EEH         LINE#         156
  C:19FCH         LINE#         157
  C:1A03H         LINE#         158
  C:1A11H         LINE#         159
  C:1A1FH         LINE#         161
  C:1A24H         LINE#         162
  C:1A2BH         LINE#         163
  C:1A2CH         LINE#         165
  C:1A2CH         LINE#         168
  C:1A2FH         LINE#         171
  C:1A3EH         LINE#         172
  C:1A3EH         LINE#         173
  C:1A3EH         LINE#         174
  C:1A40H         LINE#         175
  C:1A4CH         LINE#         176
  C:1A4CH         LINE#         177
  C:1A4FH         LINE#         178
  C:1A4FH         LINE#         179
BL51 BANKED LINKER/LOCATER V6.22                                                      10/30/2015  13:58:41  PAGE 84


  C:1A5DH         LINE#         180
  C:1A5DH         LINE#         181
  C:1A5DH         LINE#         184
  C:1A63H         LINE#         185
  C:1A63H         LINE#         186
  C:1A71H         LINE#         187
  C:1A71H         LINE#         190
  C:1A80H         LINE#         191
  C:1A80H         LINE#         192
  C:1A83H         LINE#         193
  C:1A83H         LINE#         194
  C:1A8AH         LINE#         195
  C:1A8AH         LINE#         196
  C:1A8AH         LINE#         199
  C:1A9FH         LINE#         200
  C:1AAAH         LINE#         201
  C:1AADH         LINE#         202
  C:1AADH         LINE#         203
  C:1AB1H         LINE#         204
  C:1AB3H         LINE#         206
  C:1AB3H         LINE#         207
  C:1AC2H         LINE#         208
  C:1AC2H         LINE#         212
  C:1AC5H         LINE#         213
  C:1AC5H         LINE#         214
  C:1ACAH         LINE#         215
  C:1ACCH         LINE#         216
  C:1ACEH         LINE#         218
  C:1ACEH         LINE#         219
  C:1AD5H         LINE#         220
  C:1ADCH         LINE#         221
  C:1ADCH         LINE#         224
  C:1AEAH         LINE#         225
  C:1AF1H         LINE#         228
  C:1B00H         LINE#         229
  C:1B03H         LINE#         230
  C:1B03H         LINE#         231
  C:1B0AH         LINE#         232
  C:1B0AH         LINE#         235
  C:1B18H         LINE#         237
  C:1B1EH         LINE#         238
  C:1B1EH         LINE#         239
  C:1B29H         LINE#         241
  C:1B2CH         LINE#         242
  C:1B2CH         LINE#         244
  C:1B2FH         LINE#         245
  C:1B2FH         LINE#         246
  C:1B36H         LINE#         248
  C:1B3DH         LINE#         249
  C:1B44H         LINE#         251
  C:1B49H         LINE#         252
  C:1B50H         LINE#         253
  C:1B57H         LINE#         254
  C:1B5EH         LINE#         255
  C:1B60H         LINE#         256
  C:1B69H         LINE#         257
  C:1B69H         LINE#         258
BL51 BANKED LINKER/LOCATER V6.22                                                      10/30/2015  13:58:41  PAGE 85


  C:1B6EH         LINE#         259
  C:1B70H         LINE#         260
  C:1B72H         LINE#         261
  C:1B7BH         LINE#         262
  C:1B7BH         LINE#         263
  C:1B80H         LINE#         264
  C:1B82H         LINE#         265
  C:1B84H         LINE#         266
  C:1B8DH         LINE#         267
  C:1B8DH         LINE#         268
  C:1B92H         LINE#         269
  C:1B94H         LINE#         270
  C:1B96H         LINE#         272
  C:1B96H         LINE#         273
  C:1B9BH         LINE#         274
  C:1B9DH         LINE#         275
  C:1B9DH         LINE#         276
  C:1B9FH         LINE#         278
  C:1B9FH         LINE#         279
  C:1BA4H         LINE#         280
  C:1BA6H         LINE#         281
  C:1BA6H         LINE#         282
  C:1BA8H         LINE#         284
  C:1BA8H         LINE#         285
  C:1BB0H         LINE#         286
  C:1BBDH         LINE#         287
  C:1BBDH         LINE#         289
  C:1BC0H         LINE#         290
  C:1BC0H         LINE#         292
  C:1BC7H         LINE#         293
  C:1BC7H         LINE#         294
  C:1BD5H         LINE#         295
  C:1BD5H         LINE#         298
  C:1BDCH         LINE#         299
  C:1BDCH         LINE#         300
  C:1BE3H         LINE#         301
  C:1BE3H         LINE#         302
  C:1BE3H         LINE#         305
  C:1BE6H         LINE#         306
  C:1BE6H         LINE#         307
  C:1BF4H         LINE#         308
  C:1BF4H         LINE#         311
  C:1BFCH         LINE#         312
  C:1BFCH         LINE#         313
  C:1C08H         LINE#         314
  C:1C0FH         LINE#         315
  C:1C1EH         LINE#         316
  C:1C1EH         LINE#         317
  C:1C1EH         LINE#         318
  C:1C25H         LINE#         319
  C:1C25H         LINE#         320
  C:1C27H         LINE#         321
  C:1C27H         LINE#         322
  C:1C2EH         LINE#         323
  C:1C2EH         LINE#         324
  C:1C30H         LINE#         325
  C:1C30H         LINE#         326
BL51 BANKED LINKER/LOCATER V6.22                                                      10/30/2015  13:58:41  PAGE 86


  C:1C34H         LINE#         327
  C:1C34H         LINE#         328
  C:1C36H         LINE#         329
  C:1C36H         LINE#         330
  C:1C36H         LINE#         331
  C:1C3DH         LINE#         332
  C:1C44H         LINE#         333
  C:1C47H         LINE#         334
  C:1C4AH         LINE#         335
  C:1C4DH         LINE#         336
  C:1C4DH         LINE#         337
  C:1C50H         LINE#         338
  C:1C50H         LINE#         339
  C:1C50H         LINE#         341
  C:1C50H         LINE#         342
  C:1C58H         LINE#         343
  C:1C58H         LINE#         344
  C:1C5FH         LINE#         345
  C:1C62H         LINE#         346
  C:1C62H         LINE#         347
  C:1C7BH         LINE#         348
  C:1C7BH         LINE#         349
  C:1C82H         LINE#         350
  C:1C82H         LINE#         351
  C:1C84H         LINE#         352
  C:1C8CH         LINE#         353
  C:1C8CH         LINE#         354
  C:1CA6H         LINE#         355
  C:1CA6H         LINE#         356
  C:1CADH         LINE#         357
  C:1CADH         LINE#         358
  C:1CAFH         LINE#         359
  C:1CB3H         LINE#         360
  C:1CB3H         LINE#         361
  C:1CCDH         LINE#         362
  C:1CCDH         LINE#         363
  C:1CD4H         LINE#         364
  C:1CD4H         LINE#         365
  C:1CD4H         LINE#         366
  C:1CD4H         LINE#         367
  C:1CD4H         LINE#         370
  C:1CDDH         LINE#         371
  C:1CDDH         LINE#         372
  C:1CE0H         LINE#         373
  C:1CE4H         LINE#         374
  C:1CE8H         LINE#         375
  C:1CE9H         LINE#         377
  C:1CE9H         LINE#         378
  C:1CEDH         LINE#         379
  C:1CEDH         LINE#         380
  -------         ENDPROC       _DISPLAYCONTROL
  -------         PROC          _TASKEXE
  C:416BH         LINE#         382
  C:416BH         LINE#         383
  C:416BH         LINE#         384
  C:4172H         LINE#         387
  C:4178H         LINE#         388
BL51 BANKED LINKER/LOCATER V6.22                                                      10/30/2015  13:58:41  PAGE 87


  C:4178H         LINE#         390
  C:4178H         LINE#         392
  C:4182H         LINE#         393
  C:4182H         LINE#         394
  C:4186H         LINE#         395
  C:4188H         LINE#         397
  C:4188H         LINE#         398
  C:418CH         LINE#         399
  C:418CH         LINE#         401
  C:4196H         LINE#         402
  C:4196H         LINE#         403
  C:419AH         LINE#         404
  C:419CH         LINE#         406
  C:419CH         LINE#         407
  C:41A0H         LINE#         408
  C:41A0H         LINE#         410
  C:41A3H         LINE#         411
  C:41A3H         LINE#         412
  C:41AAH         LINE#         414
  C:41B1H         LINE#         415
  C:41B2H         LINE#         417
  C:41B2H         LINE#         418
  C:41B9H         LINE#         420
  C:41BEH         LINE#         421
  C:41BEH         LINE#         423
  C:41BEH         LINE#         425
  C:41BEH         LINE#         427
  C:41C5H         LINE#         428
  C:41C5H         LINE#         435
  C:41DDH         LINE#         436
  C:41DDH         LINE#         437
  C:41DDH         LINE#         438
  C:41DFH         LINE#         439
  C:41EEH         LINE#         440
  C:41EEH         LINE#         441
  C:41F5H         LINE#         442
  C:41F5H         LINE#         443
  C:41F5H         LINE#         444
  -------         ENDPROC       _TASKEXE
  -------         PROC          _TIMETICK
  -------         DO            
  X:01BAH         SYMBOL        index
  D:0006H         SYMBOL        t
  -------         ENDDO         
  C:0B9DH         LINE#         447
  C:0B9DH         LINE#         448
  C:0B9DH         LINE#         452
  C:0BA3H         LINE#         453
  C:0BA3H         LINE#         454
  C:0BA5H         LINE#         455
  C:0BA8H         LINE#         456
  C:0BA8H         LINE#         457
  C:0BB3H         LINE#         458
  C:0BBCH         LINE#         459
  C:0BBCH         LINE#         460
  C:0BBCH         LINE#         462
  C:0BC5H         LINE#         463
BL51 BANKED LINKER/LOCATER V6.22                                                      10/30/2015  13:58:41  PAGE 88


  C:0BC5H         LINE#         464
  C:0BCBH         LINE#         465
  C:0BCBH         LINE#         466
  C:0BD2H         LINE#         467
  C:0BD4H         LINE#         468
  C:0BE3H         LINE#         469
  C:0BE3H         LINE#         470
  C:0BEFH         LINE#         471
  C:0BFEH         LINE#         472
  C:0BFEH         LINE#         473
  C:0C04H         LINE#         474
  C:0C04H         LINE#         475
  C:0C04H         LINE#         478
  C:0C07H         LINE#         479
  C:0C07H         LINE#         480
  C:0C0EH         LINE#         481
  C:0C0EH         LINE#         482
  C:0C1CH         LINE#         483
  C:0C2BH         LINE#         484
  C:0C2BH         LINE#         485
  C:0C2DH         LINE#         486
  C:0C2DH         LINE#         487
  C:0C2FH         LINE#         489
  C:0C2FH         LINE#         490
  C:0C2FH         LINE#         491
  C:0C2FH         LINE#         492
  C:0C2FH         LINE#         493
  C:0C31H         LINE#         495
  C:0C31H         LINE#         496
  C:0C33H         LINE#         497
  C:0C3AH         LINE#         498
  C:0C3AH         LINE#         501
  C:0C40H         LINE#         502
  C:0C40H         LINE#         503
  C:0C42H         LINE#         504
  C:0C45H         LINE#         505
  C:0C45H         LINE#         506
  C:0C47H         LINE#         507
  C:0C4DH         LINE#         508
  C:0C4DH         LINE#         509
  C:0C4DH         LINE#         512
  C:0C53H         LINE#         514
  C:0C67H         LINE#         516
  C:0C73H         LINE#         517
  C:0C73H         LINE#         518
  C:0C75H         LINE#         520
  C:0C7BH         LINE#         521
  C:0C80H         LINE#         522
  C:0C80H         LINE#         523
  C:0C82H         LINE#         525
  C:0C88H         LINE#         526
  C:0C88H         LINE#         528
  C:0C8EH         LINE#         529
  C:0C94H         LINE#         530
  C:0C94H         LINE#         531
  C:0C96H         LINE#         533
  C:0CA4H         LINE#         534
BL51 BANKED LINKER/LOCATER V6.22                                                      10/30/2015  13:58:41  PAGE 89


  C:0CA4H         LINE#         536
  C:0CB2H         LINE#         537
  C:0CB2H         LINE#         538
  C:0CB7H         LINE#         539
  C:0CB7H         LINE#         540
  C:0CC6H         LINE#         541
  C:0CC6H         LINE#         542
  C:0CC6H         LINE#         543
  C:0CC8H         LINE#         545
  C:0CC8H         LINE#         546
  C:0CD7H         LINE#         547
  C:0CE4H         LINE#         548
  C:0CE4H         LINE#         549
  C:0CFAH         LINE#         550
  C:0CFAH         LINE#         551
  C:0D02H         LINE#         552
  C:0D09H         LINE#         553
  C:0D09H         LINE#         554
  C:0D09H         LINE#         555
  C:0D09H         LINE#         557
  C:0D0FH         LINE#         558
  C:0D0FH         LINE#         559
  C:0D23H         LINE#         560
  C:0D29H         LINE#         561
  C:0D32H         LINE#         562
  C:0D32H         LINE#         563
  C:0D34H         LINE#         566
  C:0D3DH         LINE#         567
  C:0D3DH         LINE#         568
  C:0D4DH         LINE#         569
  C:0D4DH         LINE#         570
  C:0D77H         LINE#         571
  C:0D7FH         LINE#         572
  C:0D96H         LINE#         574
  C:0D9DH         LINE#         575
  C:0DA3H         LINE#         576
  C:0DA3H         LINE#         577
  C:0DA7H         LINE#         579
  C:0DADH         LINE#         580
  C:0DB3H         LINE#         581
  C:0DB3H         LINE#         582
  C:0DB5H         LINE#         583
  C:0DB5H         LINE#         584
  C:0DB5H         LINE#         585
  C:0DB7H         LINE#         587
  C:0DB7H         LINE#         588
  C:0DBAH         LINE#         589
  C:0DBAH         LINE#         590
  C:0DC2H         LINE#         591
  C:0DCAH         LINE#         592
  C:0DCAH         LINE#         593
  C:0DEDH         LINE#         594
  C:0DEDH         LINE#         596
  C:0DF3H         LINE#         597
  C:0DF9H         LINE#         598
  C:0DF9H         LINE#         599
  C:0DFCH         LINE#         600
BL51 BANKED LINKER/LOCATER V6.22                                                      10/30/2015  13:58:41  PAGE 90


  C:0DFCH         LINE#         602
  C:0E03H         LINE#         603
  C:0E03H         LINE#         606
  C:0E17H         LINE#         607
  C:0E1DH         LINE#         608
  C:0E26H         LINE#         609
  C:0E26H         LINE#         610
  C:0E28H         LINE#         613
  C:0E31H         LINE#         614
  C:0E31H         LINE#         615
  C:0E41H         LINE#         616
  C:0E41H         LINE#         617
  C:0E6BH         LINE#         618
  C:0E73H         LINE#         619
  C:0E8AH         LINE#         621
  C:0E91H         LINE#         622
  C:0E97H         LINE#         623
  C:0E97H         LINE#         624
  C:0E9BH         LINE#         626
  C:0EA1H         LINE#         627
  C:0EA7H         LINE#         628
  C:0EA7H         LINE#         629
  C:0EA9H         LINE#         630
  C:0EA9H         LINE#         631
  C:0EA9H         LINE#         632
  C:0EABH         LINE#         634
  C:0EABH         LINE#         635
  C:0EAEH         LINE#         636
  C:0EAEH         LINE#         637
  C:0EB6H         LINE#         638
  C:0EBEH         LINE#         639
  C:0EBEH         LINE#         640
  C:0EE1H         LINE#         641
  C:0EE1H         LINE#         643
  C:0EE7H         LINE#         644
  C:0EEDH         LINE#         645
  C:0EEDH         LINE#         646
  C:0EF0H         LINE#         647
  C:0EF0H         LINE#         649
  C:0EF7H         LINE#         650
  C:0EF7H         LINE#         654
  C:0EFEH         LINE#         655
  C:0EFEH         LINE#         656
  C:0F0AH         LINE#         657
  C:0F0AH         LINE#         658
  C:0F4BH         LINE#         660
  C:0F4BH         LINE#         661
  C:0F4BH         LINE#         662
  C:0F4BH         LINE#         663
  C:0F4BH         LINE#         664
  C:0F4BH         LINE#         665
  C:0F4EH         LINE#         667
  C:0F4EH         LINE#         668
  C:0F59H         LINE#         669
  C:0F59H         LINE#         670
  C:0F5FH         LINE#         671
  C:0F83H         LINE#         672
BL51 BANKED LINKER/LOCATER V6.22                                                      10/30/2015  13:58:41  PAGE 91


  C:0F83H         LINE#         673
  C:0F89H         LINE#         674
  C:0F89H         LINE#         676
  C:0F90H         LINE#         677
  C:0F90H         LINE#         679
  C:0F9BH         LINE#         680
  C:0F9BH         LINE#         681
  C:0FA6H         LINE#         682
  C:0FAFH         LINE#         683
  C:0FAFH         LINE#         684
  C:0FB1H         LINE#         686
  C:0FB1H         LINE#         687
  C:100CH         LINE#         689
  C:100CH         LINE#         690
  C:1015H         LINE#         691
  C:1020H         LINE#         692
  C:1020H         LINE#         693
  C:1020H         LINE#         694
  C:1020H         LINE#         695
  C:1020H         LINE#         697
  C:1026H         LINE#         698
  C:1026H         LINE#         699
  C:1045H         LINE#         701
  C:1060H         LINE#         702
  C:1060H         LINE#         703
  C:1067H         LINE#         705
  C:1091H         LINE#         706
  C:1091H         LINE#         707
  C:1093H         LINE#         708
  C:1093H         LINE#         709
  C:1095H         LINE#         711
  C:1095H         LINE#         712
  C:10C8H         LINE#         713
  C:10C8H         LINE#         714
  C:10C8H         LINE#         717
  C:10E6H         LINE#         718
  C:10E6H         LINE#         719
  C:10E6H         LINE#         720
  C:10ECH         LINE#         721
  C:10F5H         LINE#         722
  C:10F5H         LINE#         723
  C:10F7H         LINE#         725
  C:1105H         LINE#         726
  C:1113H         LINE#         727
  C:1113H         LINE#         729
  C:1114H         LINE#         730
  C:1114H         LINE#         731
  C:111AH         LINE#         732
  C:1123H         LINE#         733
  C:1123H         LINE#         734
  C:1125H         LINE#         736
  C:1133H         LINE#         737
  C:1141H         LINE#         738
  C:1141H         LINE#         739
  C:1142H         LINE#         740
  C:1142H         LINE#         741
  C:1148H         LINE#         742
BL51 BANKED LINKER/LOCATER V6.22                                                      10/30/2015  13:58:41  PAGE 92


  C:114EH         LINE#         743
  C:114EH         LINE#         744
  C:1150H         LINE#         746
  C:115EH         LINE#         747
  C:116CH         LINE#         748
  C:116CH         LINE#         749
  C:116DH         LINE#         750
  C:116DH         LINE#         751
  C:1173H         LINE#         752
  C:1179H         LINE#         753
  C:1179H         LINE#         754
  C:117BH         LINE#         756
  C:1189H         LINE#         757
  C:1197H         LINE#         758
  C:1197H         LINE#         759
  C:1198H         LINE#         760
  C:1198H         LINE#         761
  C:119EH         LINE#         762
  C:11A4H         LINE#         763
  C:11A4H         LINE#         764
  C:11A6H         LINE#         766
  C:11B4H         LINE#         767
  C:11C2H         LINE#         768
  C:11C2H         LINE#         769
  C:11C2H         LINE#         770
  C:11C2H         LINE#         771
  C:11C2H         LINE#         772
  -------         ENDPROC       _TIMETICK
  -------         PROC          _MOTORCTR
  C:4465H         LINE#         775
  C:4465H         LINE#         776
  C:4465H         LINE#         778
  C:4468H         LINE#         779
  C:4468H         LINE#         780
  C:446BH         LINE#         781
  C:446BH         LINE#         783
  C:446BH         LINE#         784
  C:446EH         LINE#         785
  C:446EH         LINE#         786
  C:4471H         LINE#         787
  C:4471H         LINE#         788
  C:447AH         LINE#         789
  C:447AH         LINE#         790
  C:447AH         LINE#         791
  C:447CH         LINE#         792
  C:4485H         LINE#         793
  C:4485H         LINE#         794
  C:4485H         LINE#         795
  C:4487H         LINE#         796
  C:4490H         LINE#         797
  C:4490H         LINE#         798
  C:4490H         LINE#         799
  C:4492H         LINE#         806
  C:4492H         LINE#         807
  C:4492H         LINE#         808
  C:4492H         LINE#         809
  C:4494H         LINE#         811
BL51 BANKED LINKER/LOCATER V6.22                                                      10/30/2015  13:58:41  PAGE 93


  C:4494H         LINE#         812
  C:44A9H         LINE#         813
  C:44A9H         LINE#         814
  C:44A9H         LINE#         815
  C:44ADH         LINE#         816
  C:44AFH         LINE#         817
  C:44AFH         LINE#         818
  C:44B3H         LINE#         819
  C:44B5H         LINE#         820
  C:44B5H         LINE#         821
  C:44B9H         LINE#         822
  C:44BBH         LINE#         823
  C:44BBH         LINE#         824
  C:44BFH         LINE#         825
  C:44C1H         LINE#         826
  C:44C1H         LINE#         827
  C:44C8H         LINE#         828
  C:44C8H         LINE#         829
  C:44C8H         LINE#         830
  C:44C8H         LINE#         831
  C:44C8H         LINE#         832
  C:44C8H         LINE#         833
  C:44C8H         LINE#         834
  -------         ENDPROC       _MOTORCTR
  -------         PROC          _IRDATADEAL
  C:1CEEH         LINE#         837
  C:1CEEH         LINE#         838
  C:1CEEH         LINE#         840
  C:1CF4H         LINE#         841
  C:1CF4H         LINE#         842
  C:1CF6H         LINE#         843
  C:1CFCH         LINE#         845
  C:1D03H         LINE#         847
  C:1D03H         LINE#         848
  C:1D09H         LINE#         851
  C:1D14H         LINE#         852
  C:1D14H         LINE#         853
  C:1D1DH         LINE#         854
  C:1D28H         LINE#         855
  C:1D28H         LINE#         857
  C:1D36H         LINE#         858
  C:1D36H         LINE#         859
  C:1D3CH         LINE#         860
  C:1D3EH         LINE#         862
  C:1D40H         LINE#         863
  C:1D48H         LINE#         865
  C:1D4EH         LINE#         866
  C:1D4EH         LINE#         867
  C:1D50H         LINE#         868
  C:1D50H         LINE#         869
  C:1D50H         LINE#         870
  C:1D52H         LINE#         871
  C:1D5EH         LINE#         872
  C:1D5EH         LINE#         873
  C:1D65H         LINE#         874
  C:1D67H         LINE#         876
  C:1D6CH         LINE#         878
BL51 BANKED LINKER/LOCATER V6.22                                                      10/30/2015  13:58:41  PAGE 94


  C:1D6EH         LINE#         880
  C:1D73H         LINE#         881
  C:1D77H         LINE#         883
  C:1D7CH         LINE#         885
  C:1D81H         LINE#         887
  C:1D84H         LINE#         888
  C:1D92H         LINE#         889
  C:1D92H         LINE#         890
  C:1D98H         LINE#         891
  C:1D9AH         LINE#         893
  C:1DA0H         LINE#         894
  C:1DA2H         LINE#         896
  C:1DA9H         LINE#         897
  C:1DA9H         LINE#         898
  C:1DAFH         LINE#         899
  C:1DB3H         LINE#         900
  C:1DB3H         LINE#         901
  C:1DBBH         LINE#         903
  C:1DC1H         LINE#         904
  C:1DC4H         LINE#         905
  C:1DD2H         LINE#         906
  C:1DD2H         LINE#         907
  C:1DD8H         LINE#         908
  C:1DDAH         LINE#         910
  C:1DE0H         LINE#         911
  C:1DE2H         LINE#         913
  C:1DE9H         LINE#         914
  C:1DE9H         LINE#         915
  C:1DEFH         LINE#         916
  C:1DF3H         LINE#         917
  C:1DF3H         LINE#         918
  C:1DFBH         LINE#         920
  C:1E01H         LINE#         921
  C:1E04H         LINE#         922
  C:1E12H         LINE#         923
  C:1E12H         LINE#         924
  C:1E18H         LINE#         925
  C:1E1AH         LINE#         927
  C:1E20H         LINE#         928
  C:1E22H         LINE#         930
  C:1E29H         LINE#         931
  C:1E29H         LINE#         932
  C:1E2FH         LINE#         933
  C:1E33H         LINE#         934
  C:1E33H         LINE#         935
  C:1E3BH         LINE#         937
  C:1E41H         LINE#         938
  C:1E44H         LINE#         939
  C:1E52H         LINE#         940
  C:1E52H         LINE#         941
  C:1E58H         LINE#         942
  C:1E5AH         LINE#         944
  C:1E60H         LINE#         945
  C:1E62H         LINE#         947
  C:1E69H         LINE#         948
  C:1E69H         LINE#         949
  C:1E6FH         LINE#         950
BL51 BANKED LINKER/LOCATER V6.22                                                      10/30/2015  13:58:41  PAGE 95


  C:1E73H         LINE#         951
  C:1E73H         LINE#         952
  C:1E7BH         LINE#         954
  C:1E81H         LINE#         955
  C:1E83H         LINE#         956
  C:1E8FH         LINE#         957
  C:1E8FH         LINE#         958
  C:1EA0H         LINE#         959
  C:1EA6H         LINE#         960
  C:1EA8H         LINE#         961
  C:1EB4H         LINE#         962
  C:1EB4H         LINE#         963
  C:1EC5H         LINE#         964
  C:1ECEH         LINE#         965
  C:1ECEH         LINE#         966
  -------         ENDPROC       _IRDATADEAL
  -------         PROC          _RXDATADEAL
  C:522AH         LINE#         969
  C:522AH         LINE#         970
  C:522AH         LINE#         972
  -------         ENDPROC       _RXDATADEAL
  -------         PROC          _ENTEREVENTDEAL
  -------         DO            
  D:0007H         SYMBOL        i
  -------         ENDDO         
  C:2F41H         LINE#         974
  C:2F41H         LINE#         975
  C:2F41H         LINE#         978
  C:2F47H         LINE#         980
  C:2F49H         LINE#         981
  C:2F4BH         LINE#         982
  C:2F50H         LINE#         984
  C:2F56H         LINE#         986
  C:2F5AH         LINE#         987
  C:2F5EH         LINE#         988
  C:2F64H         LINE#         989
  C:2F68H         LINE#         990
  C:2F6CH         LINE#         991
  C:2F72H         LINE#         994
  C:2F78H         LINE#         996
  C:2F7EH         LINE#         997
  C:2F81H         LINE#         1000
  C:2F84H         LINE#         1001
  C:2F84H         LINE#         1002
  C:2F86H         LINE#         1003
  C:2F8CH         LINE#         1004
  C:2F92H         LINE#         1005
  C:2F92H         LINE#         1006
  C:2F94H         LINE#         1008
  C:2F94H         LINE#         1009
  C:2F98H         LINE#         1010
  C:2FA0H         LINE#         1011
  C:2FA8H         LINE#         1012
  C:2FB0H         LINE#         1013
  C:2FB0H         LINE#         1015
  C:2FB8H         LINE#         1017
  C:2FBDH         LINE#         1019
BL51 BANKED LINKER/LOCATER V6.22                                                      10/30/2015  13:58:41  PAGE 96


  C:2FC3H         LINE#         1021
  C:2FC7H         LINE#         1022
  C:2FC9H         LINE#         1024
  C:2FD6H         LINE#         1025
  C:2FD6H         LINE#         1026
  C:2FDBH         LINE#         1028
  C:2FE2H         LINE#         1029
  C:2FE8H         LINE#         1030
  C:2FEEH         LINE#         1031
  C:2FF4H         LINE#         1032
  C:2FFAH         LINE#         1033
  C:2FFAH         LINE#         1035
  C:3001H         LINE#         1036
  C:3007H         LINE#         1038
  C:300DH         LINE#         1041
  C:300EH         LINE#         1042
  C:300EH         LINE#         1043
  C:301EH         LINE#         1044
  C:302EH         LINE#         1045
  C:3033H         LINE#         1046
  C:303CH         LINE#         1047
  C:3045H         LINE#         1048
  C:304AH         LINE#         1049
  C:304DH         LINE#         1050
  -------         ENDPROC       _ENTEREVENTDEAL
  -------         PROC          _EXITEVENTDEAL
  C:522BH         LINE#         1052
  C:522BH         LINE#         1053
  C:522BH         LINE#         1055
  -------         ENDPROC       _EXITEVENTDEAL
  -------         ENDMOD        STATE_WORK

  -------         MODULE        ?C?FPMUL
  C:15DAH         PUBLIC        ?C?FPMUL
  -------         ENDMOD        ?C?FPMUL

  -------         MODULE        ?C?FCAST
  C:16EAH         PUBLIC        ?C?FCASTC
  C:16E5H         PUBLIC        ?C?FCASTI
  C:16E0H         PUBLIC        ?C?FCASTL
  -------         ENDMOD        ?C?FCAST

  -------         MODULE        ?C?CASTF
  C:171EH         PUBLIC        ?C?CASTF
  -------         ENDMOD        ?C?CASTF

  -------         MODULE        ?C?CLDPTR
  C:179FH         PUBLIC        ?C?CLDPTR
  -------         ENDMOD        ?C?CLDPTR

  -------         MODULE        ?C?CLDOPTR
  C:17B8H         PUBLIC        ?C?CLDOPTR
  -------         ENDMOD        ?C?CLDOPTR

  -------         MODULE        ?C?CSTPTR
  C:17E5H         PUBLIC        ?C?CSTPTR
  -------         ENDMOD        ?C?CSTPTR
BL51 BANKED LINKER/LOCATER V6.22                                                      10/30/2015  13:58:41  PAGE 97



  -------         MODULE        ?C?CSTOPTR
  C:17F7H         PUBLIC        ?C?CSTOPTR
  -------         ENDMOD        ?C?CSTOPTR

  -------         MODULE        ?C?UIDIV
  C:1819H         PUBLIC        ?C?UIDIV
  -------         ENDMOD        ?C?UIDIV

  -------         MODULE        ?C?ILDOPTR
  C:186EH         PUBLIC        ?C?ILDOPTR
  -------         ENDMOD        ?C?ILDOPTR

  -------         MODULE        ?C?ULDIV
  C:18E2H         PUBLIC        ?C?ULDIV
  -------         ENDMOD        ?C?ULDIV

  -------         MODULE        ?C?LNEG
  C:1974H         PUBLIC        ?C?LNEG
  -------         ENDMOD        ?C?LNEG

  -------         MODULE        ?C?ULCMP
  C:1982H         PUBLIC        ?C?ULCMP
  -------         ENDMOD        ?C?ULCMP

  -------         MODULE        ?C?LSTXDATA
  C:1993H         PUBLIC        ?C?LSTXDATA
  -------         ENDMOD        ?C?LSTXDATA

  -------         MODULE        ?C?LSTKXDATA
  C:199FH         PUBLIC        ?C?LSTKXDATA
  -------         ENDMOD        ?C?LSTKXDATA

  -------         MODULE        ?C?OFFXADD
  C:19D0H         PUBLIC        ?C?OFFXADD
  -------         ENDMOD        ?C?OFFXADD

  -------         MODULE        ?C?ICALL
  C:19DCH         PUBLIC        ?C?ICALL
  C:19E0H         PUBLIC        ?C?ICALL2
  -------         ENDMOD        ?C?ICALL

Program Size: data=30.2 xdata=526 code=21036
LINK/LOCATE RUN COMPLETE.  0 WARNING(S),  0 ERROR(S)
