BL51 BANKED LINKER/LOCATER V6.22                                                        10/29/2015  16:57:16  PAGE 1


BL51 BANKED LINKER/LOCATER V6.22, INVOKED BY:
C:\KEIL_V5\C51\BIN\BL51.EXE .\it.obj, startup.obj, .\main.obj, .\bsp_init.obj, .\aip1944.obj, .\display.obj, .\buzzer.ob
>> j, .\ir.obj, .\humidity.obj, .\dust.obj, .\motor.obj, .\system.obj, .\key.obj, .\fifo.obj, .\protocol.obj, .\uart.obj
>> , .\fsm.obj, .\state_test.obj, .\state_startup.obj, .\state_standby.obj, .\state_clockSetting.obj, .\state_echeck.obj
>> , .\state_timerSetting.obj, .\state_timerFnSetting.obj, .\state_timerLookup.obj, .\state_work.obj TO YTN-E608-WIFI-64
>> 32 RAMSIZE (256) DISABLEWARNING (16, 15, 13) CODE (0X0000-0X7FFF) XDATA (0X0000-0X02FF)




PROGRAM RECURSIONS REMOVED FROM CALL TREE
=========================================
+--> ?CO?STATE_STANDBY
|  | ?PR?_KEYACTIONDEAL?STATE_STANDBY
|  | ?CO?STATE_WORK
<--+ ?PR?_TIMETICK?STATE_WORK



MEMORY MODEL: LARGE WITH FLOATING POINT ARITHMETIC


INPUT MODULES INCLUDED:
  .\it.obj (IT)
  startup.obj (?C_STARTUP)
  .\main.obj (MAIN)
  .\bsp_init.obj (BSP_INIT)
  .\aip1944.obj (AIP1944)
  .\display.obj (DISPLAY)
  .\buzzer.obj (BUZZER)
  .\ir.obj (IR)
  .\humidity.obj (HUMIDITY)
  .\dust.obj (DUST)
  .\motor.obj (MOTOR)
  .\system.obj (SYSTEM)
  .\key.obj (KEY)
  .\fifo.obj (FIFO)
  .\protocol.obj (PROTOCOL)
  .\uart.obj (UART)
  .\fsm.obj (FSM)
  .\state_test.obj (STATE_TEST)
  .\state_startup.obj (STATE_STARTUP)
  .\state_standby.obj (STATE_STANDBY)
  .\state_clockSetting.obj (STATE_CLOCKSETTING)
  .\state_echeck.obj (STATE_ECHECK)
  .\state_timerSetting.obj (STATE_TIMERSETTING)
  .\state_timerFnSetting.obj (STATE_TIMERFNSETTING)
  .\state_timerLookup.obj (STATE_TIMERLOOKUP)
  .\state_work.obj (STATE_WORK)
  C:\KEIL_V5\C51\LIB\C51FPL.LIB (?C?FPMUL)
  C:\KEIL_V5\C51\LIB\C51FPL.LIB (?C?FCAST)
  C:\KEIL_V5\C51\LIB\C51FPL.LIB (?C?CASTF)
  C:\KEIL_V5\C51\LIB\C51FPL.LIB (?C?FPGETOPN)
  C:\KEIL_V5\C51\LIB\C51L.LIB (?C_INIT)
  C:\KEIL_V5\C51\LIB\C51L.LIB (?C?CLDPTR)
  C:\KEIL_V5\C51\LIB\C51L.LIB (?C?CLDOPTR)
  C:\KEIL_V5\C51\LIB\C51L.LIB (?C?CSTPTR)
  C:\KEIL_V5\C51\LIB\C51L.LIB (?C?CSTOPTR)
BL51 BANKED LINKER/LOCATER V6.22                                                      10/29/2015  16:57:16  PAGE 2


  C:\KEIL_V5\C51\LIB\C51L.LIB (?C?UIDIV)
  C:\KEIL_V5\C51\LIB\C51L.LIB (?C?ILDOPTR)
  C:\KEIL_V5\C51\LIB\C51L.LIB (?C?ULDIV)
  C:\KEIL_V5\C51\LIB\C51L.LIB (?C?LNEG)
  C:\KEIL_V5\C51\LIB\C51L.LIB (?C?ULCMP)
  C:\KEIL_V5\C51\LIB\C51L.LIB (?C?LSTXDATA)
  C:\KEIL_V5\C51\LIB\C51L.LIB (?C?LSTKXDATA)
  C:\KEIL_V5\C51\LIB\C51L.LIB (?C?OFFXADD)
  C:\KEIL_V5\C51\LIB\C51L.LIB (?C?ICALL)


LINK MAP OF MODULE:  YTN-E608-WIFI-6432 (IT)


            TYPE    BASE      LENGTH    RELOCATION   SEGMENT NAME
            -----------------------------------------------------

            * * * * * * *   D A T A   M E M O R Y   * * * * * * *
            REG     0000H     0008H     ABSOLUTE     "REG BANK 0"
            IDATA   0008H     000BH     UNIT         ?ID?IT
            IDATA   0013H     0003H     UNIT         ?ID?MAIN
            IDATA   0016H     0003H     UNIT         ?ID?HUMIDITY
                    0019H     0007H                  *** GAP ***
            BIT     0020H.0   0001H.0   UNIT         ?BI?SYSTEM
            BIT     0021H.0   0000H.7   UNIT         _BIT_GROUP_
            BIT     0021H.7   0000H.3   UNIT         ?BI?DISPLAY
            BIT     0022H.2   0000H.3   UNIT         ?BI?MOTOR
            BIT     0022H.5   0000H.2   UNIT         ?BI?HUMIDITY
            BIT     0022H.7   0000H.2   UNIT         ?BI?DUST
            BIT     0023H.1   0000H.2   UNIT         ?BI?UART
            BIT     0023H.3   0000H.1   UNIT         ?BI?BUZZER
            BIT     0023H.4   0000H.1   UNIT         ?BI?IR
            BIT     0023H.5   0000H.1   UNIT         ?BI?KEY
            BIT     0023H.6   0000H.1   UNIT         ?BI?PROTOCOL
            BIT     0023H.7   0000H.1   UNIT         ?BI?STATE_STANDBY
            BIT     0024H.0   0000H.1   UNIT         ?BI?STATE_ECHECK
            BIT     0024H.1   0000H.1   UNIT         ?BI?STATE_WORK
                    0024H.2   0000H.6                *** GAP ***
            IDATA   0025H     0001H     UNIT         ?STACK

            * * * * * * *  X D A T A   M E M O R Y  * * * * * * *
            XDATA   0000H     00D8H     UNIT         ?XD?UART
            XDATA   00D8H     007DH     UNIT         ?XD?SYSTEM
            XDATA   0155H     0042H     UNIT         ?XD?DISPLAY
            XDATA   0197H     0018H     UNIT         ?XD?STATE_WORK
            XDATA   01AFH     0017H     UNIT         _XDATA_GROUP_
            XDATA   01C6H     0015H     UNIT         ?XD?DUST
            XDATA   01DBH     0011H     UNIT         ?XD?HUMIDITY
            XDATA   01ECH     0008H     UNIT         ?XD?MOTOR
            XDATA   01F4H     0004H     UNIT         ?XD?IT
            XDATA   01F8H     0004H     UNIT         ?XD?BUZZER
            XDATA   01FCH     0004H     UNIT         ?XD?KEY
            XDATA   0200H     0004H     UNIT         ?XD?PROTOCOL
            XDATA   0204H     0002H     UNIT         ?XD?IR
            XDATA   0206H     0002H     UNIT         ?XD?FSM
            XDATA   0208H     0002H     UNIT         ?XD?STATE_STANDBY
            XDATA   020AH     0001H     UNIT         ?XD?AIP1944
BL51 BANKED LINKER/LOCATER V6.22                                                      10/29/2015  16:57:16  PAGE 3


            XDATA   020BH     0001H     UNIT         ?XD?STATE_CLOCKSETTING
            XDATA   020CH     0001H     UNIT         ?XD?STATE_TIMERSETTING
            XDATA   020DH     0001H     UNIT         ?XD?STATE_TIMERLOOKUP

            * * * * * * *   C O D E   M E M O R Y   * * * * * * *
            CODE    0000H     0003H     ABSOLUTE     
            CODE    0003H     0018H     UNIT         ?PR?TIMER1_INIT?BSP_INIT
            CODE    001BH     0003H     ABSOLUTE     
            CODE    001EH     0005H     UNIT         ?PR?CMD_GET_SYS_STA_DEAL?PROTOCOL
            CODE    0023H     0003H     ABSOLUTE     
            CODE    0026H     0044H     UNIT         ?PR?UART_SENDSTARTUP?UART
            CODE    006AH     0001H     UNIT         ?PR?CMD_DUMMY_DEAL?PROTOCOL
            CODE    006BH     0003H     ABSOLUTE     
            CODE    006EH     0034H     UNIT         ?PR?_DISPLAY_SPLEVEL?DISPLAY
            CODE    00A2H     0001H     UNIT         ?PR?TASK_DONOTHING?FSM
            CODE    00A3H     0003H     ABSOLUTE     
            CODE    00A6H     000DH     UNIT         ?PR?BIT_INIT?BSP_INIT
            CODE    00B3H     0003H     ABSOLUTE     
            CODE    00B6H     0AE7H     UNIT         ?CO?HUMIDITY
            CODE    0B9DH     061FH     UNIT         ?PR?_TIMETICK?STATE_WORK
            CODE    11BCH     0417H     UNIT         ?PR?_PROTOCOL_STARESP?PROTOCOL
            CODE    15D3H     0408H     UNIT         ?C?LIB_CODE
            CODE    19DBH     030CH     UNIT         ?PR?_DISPLAYCONTROL?STATE_WORK
            CODE    1CE7H     01E1H     UNIT         ?PR?_IRDATADEAL?STATE_WORK
            CODE    1EC8H     01B3H     UNIT         ?PR?_KEYACTIONDEAL?STATE_TIMERSETTING
            CODE    207BH     01ABH     UNIT         ?PR?CMD_GET_DEVICE_INFO_DEAL?PROTOCOL
            CODE    2226H     01A5H     UNIT         ?PR?MOTOR_CTR?MOTOR
            CODE    23CBH     01A1H     UNIT         ?PR?PROTOCOL_TASK?PROTOCOL
            CODE    256CH     019BH     UNIT         ?PR?INT_BIT?IT
            CODE    2707H     015FH     UNIT         ?PR?CMD_GET_PM_DATAS_DEAL?PROTOCOL
            CODE    2866H     0148H     UNIT         ?PR?_DISPLAYCONTROL?STATE_TIMERSETTING
            CODE    29AEH     013AH     UNIT         ?PR?_KEYACTIONDEAL?STATE_WORK
            CODE    2AE8H     011EH     UNIT         ?PR?_DISPLAYCONTROL?STATE_TIMERLOOKUP
            CODE    2C06H     0117H     UNIT         ?CO?DISPLAY
            CODE    2D1DH     010FH     UNIT         ?PR?_IRDATADEAL?STATE_STANDBY
            CODE    2E2CH     010EH     UNIT         ?PR?_TIMETICK?STATE_STANDBY
            CODE    2F3AH     010DH     UNIT         ?PR?_ENTEREVENTDEAL?STATE_WORK
            CODE    3047H     010BH     UNIT         ?PR?INT_WT?IT
            CODE    3152H     0102H     UNIT         ?PR?_DISPLAY_DUSTDATA?DISPLAY
            CODE    3254H     0102H     UNIT         ?PR?_KEYACTIONDEAL?STATE_STANDBY
            CODE    3356H     0102H     UNIT         ?PR?_DISPLAYCONTROL?STATE_STANDBY
            CODE    3458H     00FEH     UNIT         ?PR?_DISPLAY_SHOWNUMINRTCAREA?DISPLAY
            CODE    3556H     00FEH     UNIT         ?PR?_HUMIDITY_AD2H?HUMIDITY
            CODE    3654H     00FAH     UNIT         ?PR?_DISPLAYCONTROL?STATE_TEST
            CODE    374EH     00F3H     UNIT         ?PR?SYS_UPDATETIMERONINDEX?SYSTEM
            CODE    3841H     00E3H     UNIT         ?PR?PROTOCOL_RESETWIFIMODE?PROTOCOL
            CODE    3924H     00D1H     UNIT         ?PR?MAIN?MAIN
            CODE    39F5H     00CEH     UNIT         ?PR?_DISPLAY_SHOWRT?DISPLAY
            CODE    3AC3H     00CCH     UNIT         ?PR?KEY_ACTIONDETECT?KEY
            CODE    3B8FH     00B2H     UNIT         ?PR?DISPLAY_LEDDRIVE?DISPLAY
            CODE    3C41H     00B1H     UNIT         ?PR?DUST_LEVELUPDATE?DUST
            CODE    3CF2H     00ADH     UNIT         ?PR?DUST_DATAUPDATE?DUST
            CODE    3D9FH     00ADH     UNIT         ?PR?CMD_GET_ENE_DATAS_DEAL?PROTOCOL
            CODE    3E4CH     00ACH     UNIT         ?PR?INT_USI1_RX?IT
            CODE    3EF8H     00A3H     UNIT         ?PR?PROTOCOL_ENTERATMODE?PROTOCOL
            CODE    3F9BH     00A0H     UNIT         ?PR?HUMIDITY_GETCURRENTH?HUMIDITY
            CODE    403BH     009AH     UNIT         ?C_C51STARTUP
BL51 BANKED LINKER/LOCATER V6.22                                                      10/29/2015  16:57:16  PAGE 4


            CODE    40D5H     008FH     UNIT         ?PR?INT_USI1_TX?IT
            CODE    4164H     008BH     UNIT         ?PR?_TASKEXE?STATE_WORK
            CODE    41EFH     0089H     UNIT         ?PR?HUMIDITY_GETCURRENTT?HUMIDITY
            CODE    4278H     007EH     UNIT         ?PR?_KEYACTIONDEAL?STATE_CLOCKSETTING
            CODE    42F6H     007AH     UNIT         ?PR?CMD_TIMER_CTR_DEAL?PROTOCOL
            CODE    4370H     0079H     UNIT         ?PR?SYS_RESET?SYSTEM
            CODE    43E9H     0075H     UNIT         ?PR?_HUMIDITY_GETH?HUMIDITY
            CODE    445EH     0064H     UNIT         ?PR?_MOTORCTR?STATE_WORK
            CODE    44C2H     0061H     UNIT         ?PR?_ENQUEUE?FIFO
            CODE    4523H     005FH     UNIT         ?PR?_DISPLAY_SHOWTEMPERATURE?DISPLAY
            CODE    4582H     005FH     UNIT         ?PR?_DISPLAY_SHOWHUMIDITY?DISPLAY
            CODE    45E1H     005FH     UNIT         ?PR?CMD_FAN_CTR_DEAL?PROTOCOL
            CODE    4640H     005DH     UNIT         ?PR?_DEQUEUE?FIFO
            CODE    469DH     0053H     UNIT         ?PR?SYS_LOADCTR?SYSTEM
            CODE    46F0H     0053H     UNIT         ?PR?KEY_READ?KEY
            CODE    4743H     0052H     UNIT         ?PR?_STATE_TRANSITIONTO?FSM
            CODE    4795H     0051H     UNIT         ?PR?PORT_INIT?BSP_INIT
            CODE    47E6H     0050H     UNIT         ?PR?_AIP1944_WRITEDISPDATAS?AIP1944
            CODE    4836H     004BH     UNIT         ?PR?DUST_GETRTLEVEL?DUST
            CODE    4881H     004BH     UNIT         ?CO?PROTOCOL
            CODE    48CCH     004AH     UNIT         ?PR?_DISPLAY_CIRCLERUN?DISPLAY
            CODE    4916H     0043H     UNIT         ?PR?BUZZ_CTR?BUZZER
            CODE    4959H     0043H     UNIT         ?PR?CMD_RT_SET_DEAL?PROTOCOL
            CODE    499CH     003EH     UNIT         ?PR?_DISPLAY_DUSTLEVEL?DISPLAY
            CODE    49DAH     003CH     UNIT         ?PR?_KEYACTIONDEAL?STATE_ECHECK
            CODE    4A16H     003AH     UNIT         ?PR?_KEYACTIONDEAL?STATE_TIMERLOOKUP
            CODE    4A50H     0039H     UNIT         ?PR?_QUEUEISFULL?FIFO
            CODE    4A89H     0038H     UNIT         ?PR?_ENTEREVENTDEAL?STATE_STANDBY
            CODE    4AC1H     0037H     UNIT         ?PR?CMD_MEM_SET_DEAL?PROTOCOL
            CODE    4AF8H     0034H     UNIT         ?PR?UART_MEMORYINIT?UART
            CODE    4B2CH     0034H     UNIT         ?PR?_DISPLAYCONTROL?STATE_TIMERFNSETTING
            CODE    4B60H     0033H     UNIT         ?PR?DISPLAY_CTR?DISPLAY
            CODE    4B93H     0033H     UNIT         ?PR?GETNEXTACTIVETIMERINDEX?STATE_TIMERLOOKUP
            CODE    4BC6H     0032H     UNIT         ?PR?INITALL?MAIN
            CODE    4BF8H     002EH     UNIT         ?PR?BSP_INIT?BSP_INIT
            CODE    4C26H     002EH     UNIT         ?PR?SYS_ENTERSTOPMODE?SYSTEM
            CODE    4C54H     002DH     UNIT         ?C_INITSEG
            CODE    4C81H     002CH     UNIT         ?PR?_DISPLAYCONTROL?STATE_CLOCKSETTING
            CODE    4CADH     002BH     UNIT         ?PR?CMD_POWER_CTR_DEAL?PROTOCOL
            CODE    4CD8H     002BH     UNIT         ?PR?_DISPLAYCONTROL?STATE_ECHECK
            CODE    4D03H     0026H     UNIT         ?PR?_HUMIDITY_AD2T?HUMIDITY
            CODE    4D29H     0020H     UNIT         ?PR?DISPLAY_SETLINE?DISPLAY
            CODE    4D49H     001FH     UNIT         ?PR?_KEYACTIONDEAL?STATE_TIMERFNSETTING
            CODE    4D68H     001EH     UNIT         ?CO?SYSTEM
            CODE    4D86H     001DH     UNIT         ?PR?_MOTOR_RUN?MOTOR
            CODE    4DA3H     001DH     UNIT         ?PR?CMD_AION_CTR_DEAL?PROTOCOL
            CODE    4DC0H     001DH     UNIT         ?PR?CMD_UV_CTR_DEAL?PROTOCOL
            CODE    4DDDH     001CH     UNIT         ?PR?CMD_REST_DEAL?PROTOCOL
            CODE    4DF9H     001BH     UNIT         ?PR?_BUZZ_SET?BUZZER
            CODE    4E14H     001BH     UNIT         ?CO?FSM
            CODE    4E2FH     001BH     UNIT         ?CO?STATE_TEST
            CODE    4E4AH     001BH     UNIT         ?CO?STATE_STARTUP
            CODE    4E65H     001BH     UNIT         ?CO?STATE_STANDBY
            CODE    4E80H     001BH     UNIT         ?CO?STATE_CLOCKSETTING
            CODE    4E9BH     001BH     UNIT         ?CO?STATE_ECHECK
            CODE    4EB6H     001BH     UNIT         ?CO?STATE_TIMERSETTING
            CODE    4ED1H     001BH     UNIT         ?CO?STATE_TIMERFNSETTING
BL51 BANKED LINKER/LOCATER V6.22                                                      10/29/2015  16:57:16  PAGE 5


            CODE    4EECH     001BH     UNIT         ?PR?_ENTEREVENTDEAL?STATE_TIMERLOOKUP
            CODE    4F07H     001BH     UNIT         ?CO?STATE_TIMERLOOKUP
            CODE    4F22H     001BH     UNIT         ?CO?STATE_WORK
            CODE    4F3DH     001AH     UNIT         ?PR?_AIP1944_WRITEBYTE?AIP1944
            CODE    4F57H     001AH     UNIT         ?PR?_QUEUELEN?FIFO
            CODE    4F71H     0019H     UNIT         ?PR?CMD_WIFI_STA_CHANGE_DEAL?PROTOCOL
            CODE    4F8AH     0018H     UNIT         ?PR?_TIMETICK?STATE_STARTUP
            CODE    4FA2H     0018H     UNIT         ?PR?_TIMETICK?STATE_CLOCKSETTING
            CODE    4FBAH     0018H     UNIT         ?PR?_TIMETICK?STATE_ECHECK
            CODE    4FD2H     0018H     UNIT         ?PR?_TIMETICK?STATE_TIMERSETTING
            CODE    4FEAH     0018H     UNIT         ?PR?_TIMETICK?STATE_TIMERFNSETTING
            CODE    5002H     0018H     UNIT         ?PR?_TIMETICK?STATE_TIMERLOOKUP
            CODE    501AH     0016H     UNIT         ?PR?UART_INIT?BSP_INIT
            CODE    5030H     0016H     UNIT         ?PR?_UTILS_GETADVALUE?HUMIDITY
            CODE    5046H     0016H     UNIT         ?PR?CMD_FIX_CTR_DEAL?PROTOCOL
            CODE    505CH     0016H     UNIT         ?PR?CMD_CLEAN_CTR_DEAL?PROTOCOL
            CODE    5072H     0015H     UNIT         ?PR?_QUEUEISEMPTY?FIFO
            CODE    5087H     0014H     UNIT         ?PR?_DISPLAY_SETALL?DISPLAY
            CODE    509BH     0014H     UNIT         ?PR?DUST_DEVICEINIT?DUST
            CODE    50AFH     0013H     UNIT         ?PR?INT_TIMER0?IT
            CODE    50C2H     0012H     UNIT         ?PR?_BUZ_ONOFF?BSP_INIT
            CODE    50D4H     0012H     UNIT         ?PR?BUZZ_DEVICEINIT?BUZZER
            CODE    50E6H     0010H     UNIT         ?PR?HUMIDITY_DEVICEINIT?HUMIDITY
            CODE    50F6H     0010H     UNIT         ?PR?HOURDEC?STATE_CLOCKSETTING
            CODE    5106H     0010H     UNIT         ?PR?MINDEC?STATE_CLOCKSETTING
            CODE    5116H     000FH     UNIT         ?PR?_ADC_START?BSP_INIT
            CODE    5125H     000FH     UNIT         ?PR?HOURINC?STATE_CLOCKSETTING
            CODE    5134H     000FH     UNIT         ?PR?MININC?STATE_CLOCKSETTING
            CODE    5143H     000EH     UNIT         ?PR?_INITQUEUE?FIFO
            CODE    5151H     000EH     UNIT         ?PR?_ENTEREVENTDEAL?STATE_STARTUP
            CODE    515FH     000DH     UNIT         ?PR?TIMER0_INIT?BSP_INIT
            CODE    516CH     000DH     UNIT         ?PR?WT_INIT?BSP_INIT
            CODE    5179H     000AH     UNIT         ?PR?MOTOR_STOP?MOTOR
            CODE    5183H     000AH     UNIT         ?PR?_DISPLAYCONTROL?STATE_STARTUP
            CODE    518DH     000AH     UNIT         ?PR?_ENTEREVENTDEAL?STATE_CLOCKSETTING
            CODE    5197H     000AH     UNIT         ?PR?_ENTEREVENTDEAL?STATE_TIMERSETTING
            CODE    51A1H     0009H     UNIT         ?PR?WDT_INIT?BSP_INIT
            CODE    51AAH     0009H     UNIT         ?PR?UART_RXDATSDEAL?UART
            CODE    51B3H     0008H     UNIT         ?PR?LCD_INIT?BSP_INIT
            CODE    51BBH     0008H     UNIT         ?PR?PROTOCOL_INIT?PROTOCOL
            CODE    51C3H     0008H     UNIT         ?PR?_ENTEREVENTDEAL?STATE_ECHECK
            CODE    51CBH     0007H     UNIT         ?PR?ADC_INIT?BSP_INIT
            CODE    51D2H     0007H     UNIT         ?PR?BUZ_INIT?BSP_INIT
            CODE    51D9H     0007H     UNIT         ?PR?CLOCK_INIT?BSP_INIT
            CODE    51E0H     0006H     UNIT         ?PR?_ENTEREVENTDEAL?STATE_TIMERFNSETTING
            CODE    51E6H     0004H     UNIT         ?PR?WDT_CLEAR?BSP_INIT
            CODE    51EAH     0003H     UNIT         ?PR?_MOTORCTR?STATE_STARTUP
            CODE    51EDH     0003H     UNIT         ?PR?_MOTORCTR?STATE_STANDBY
            CODE    51F0H     0003H     UNIT         ?PR?_MOTORCTR?STATE_CLOCKSETTING
            CODE    51F3H     0003H     UNIT         ?PR?_MOTORCTR?STATE_ECHECK
            CODE    51F6H     0003H     UNIT         ?PR?_MOTORCTR?STATE_TIMERSETTING
            CODE    51F9H     0003H     UNIT         ?PR?_MOTORCTR?STATE_TIMERFNSETTING
            CODE    51FCH     0003H     UNIT         ?PR?_MOTORCTR?STATE_TIMERLOOKUP
            CODE    51FFH     0001H     UNIT         ?PR?_KEYACTIONDEAL?STATE_TEST
            CODE    5200H     0001H     UNIT         ?PR?_TASKEXE?STATE_TEST
            CODE    5201H     0001H     UNIT         ?PR?_TIMETICK?STATE_TEST
            CODE    5202H     0001H     UNIT         ?PR?_MOTORCTR?STATE_TEST
BL51 BANKED LINKER/LOCATER V6.22                                                      10/29/2015  16:57:16  PAGE 6


            CODE    5203H     0001H     UNIT         ?PR?_IRDATADEAL?STATE_TEST
            CODE    5204H     0001H     UNIT         ?PR?_RXDATADEAL?STATE_TEST
            CODE    5205H     0001H     UNIT         ?PR?_ENTEREVENTDEAL?STATE_TEST
            CODE    5206H     0001H     UNIT         ?PR?_EXITEVENTDEAL?STATE_TEST
            CODE    5207H     0001H     UNIT         ?PR?_KEYACTIONDEAL?STATE_STARTUP
            CODE    5208H     0001H     UNIT         ?PR?_TASKEXE?STATE_STARTUP
            CODE    5209H     0001H     UNIT         ?PR?_IRDATADEAL?STATE_STARTUP
            CODE    520AH     0001H     UNIT         ?PR?_RXDATADEAL?STATE_STARTUP
            CODE    520BH     0001H     UNIT         ?PR?_EXITEVENTDEAL?STATE_STARTUP
            CODE    520CH     0001H     UNIT         ?PR?_TASKEXE?STATE_STANDBY
            CODE    520DH     0001H     UNIT         ?PR?_RXDATADEAL?STATE_STANDBY
            CODE    520EH     0001H     UNIT         ?PR?_EXITEVENTDEAL?STATE_STANDBY
            CODE    520FH     0001H     UNIT         ?PR?_TASKEXE?STATE_CLOCKSETTING
            CODE    5210H     0001H     UNIT         ?PR?_IRDATADEAL?STATE_CLOCKSETTING
            CODE    5211H     0001H     UNIT         ?PR?_RXDATADEAL?STATE_CLOCKSETTING
            CODE    5212H     0001H     UNIT         ?PR?_EXITEVENTDEAL?STATE_CLOCKSETTING
            CODE    5213H     0001H     UNIT         ?PR?_TASKEXE?STATE_ECHECK
            CODE    5214H     0001H     UNIT         ?PR?_IRDATADEAL?STATE_ECHECK
            CODE    5215H     0001H     UNIT         ?PR?_RXDATADEAL?STATE_ECHECK
            CODE    5216H     0001H     UNIT         ?PR?_EXITEVENTDEAL?STATE_ECHECK
            CODE    5217H     0001H     UNIT         ?PR?_TASKEXE?STATE_TIMERSETTING
            CODE    5218H     0001H     UNIT         ?PR?_IRDATADEAL?STATE_TIMERSETTING
            CODE    5219H     0001H     UNIT         ?PR?_RXDATADEAL?STATE_TIMERSETTING
            CODE    521AH     0001H     UNIT         ?PR?_EXITEVENTDEAL?STATE_TIMERSETTING
            CODE    521BH     0001H     UNIT         ?PR?_TASKEXE?STATE_TIMERFNSETTING
            CODE    521CH     0001H     UNIT         ?PR?_IRDATADEAL?STATE_TIMERFNSETTING
            CODE    521DH     0001H     UNIT         ?PR?_RXDATADEAL?STATE_TIMERFNSETTING
            CODE    521EH     0001H     UNIT         ?PR?_EXITEVENTDEAL?STATE_TIMERFNSETTING
            CODE    521FH     0001H     UNIT         ?PR?_TASKEXE?STATE_TIMERLOOKUP
            CODE    5220H     0001H     UNIT         ?PR?_IRDATADEAL?STATE_TIMERLOOKUP
            CODE    5221H     0001H     UNIT         ?PR?_RXDATADEAL?STATE_TIMERLOOKUP
            CODE    5222H     0001H     UNIT         ?PR?_EXITEVENTDEAL?STATE_TIMERLOOKUP
            CODE    5223H     0001H     UNIT         ?PR?_RXDATADEAL?STATE_WORK
            CODE    5224H     0001H     UNIT         ?PR?_EXITEVENTDEAL?STATE_WORK



OVERLAY MAP OF MODULE:   YTN-E608-WIFI-6432 (IT)


SEGMENT                                             BIT_GROUP          XDATA_GROUP
  +--> CALLED SEGMENT                            START    LENGTH     START    LENGTH
------------------------------------------------------------------------------------
?PR?INT_WT?IT                                    -----    -----      -----    -----
  +--> ?PR?INITALL?MAIN

?PR?INITALL?MAIN                                 -----    -----      -----    -----
  +--> ?PR?BSP_INIT?BSP_INIT
  +--> ?PR?BUZZ_DEVICEINIT?BUZZER
  +--> ?PR?UART_MEMORYINIT?UART
  +--> ?PR?PROTOCOL_INIT?PROTOCOL
  +--> ?PR?HUMIDITY_DEVICEINIT?HUMIDITY
  +--> ?PR?DUST_DEVICEINIT?DUST
  +--> ?CO?STATE_STANDBY
  +--> ?PR?_STATE_TRANSITIONTO?FSM
  +--> ?PR?_BUZZ_SET?BUZZER

BL51 BANKED LINKER/LOCATER V6.22                                                      10/29/2015  16:57:16  PAGE 7


?PR?BSP_INIT?BSP_INIT                            -----    -----      -----    -----
  +--> ?PR?PORT_INIT?BSP_INIT
  +--> ?PR?CLOCK_INIT?BSP_INIT
  +--> ?PR?WT_INIT?BSP_INIT
  +--> ?PR?ADC_INIT?BSP_INIT
  +--> ?PR?BIT_INIT?BSP_INIT
  +--> ?PR?BUZ_INIT?BSP_INIT
  +--> ?PR?LCD_INIT?BSP_INIT
  +--> ?PR?TIMER0_INIT?BSP_INIT
  +--> ?PR?TIMER1_INIT?BSP_INIT
  +--> ?PR?UART_INIT?BSP_INIT

?PR?UART_MEMORYINIT?UART                         -----    -----      -----    -----
  +--> ?PR?_INITQUEUE?FIFO

?PR?HUMIDITY_DEVICEINIT?HUMIDITY                 -----    -----      -----    -----
  +--> ?PR?_UTILS_GETADVALUE?HUMIDITY
  +--> ?PR?_HUMIDITY_AD2T?HUMIDITY
  +--> ?PR?_HUMIDITY_AD2H?HUMIDITY

?PR?_HUMIDITY_AD2T?HUMIDITY                      -----    -----      -----    -----
  +--> ?CO?HUMIDITY

?PR?_HUMIDITY_AD2H?HUMIDITY                      -----    -----      01B7H    0003H
  +--> ?PR?_HUMIDITY_GETH?HUMIDITY

?PR?_HUMIDITY_GETH?HUMIDITY                      -----    -----      01BAH    0003H
  +--> ?CO?HUMIDITY

?CO?STATE_STANDBY                                -----    -----      -----    -----
  +--> ?PR?_KEYACTIONDEAL?STATE_STANDBY
  +--> ?PR?_DISPLAYCONTROL?STATE_STANDBY
  +--> ?PR?_TASKEXE?STATE_STANDBY
  +--> ?PR?_TIMETICK?STATE_STANDBY
  +--> ?PR?_MOTORCTR?STATE_STANDBY
  +--> ?PR?_IRDATADEAL?STATE_STANDBY
  +--> ?PR?_RXDATADEAL?STATE_STANDBY
  +--> ?PR?_ENTEREVENTDEAL?STATE_STANDBY
  +--> ?PR?_EXITEVENTDEAL?STATE_STANDBY

?PR?_KEYACTIONDEAL?STATE_STANDBY                 -----    -----      -----    -----
  +--> ?PR?_BUZZ_SET?BUZZER
  +--> ?CO?STATE_WORK
  +--> ?CO?STATE_ECHECK
  +--> ?CO?STATE_TIMERLOOKUP
  +--> ?CO?STATE_CLOCKSETTING
  +--> ?CO?STATE_TIMERSETTING
  +--> ?CO?STATE_TIMERFNSETTING
  +--> ?PR?_STATE_TRANSITIONTO?FSM
  +--> ?PR?PROTOCOL_ENTERATMODE?PROTOCOL
  +--> ?PR?SYS_RESET?SYSTEM

?CO?STATE_WORK                                   -----    -----      -----    -----
  +--> ?PR?_KEYACTIONDEAL?STATE_WORK
  +--> ?PR?_DISPLAYCONTROL?STATE_WORK
  +--> ?PR?_TASKEXE?STATE_WORK
  +--> ?PR?_TIMETICK?STATE_WORK
BL51 BANKED LINKER/LOCATER V6.22                                                      10/29/2015  16:57:16  PAGE 8


  +--> ?PR?_MOTORCTR?STATE_WORK
  +--> ?PR?_IRDATADEAL?STATE_WORK
  +--> ?PR?_RXDATADEAL?STATE_WORK
  +--> ?PR?_ENTEREVENTDEAL?STATE_WORK
  +--> ?PR?_EXITEVENTDEAL?STATE_WORK

?PR?_KEYACTIONDEAL?STATE_WORK                    -----    -----      -----    -----
  +--> ?PR?_STATE_TRANSITIONTO?FSM
  +--> ?PR?_BUZZ_SET?BUZZER

?PR?_STATE_TRANSITIONTO?FSM                      0021H.4  0000H.2    01BBH    0002H

?PR?_DISPLAYCONTROL?STATE_WORK                   -----    -----      -----    -----
  +--> ?PR?_DISPLAY_SPLEVEL?DISPLAY
  +--> ?PR?DISPLAY_SETLINE?DISPLAY
  +--> ?PR?_DISPLAY_DUSTDATA?DISPLAY
  +--> ?PR?_DISPLAY_DUSTLEVEL?DISPLAY
  +--> ?PR?_DISPLAY_SHOWTEMPERATURE?DISPLAY
  +--> ?PR?_DISPLAY_SHOWHUMIDITY?DISPLAY
  +--> ?PR?_DISPLAY_SHOWRT?DISPLAY
  +--> ?PR?_DISPLAY_CIRCLERUN?DISPLAY
  +--> ?CO?SYSTEM

?PR?_DISPLAY_DUSTDATA?DISPLAY                    -----    -----      01BAH    0003H
  +--> ?CO?DISPLAY

?PR?_DISPLAY_SHOWTEMPERATURE?DISPLAY             -----    -----      -----    -----
  +--> ?CO?DISPLAY

?PR?_DISPLAY_SHOWHUMIDITY?DISPLAY                -----    -----      -----    -----
  +--> ?CO?DISPLAY

?PR?_DISPLAY_SHOWRT?DISPLAY                      0021H.5  0000H.2    -----    -----
  +--> ?CO?DISPLAY

?PR?_TIMETICK?STATE_WORK                         -----    -----      01BAH    0001H
  +--> ?PR?_STATE_TRANSITIONTO?FSM
  +--> ?PR?_BUZZ_SET?BUZZER
  +--> ?CO?SYSTEM

?PR?_MOTORCTR?STATE_WORK                         -----    -----      -----    -----
  +--> ?PR?MOTOR_STOP?MOTOR
  +--> ?PR?_MOTOR_RUN?MOTOR

?PR?_IRDATADEAL?STATE_WORK                       -----    -----      -----    -----
  +--> ?PR?_BUZZ_SET?BUZZER
  +--> ?PR?_STATE_TRANSITIONTO?FSM

?PR?_ENTEREVENTDEAL?STATE_WORK                   -----    -----      -----    -----
  +--> ?PR?DUST_DEVICEINIT?DUST

?CO?STATE_ECHECK                                 -----    -----      -----    -----
  +--> ?PR?_KEYACTIONDEAL?STATE_ECHECK
  +--> ?PR?_DISPLAYCONTROL?STATE_ECHECK
  +--> ?PR?_TASKEXE?STATE_ECHECK
  +--> ?PR?_TIMETICK?STATE_ECHECK
  +--> ?PR?_MOTORCTR?STATE_ECHECK
BL51 BANKED LINKER/LOCATER V6.22                                                      10/29/2015  16:57:16  PAGE 9


  +--> ?PR?_IRDATADEAL?STATE_ECHECK
  +--> ?PR?_RXDATADEAL?STATE_ECHECK
  +--> ?PR?_ENTEREVENTDEAL?STATE_ECHECK
  +--> ?PR?_EXITEVENTDEAL?STATE_ECHECK

?PR?_KEYACTIONDEAL?STATE_ECHECK                  -----    -----      -----    -----
  +--> ?PR?_BUZZ_SET?BUZZER

?PR?_DISPLAYCONTROL?STATE_ECHECK                 -----    -----      -----    -----
  +--> ?PR?_DISPLAY_SHOWNUMINRTCAREA?DISPLAY

?PR?_DISPLAY_SHOWNUMINRTCAREA?DISPLAY            -----    -----      01BAH    0003H
  +--> ?CO?DISPLAY

?PR?_TIMETICK?STATE_ECHECK                       -----    -----      -----    -----
  +--> ?PR?_STATE_TRANSITIONTO?FSM

?PR?_MOTORCTR?STATE_ECHECK                       -----    -----      -----    -----
  +--> ?PR?MOTOR_STOP?MOTOR

?CO?STATE_TIMERLOOKUP                            -----    -----      -----    -----
  +--> ?PR?_KEYACTIONDEAL?STATE_TIMERLOOKUP
  +--> ?PR?_DISPLAYCONTROL?STATE_TIMERLOOKUP
  +--> ?PR?_TASKEXE?STATE_TIMERLOOKUP
  +--> ?PR?_TIMETICK?STATE_TIMERLOOKUP
  +--> ?PR?_MOTORCTR?STATE_TIMERLOOKUP
  +--> ?PR?_IRDATADEAL?STATE_TIMERLOOKUP
  +--> ?PR?_RXDATADEAL?STATE_TIMERLOOKUP
  +--> ?PR?_ENTEREVENTDEAL?STATE_TIMERLOOKUP
  +--> ?PR?_EXITEVENTDEAL?STATE_TIMERLOOKUP

?PR?_KEYACTIONDEAL?STATE_TIMERLOOKUP             -----    -----      -----    -----
  +--> ?PR?GETNEXTACTIVETIMERINDEX?STATE_TIM...
  +--> ?PR?_BUZZ_SET?BUZZER

?PR?GETNEXTACTIVETIMERINDEX?STATE_TIM...         -----    -----      -----    -----
  +--> ?CO?SYSTEM

?PR?_DISPLAYCONTROL?STATE_TIMERLOOKUP            -----    -----      -----    -----
  +--> ?PR?_DISPLAY_SHOWNUMINRTCAREA?DISPLAY
  +--> ?CO?SYSTEM
  +--> ?PR?_DISPLAY_SHOWRT?DISPLAY

?PR?_TIMETICK?STATE_TIMERLOOKUP                  -----    -----      -----    -----
  +--> ?PR?_STATE_TRANSITIONTO?FSM

?PR?_MOTORCTR?STATE_TIMERLOOKUP                  -----    -----      -----    -----
  +--> ?PR?MOTOR_STOP?MOTOR

?PR?_ENTEREVENTDEAL?STATE_TIMERLOOKUP            -----    -----      -----    -----
  +--> ?PR?GETNEXTACTIVETIMERINDEX?STATE_TIM...

?CO?STATE_CLOCKSETTING                           -----    -----      -----    -----
  +--> ?PR?_KEYACTIONDEAL?STATE_CLOCKSETTING
  +--> ?PR?_DISPLAYCONTROL?STATE_CLOCKSETTING
  +--> ?PR?_TASKEXE?STATE_CLOCKSETTING
  +--> ?PR?_TIMETICK?STATE_CLOCKSETTING
BL51 BANKED LINKER/LOCATER V6.22                                                      10/29/2015  16:57:16  PAGE 10


  +--> ?PR?_MOTORCTR?STATE_CLOCKSETTING
  +--> ?PR?_IRDATADEAL?STATE_CLOCKSETTING
  +--> ?PR?_RXDATADEAL?STATE_CLOCKSETTING
  +--> ?PR?_ENTEREVENTDEAL?STATE_CLOCKSETTING
  +--> ?PR?_EXITEVENTDEAL?STATE_CLOCKSETTING

?PR?_KEYACTIONDEAL?STATE_CLOCKSETTING            -----    -----      -----    -----
  +--> ?PR?HOURINC?STATE_CLOCKSETTING
  +--> ?PR?MININC?STATE_CLOCKSETTING
  +--> ?PR?HOURDEC?STATE_CLOCKSETTING
  +--> ?PR?MINDEC?STATE_CLOCKSETTING
  +--> ?PR?_BUZZ_SET?BUZZER

?PR?_DISPLAYCONTROL?STATE_CLOCKSETTING           -----    -----      -----    -----
  +--> ?PR?_DISPLAY_SHOWRT?DISPLAY

?PR?_TIMETICK?STATE_CLOCKSETTING                 -----    -----      -----    -----
  +--> ?PR?_STATE_TRANSITIONTO?FSM

?PR?_MOTORCTR?STATE_CLOCKSETTING                 -----    -----      -----    -----
  +--> ?PR?MOTOR_STOP?MOTOR

?CO?STATE_TIMERSETTING                           -----    -----      -----    -----
  +--> ?PR?_KEYACTIONDEAL?STATE_TIMERSETTING
  +--> ?PR?_DISPLAYCONTROL?STATE_TIMERSETTING
  +--> ?PR?_TASKEXE?STATE_TIMERSETTING
  +--> ?PR?_TIMETICK?STATE_TIMERSETTING
  +--> ?PR?_MOTORCTR?STATE_TIMERSETTING
  +--> ?PR?_IRDATADEAL?STATE_TIMERSETTING
  +--> ?PR?_RXDATADEAL?STATE_TIMERSETTING
  +--> ?PR?_ENTEREVENTDEAL?STATE_TIMERSETTING
  +--> ?PR?_EXITEVENTDEAL?STATE_TIMERSETTING

?PR?_KEYACTIONDEAL?STATE_TIMERSETTING            0021H.4  0000H.1    01BAH    0003H
  +--> ?CO?SYSTEM
  +--> ?PR?_BUZZ_SET?BUZZER

?PR?_DISPLAYCONTROL?STATE_TIMERSETTING           0021H.4  0000H.1    -----    -----
  +--> ?PR?_DISPLAY_SHOWNUMINRTCAREA?DISPLAY
  +--> ?CO?SYSTEM
  +--> ?PR?_DISPLAY_SHOWRT?DISPLAY

?PR?_TIMETICK?STATE_TIMERSETTING                 -----    -----      -----    -----
  +--> ?PR?_STATE_TRANSITIONTO?FSM

?PR?_MOTORCTR?STATE_TIMERSETTING                 -----    -----      -----    -----
  +--> ?PR?MOTOR_STOP?MOTOR

?CO?STATE_TIMERFNSETTING                         -----    -----      -----    -----
  +--> ?PR?_KEYACTIONDEAL?STATE_TIMERFNSETTING
  +--> ?PR?_DISPLAYCONTROL?STATE_TIMERFNSETTING
  +--> ?PR?_TASKEXE?STATE_TIMERFNSETTING
  +--> ?PR?_TIMETICK?STATE_TIMERFNSETTING
  +--> ?PR?_MOTORCTR?STATE_TIMERFNSETTING
  +--> ?PR?_IRDATADEAL?STATE_TIMERFNSETTING
  +--> ?PR?_RXDATADEAL?STATE_TIMERFNSETTING
  +--> ?PR?_ENTEREVENTDEAL?STATE_TIMERFNSETTING
BL51 BANKED LINKER/LOCATER V6.22                                                      10/29/2015  16:57:16  PAGE 11


  +--> ?PR?_EXITEVENTDEAL?STATE_TIMERFNSETTING

?PR?_KEYACTIONDEAL?STATE_TIMERFNSETTING          -----    -----      -----    -----
  +--> ?PR?_BUZZ_SET?BUZZER

?PR?_TIMETICK?STATE_TIMERFNSETTING               -----    -----      -----    -----
  +--> ?PR?_STATE_TRANSITIONTO?FSM

?PR?_MOTORCTR?STATE_TIMERFNSETTING               -----    -----      -----    -----
  +--> ?PR?MOTOR_STOP?MOTOR

?PR?PROTOCOL_ENTERATMODE?PROTOCOL                -----    -----      -----    -----
  +--> ?PR?_ENQUEUE?FIFO
  +--> ?PR?UART_SENDSTARTUP?UART

?PR?_ENQUEUE?FIFO                                -----    -----      01BFH    0004H
  +--> ?PR?_QUEUEISFULL?FIFO

?PR?_QUEUEISFULL?FIFO                            -----    -----      01C3H    0003H

?PR?UART_SENDSTARTUP?UART                        -----    -----      -----    -----
  +--> ?PR?_QUEUELEN?FIFO
  +--> ?PR?_DEQUEUE?FIFO

?PR?_DEQUEUE?FIFO                                -----    -----      01BFH    0004H
  +--> ?PR?_QUEUEISEMPTY?FIFO

?PR?_DISPLAYCONTROL?STATE_STANDBY                -----    -----      -----    -----
  +--> ?PR?_DISPLAY_DUSTDATA?DISPLAY
  +--> ?PR?_DISPLAY_SHOWRT?DISPLAY

?PR?_TIMETICK?STATE_STANDBY                      -----    -----      -----    -----
  +--> ?PR?PROTOCOL_RESETWIFIMODE?PROTOCOL
  +--> ?CO?SYSTEM
  +--> ?PR?_BUZZ_SET?BUZZER
  +--> ?CO?STATE_WORK
  +--> ?PR?_STATE_TRANSITIONTO?FSM

?PR?PROTOCOL_RESETWIFIMODE?PROTOCOL              -----    -----      -----    -----
  +--> ?PR?_ENQUEUE?FIFO
  +--> ?PR?UART_SENDSTARTUP?UART

?PR?_MOTORCTR?STATE_STANDBY                      -----    -----      -----    -----
  +--> ?PR?MOTOR_STOP?MOTOR

?PR?_IRDATADEAL?STATE_STANDBY                    -----    -----      -----    -----
  +--> ?PR?_BUZZ_SET?BUZZER
  +--> ?CO?STATE_WORK
  +--> ?PR?_STATE_TRANSITIONTO?FSM

?PR?_ENTEREVENTDEAL?STATE_STANDBY                -----    -----      -----    -----
  +--> ?PR?SYS_UPDATETIMERONINDEX?SYSTEM

?PR?SYS_UPDATETIMERONINDEX?SYSTEM                -----    -----      01BAH    0005H
  +--> ?CO?SYSTEM

*** NEW ROOT ***************************************************
BL51 BANKED LINKER/LOCATER V6.22                                                      10/29/2015  16:57:16  PAGE 12



?PR?INT_BIT?IT                                   -----    -----      -----    -----
  +--> ?PR?DISPLAY_LEDDRIVE?DISPLAY

?PR?DISPLAY_LEDDRIVE?DISPLAY                     0021H.4  0000H.1    -----    -----

*** NEW ROOT ***************************************************

?C_C51STARTUP                                    -----    -----      -----    -----
  +--> ?PR?MAIN?MAIN
  +--> ?C_INITSEG

?PR?MAIN?MAIN                                    -----    -----      -----    -----
  +--> ?PR?INITALL?MAIN
  +--> ?PR?UART_RXDATSDEAL?UART
  +--> ?PR?_UTILS_GETADVALUE?HUMIDITY
  +--> ?PR?KEY_ACTIONDETECT?KEY
  +--> ?PR?DISPLAY_LEDDRIVE?DISPLAY
  +--> ?PR?BUZZ_CTR?BUZZER
  +--> ?PR?DUST_DATAUPDATE?DUST
  +--> ?PR?MOTOR_CTR?MOTOR
  +--> ?PR?SYS_LOADCTR?SYSTEM
  +--> ?PR?SYS_ENTERSTOPMODE?SYSTEM
  +--> ?PR?DISPLAY_CTR?DISPLAY
  +--> ?PR?HUMIDITY_GETCURRENTT?HUMIDITY
  +--> ?PR?HUMIDITY_GETCURRENTH?HUMIDITY
  +--> ?PR?DUST_LEVELUPDATE?DUST

?PR?UART_RXDATSDEAL?UART                         -----    -----      -----    -----
  +--> ?PR?PROTOCOL_TASK?PROTOCOL

?PR?PROTOCOL_TASK?PROTOCOL                       -----    -----      01B6H    0004H
  +--> ?PR?CMD_DUMMY_DEAL?PROTOCOL
  +--> ?CO?PROTOCOL

?CO?PROTOCOL                                     -----    -----      -----    -----
  +--> ?PR?CMD_GET_SYS_STA_DEAL?PROTOCOL
  +--> ?PR?CMD_POWER_CTR_DEAL?PROTOCOL
  +--> ?PR?CMD_FAN_CTR_DEAL?PROTOCOL
  +--> ?PR?CMD_FIX_CTR_DEAL?PROTOCOL
  +--> ?PR?CMD_CLEAN_CTR_DEAL?PROTOCOL
  +--> ?PR?CMD_AION_CTR_DEAL?PROTOCOL
  +--> ?PR?CMD_UV_CTR_DEAL?PROTOCOL
  +--> ?PR?CMD_TIMER_CTR_DEAL?PROTOCOL
  +--> ?PR?CMD_GET_PM_DATAS_DEAL?PROTOCOL
  +--> ?PR?CMD_GET_ENE_DATAS_DEAL?PROTOCOL
  +--> ?PR?CMD_RT_SET_DEAL?PROTOCOL
  +--> ?PR?CMD_MEM_SET_DEAL?PROTOCOL
  +--> ?PR?CMD_REST_DEAL?PROTOCOL
  +--> ?PR?CMD_GET_DEVICE_INFO_DEAL?PROTOCOL
  +--> ?PR?CMD_WIFI_STA_CHANGE_DEAL?PROTOCOL

?PR?CMD_GET_SYS_STA_DEAL?PROTOCOL                -----    -----      -----    -----
  +--> ?PR?_PROTOCOL_STARESP?PROTOCOL

?PR?_PROTOCOL_STARESP?PROTOCOL                   -----    -----      01BAH    0002H
  +--> ?PR?_ENQUEUE?FIFO
BL51 BANKED LINKER/LOCATER V6.22                                                      10/29/2015  16:57:16  PAGE 13


  +--> ?PR?UART_SENDSTARTUP?UART

?PR?CMD_POWER_CTR_DEAL?PROTOCOL                  -----    -----      -----    -----
  +--> ?CO?STATE_WORK
  +--> ?CO?STATE_STANDBY
  +--> ?PR?_STATE_TRANSITIONTO?FSM
  +--> ?PR?_BUZZ_SET?BUZZER
  +--> ?PR?_PROTOCOL_STARESP?PROTOCOL

?PR?CMD_FAN_CTR_DEAL?PROTOCOL                    -----    -----      -----    -----
  +--> ?PR?_BUZZ_SET?BUZZER
  +--> ?PR?_PROTOCOL_STARESP?PROTOCOL

?PR?CMD_FIX_CTR_DEAL?PROTOCOL                    -----    -----      -----    -----
  +--> ?PR?_BUZZ_SET?BUZZER
  +--> ?PR?_PROTOCOL_STARESP?PROTOCOL

?PR?CMD_CLEAN_CTR_DEAL?PROTOCOL                  -----    -----      -----    -----
  +--> ?PR?_BUZZ_SET?BUZZER
  +--> ?PR?_PROTOCOL_STARESP?PROTOCOL

?PR?CMD_AION_CTR_DEAL?PROTOCOL                   -----    -----      -----    -----
  +--> ?PR?_BUZZ_SET?BUZZER
  +--> ?PR?_PROTOCOL_STARESP?PROTOCOL

?PR?CMD_UV_CTR_DEAL?PROTOCOL                     -----    -----      -----    -----
  +--> ?PR?_BUZZ_SET?BUZZER
  +--> ?PR?_PROTOCOL_STARESP?PROTOCOL

?PR?CMD_TIMER_CTR_DEAL?PROTOCOL                  -----    -----      -----    -----
  +--> ?PR?SYS_UPDATETIMERONINDEX?SYSTEM
  +--> ?PR?_BUZZ_SET?BUZZER
  +--> ?PR?_PROTOCOL_STARESP?PROTOCOL

?PR?CMD_GET_PM_DATAS_DEAL?PROTOCOL               -----    -----      01BAH    0005H
  +--> ?PR?_ENQUEUE?FIFO
  +--> ?PR?_BUZZ_SET?BUZZER
  +--> ?PR?UART_SENDSTARTUP?UART

?PR?CMD_GET_ENE_DATAS_DEAL?PROTOCOL              -----    -----      01BAH    0002H
  +--> ?PR?_ENQUEUE?FIFO
  +--> ?PR?_BUZZ_SET?BUZZER
  +--> ?PR?UART_SENDSTARTUP?UART

?PR?CMD_RT_SET_DEAL?PROTOCOL                     -----    -----      -----    -----
  +--> ?PR?_BUZZ_SET?BUZZER
  +--> ?PR?_PROTOCOL_STARESP?PROTOCOL

?PR?CMD_MEM_SET_DEAL?PROTOCOL                    -----    -----      -----    -----
  +--> ?CO?STATE_STANDBY
  +--> ?PR?_STATE_TRANSITIONTO?FSM
  +--> ?PR?_BUZZ_SET?BUZZER
  +--> ?PR?_PROTOCOL_STARESP?PROTOCOL

?PR?CMD_REST_DEAL?PROTOCOL                       -----    -----      -----    -----
  +--> ?PR?SYS_RESET?SYSTEM
  +--> ?CO?STATE_STANDBY
BL51 BANKED LINKER/LOCATER V6.22                                                      10/29/2015  16:57:16  PAGE 14


  +--> ?PR?_STATE_TRANSITIONTO?FSM
  +--> ?PR?_BUZZ_SET?BUZZER
  +--> ?PR?_PROTOCOL_STARESP?PROTOCOL

?PR?CMD_GET_DEVICE_INFO_DEAL?PROTOCOL            -----    -----      01BAH    0001H
  +--> ?PR?_ENQUEUE?FIFO
  +--> ?PR?UART_SENDSTARTUP?UART

?PR?KEY_ACTIONDETECT?KEY                         -----    -----      01B6H    0001H
  +--> ?PR?KEY_READ?KEY

?PR?DUST_DATAUPDATE?DUST                         -----    -----      -----    -----
  +--> ?PR?DUST_GETRTLEVEL?DUST

?PR?MOTOR_CTR?MOTOR                              -----    -----      01B6H    0006H

?PR?DISPLAY_CTR?DISPLAY                          -----    -----      -----    -----
  +--> ?PR?_DISPLAY_SETALL?DISPLAY
  +--> ?PR?_AIP1944_WRITEDISPDATAS?AIP1944

?PR?_AIP1944_WRITEDISPDATAS?AIP1944              -----    -----      01B6H    0005H
  +--> ?PR?_AIP1944_WRITEBYTE?AIP1944

?PR?HUMIDITY_GETCURRENTT?HUMIDITY                -----    -----      -----    -----
  +--> ?PR?_UTILS_GETADVALUE?HUMIDITY
  +--> ?PR?_HUMIDITY_AD2T?HUMIDITY

?PR?HUMIDITY_GETCURRENTH?HUMIDITY                -----    -----      01B6H    0001H
  +--> ?PR?_HUMIDITY_AD2H?HUMIDITY

?PR?DUST_LEVELUPDATE?DUST                        -----    -----      -----    -----
  +--> ?PR?DUST_GETRTLEVEL?DUST

?C_INITSEG                                       -----    -----      -----    -----
  +--> ?CO?FSM

?CO?FSM                                          -----    -----      -----    -----
  +--> ?PR?TASK_DONOTHING?FSM



SYMBOL TABLE OF MODULE:  YTN-E608-WIFI-6432 (IT)

  VALUE           TYPE          NAME
  ----------------------------------

  -------         MODULE        IT
  C:0000H         SYMBOL        _ICE_DUMMY_
  D:0080H         PUBLIC        P0
  C:50AFH         PUBLIC        INT_Timer0
  D:0088H         PUBLIC        P1
  D:0090H         PUBLIC        P2
  D:0098H         PUBLIC        P3
  D:00A0H         PUBLIC        P4
  D:00B0H         PUBLIC        P5
  D:008DH         PUBLIC        WDTCR
  D:00A8H         PUBLIC        IE
BL51 BANKED LINKER/LOCATER V6.22                                                      10/29/2015  16:57:16  PAGE 15


  D:00B2H         PUBLIC        T0CR
  C:3E4CH         PUBLIC        INT_USI1_Rx
  C:40D5H         PUBLIC        INT_USI1_Tx
  C:256CH         PUBLIC        INT_BIT
  D:0087H         PUBLIC        PCON
  B:0090H.2       PUBLIC        P22
  B:0090H.3       PUBLIC        P23
  D:00F5H         PUBLIC        USI1DR
  D:00ABH         PUBLIC        IE3
  X:01F6H         PUBLIC        SysTick_4ms
  X:01F7H         SYMBOL        pgCntH
  I:0011H         PUBLIC        SquGen_Cnt
  D:00B3H         PUBLIC        T0CNT
  I:0012H         SYMBOL        IR_Flags
  D:00EAH         PUBLIC        USI1CR2
  C:3047H         PUBLIC        INT_WT
  -------         PROC          INT_USI1_RX
  -------         DO            
  D:0007H         SYMBOL        len
  -------         ENDDO         
  C:3E4CH         LINE#         7
  C:3E69H         LINE#         12
  C:3E6FH         LINE#         15
  C:3E8AH         LINE#         16
  C:3EB1H         LINE#         19
  C:3ED5H         LINE#         20
  C:3EDBH         LINE#         21
  C:3EDBH         LINE#         22
  C:3EDDH         LINE#         23
  C:3EDDH         LINE#         24
  -------         ENDPROC       INT_USI1_RX
  -------         PROC          INT_USI1_TX
  C:40D5H         LINE#         26
  C:40F2H         LINE#         31
  C:410DH         LINE#         32
  C:4134H         LINE#         35
  C:4144H         LINE#         36
  C:4144H         LINE#         37
  C:4146H         LINE#         38
  C:4149H         LINE#         39
  C:4149H         LINE#         40
  -------         ENDPROC       INT_USI1_TX
  -------         PROC          INT_TIMER0
  C:50AFH         LINE#         43
  C:50B5H         LINE#         46
  C:50BBH         LINE#         47
  -------         ENDPROC       INT_TIMER0
  -------         PROC          INT_WT
  -------         DO            
  X:01F4H         SYMBOL        rt_05sCnt
  X:01F5H         SYMBOL        clearMemoryDataCnt
  -------         ENDDO         
  C:3047H         LINE#         51
  C:3064H         LINE#         58
  C:3079H         LINE#         59
  C:307CH         LINE#         60
  C:3081H         LINE#         62
BL51 BANKED LINKER/LOCATER V6.22                                                      10/29/2015  16:57:16  PAGE 16


  C:308BH         LINE#         63
  C:308BH         LINE#         64
  C:308DH         LINE#         65
  C:308FH         LINE#         66
  C:309EH         LINE#         67
  C:309EH         LINE#         68
  C:30A0H         LINE#         69
  C:30A0H         LINE#         71
  C:30A2H         LINE#         74
  C:30A4H         LINE#         77
  C:30AAH         LINE#         78
  C:30B0H         LINE#         79
  C:30B0H         LINE#         80
  C:30B2H         LINE#         82
  C:30B8H         LINE#         84
  C:30BEH         LINE#         85
  C:30C6H         LINE#         86
  C:30C6H         LINE#         87
  C:30CBH         LINE#         89
  C:30CDH         LINE#         91
  C:30D3H         LINE#         92
  C:30D9H         LINE#         93
  C:30D9H         LINE#         94
  C:30DBH         LINE#         96
  C:30E1H         LINE#         97
  C:30E6H         LINE#         98
  C:30E6H         LINE#         99
  C:30E8H         LINE#         100
  C:30E8H         LINE#         101
  C:30E8H         LINE#         102
  C:30E8H         LINE#         103
  C:30E8H         LINE#         106
  C:30EBH         LINE#         108
  C:30F0H         LINE#         109
  C:30F0H         LINE#         111
  C:30F3H         LINE#         112
  C:30F7H         LINE#         113
  C:30FBH         LINE#         115
  C:30FEH         LINE#         116
  C:3101H         LINE#         117
  C:3104H         LINE#         119
  C:3107H         LINE#         120
  C:310AH         LINE#         121
  C:310DH         LINE#         122
  C:3110H         LINE#         123
  C:3113H         LINE#         124
  C:3116H         LINE#         128
  C:311CH         LINE#         129
  C:3122H         LINE#         130
  C:3122H         LINE#         131
  C:3125H         LINE#         132
  C:3127H         LINE#         133
  C:3127H         LINE#         134
  C:3129H         LINE#         136
  C:3129H         LINE#         137
  C:312FH         LINE#         138
  C:312FH         LINE#         139
BL51 BANKED LINKER/LOCATER V6.22                                                      10/29/2015  16:57:16  PAGE 17


  C:3132H         LINE#         140
  C:3132H         LINE#         142
  C:3137H         LINE#         143
  C:3137H         LINE#         144
  -------         ENDPROC       INT_WT
  -------         PROC          INT_BIT
  -------         DO            
  I:0008H         SYMBOL        t_128usCnt
  I:0009H         SYMBOL        rx_mode
  I:000AH         SYMBOL        rxCount
  I:000CH         SYMBOL        dataCount
  I:000DH         SYMBOL        rxData
  I:000FH         SYMBOL        Dust_SignalLowHoldCnt
  -------         ENDDO         
  C:256CH         LINE#         172
  C:2589H         LINE#         185
  C:258EH         LINE#         186
  C:258EH         LINE#         187
  C:2594H         LINE#         188
  C:2597H         LINE#         190
  C:25A0H         LINE#         191
  C:25A0H         LINE#         192
  C:25A3H         LINE#         193
  C:25A6H         LINE#         196
  C:25ACH         LINE#         197
  C:25ACH         LINE#         199
  C:25BBH         LINE#         200
  C:25BBH         LINE#         201
  C:25BEH         LINE#         202
  C:25C2H         LINE#         203
  C:25C8H         LINE#         204
  C:25CFH         LINE#         205
  C:25CFH         LINE#         206
  C:25D1H         LINE#         208
  C:25D6H         LINE#         209
  C:25D6H         LINE#         210
  C:25E3H         LINE#         212
  C:25EFH         LINE#         213
  C:25EFH         LINE#         214
  C:25F5H         LINE#         215
  C:25F5H         LINE#         216
  C:25FCH         LINE#         218
  C:25FEH         LINE#         220
  C:2604H         LINE#         221
  C:2604H         LINE#         222
  C:2611H         LINE#         224
  C:2615H         LINE#         225
  C:261BH         LINE#         226
  C:261EH         LINE#         228
  C:2620H         LINE#         229
  C:2620H         LINE#         230
  C:2622H         LINE#         232
  C:2628H         LINE#         233
  C:2628H         LINE#         234
  C:2634H         LINE#         235
  C:2634H         LINE#         236
  C:2637H         LINE#         237
BL51 BANKED LINKER/LOCATER V6.22                                                      10/29/2015  16:57:16  PAGE 18


  C:263DH         LINE#         238
  C:2640H         LINE#         239
  C:2640H         LINE#         240
  C:2640H         LINE#         241
  C:2640H         LINE#         243
  C:2647H         LINE#         244
  C:2647H         LINE#         245
  C:264FH         LINE#         247
  C:265BH         LINE#         248
  C:265BH         LINE#         249
  C:2660H         LINE#         250
  C:2666H         LINE#         251
  C:266AH         LINE#         252
  C:266FH         LINE#         253
  C:266FH         LINE#         254
  C:266FH         LINE#         257
  C:2672H         LINE#         258
  C:2678H         LINE#         259
  C:2678H         LINE#         260
  C:267AH         LINE#         261
  C:267CH         LINE#         262
  C:267EH         LINE#         263
  C:2686H         LINE#         264
  C:2686H         LINE#         265
  C:2688H         LINE#         266
  C:268AH         LINE#         267
  C:268EH         LINE#         268
  C:268EH         LINE#         269
  C:2690H         LINE#         270
  C:2690H         LINE#         271
  C:2690H         LINE#         274
  C:2695H         LINE#         275
  C:2695H         LINE#         276
  C:269FH         LINE#         277
  C:269FH         LINE#         278
  C:26A7H         LINE#         279
  C:26A9H         LINE#         280
  C:26A9H         LINE#         281
  C:26B0H         LINE#         282
  C:26B2H         LINE#         284
  C:26B2H         LINE#         285
  C:26BAH         LINE#         286
  C:26BAH         LINE#         291
  C:26BDH         LINE#         292
  C:26C3H         LINE#         293
  C:26C3H         LINE#         294
  C:26C5H         LINE#         296
  C:26CBH         LINE#         298
  C:26D0H         LINE#         300
  C:26D6H         LINE#         301
  C:26D6H         LINE#         302
  C:26D9H         LINE#         303
  C:26DCH         LINE#         304
  C:26DCH         LINE#         305
  C:26DEH         LINE#         306
  C:26DEH         LINE#         307
  C:26DEH         LINE#         308
BL51 BANKED LINKER/LOCATER V6.22                                                      10/29/2015  16:57:16  PAGE 19


  C:26DEH         LINE#         310
  C:26E1H         LINE#         311
  C:26E1H         LINE#         312
  C:26E9H         LINE#         313
  C:26E9H         LINE#         314
  C:26ECH         LINE#         315
  C:26ECH         LINE#         316
  C:26ECH         LINE#         317
  -------         ENDPROC       INT_BIT
  -------         ENDMOD        IT

  -------         MODULE        ?C_STARTUP
  C:403BH         SEGMENT       ?C_C51STARTUP
  I:0025H         SEGMENT       ?STACK
  C:0000H         PUBLIC        ?C_STARTUP
  D:00E0H         SYMBOL        ACC
  D:00F0H         SYMBOL        B
  D:0083H         SYMBOL        DPH
  D:0082H         SYMBOL        DPL
  N:0000H         SYMBOL        IBPSTACK
  N:0100H         SYMBOL        IBPSTACKTOP
  N:0100H         SYMBOL        IDATALEN
  C:403EH         SYMBOL        IDATALOOP
  N:0000H         SYMBOL        PBPSTACK
  N:0000H         SYMBOL        PBPSTACKTOP
  N:0000H         SYMBOL        PDATALEN
  N:0000H         SYMBOL        PDATASTART
  N:0000H         SYMBOL        PPAGE
  N:0000H         SYMBOL        PPAGEENABLE
  D:00A0H         SYMBOL        PPAGE_SFR
  D:0081H         SYMBOL        SP
  C:403BH         SYMBOL        STARTUP1
  N:0000H         SYMBOL        XBPSTACK
  N:0000H         SYMBOL        XBPSTACKTOP
  N:02E5H         SYMBOL        XDATALEN
  C:4049H         SYMBOL        XDATALOOP
  N:001BH         SYMBOL        XDATASTART
  C:0000H         LINE#         94
  C:403BH         LINE#         101
  C:403DH         LINE#         102
  C:403EH         LINE#         103
  C:403FH         LINE#         104
  C:4041H         LINE#         108
  C:4044H         LINE#         109
  C:4046H         LINE#         111
  C:4048H         LINE#         115
  C:4049H         LINE#         116
  C:404AH         LINE#         117
  C:404BH         LINE#         118
  C:404DH         LINE#         119
  C:404FH         LINE#         153
  C:4052H         LINE#         157
  -------         ENDMOD        ?C_STARTUP

  -------         MODULE        MAIN
  C:0000H         SYMBOL        _ICE_DUMMY_
  D:008DH         PUBLIC        WDTCR
BL51 BANKED LINKER/LOCATER V6.22                                                      10/29/2015  16:57:16  PAGE 20


  D:00A8H         PUBLIC        IE
  C:3924H         PUBLIC        main
  C:4BC6H         PUBLIC        initAll
  -------         PROC          INITALL
  C:4BC6H         LINE#         3
  C:4BC6H         LINE#         4
  C:4BC6H         LINE#         5
  C:4BC9H         LINE#         6
  C:4BCCH         LINE#         7
  C:4BCFH         LINE#         8
  C:4BD2H         LINE#         9
  C:4BD5H         LINE#         10
  C:4BD8H         LINE#         12
  C:4BDEH         LINE#         13
  C:4BE0H         LINE#         17
  C:4BEBH         LINE#         21
  C:4BF4H         LINE#         23
  C:4BF7H         LINE#         24
  -------         ENDPROC       INITALL
  -------         PROC          MAIN
  -------         DO            
  I:0013H         SYMBOL        taskIndex
  I:0014H         SYMBOL        taskIndexExt
  I:0015H         SYMBOL        HSampleT_Cnt
  -------         ENDDO         
  C:3924H         LINE#         26
  C:3924H         LINE#         27
  C:3924H         LINE#         33
  C:3927H         LINE#         35
  C:3927H         LINE#         36
  C:3927H         LINE#         37
  C:392AH         LINE#         39
  C:392DH         LINE#         41
  C:3935H         LINE#         42
  C:3935H         LINE#         43
  C:393CH         LINE#         44
  C:393CH         LINE#         45
  C:3945H         LINE#         46
  C:3949H         LINE#         47
  C:3949H         LINE#         48
  C:3949H         LINE#         50
  C:394FH         LINE#         51
  C:394FH         LINE#         52
  C:3951H         LINE#         54
  C:3954H         LINE#         55
  C:3954H         LINE#         56
  C:3956H         LINE#         58
  C:3970H         LINE#         59
  C:3970H         LINE#         61
  C:3973H         LINE#         62
  C:3975H         LINE#         64
  C:3977H         LINE#         66
  C:398BH         LINE#         67
  C:398BH         LINE#         68
  C:398BH         LINE#         69
  C:398EH         LINE#         70
  C:3993H         LINE#         71
BL51 BANKED LINKER/LOCATER V6.22                                                      10/29/2015  16:57:16  PAGE 21


  C:3995H         LINE#         72
  C:3995H         LINE#         73
  C:3998H         LINE#         74
  C:399AH         LINE#         75
  C:399AH         LINE#         76
  C:399DH         LINE#         77
  C:399FH         LINE#         78
  C:399FH         LINE#         79
  C:39A2H         LINE#         80
  C:39A4H         LINE#         81
  C:39A4H         LINE#         82
  C:39A7H         LINE#         83
  C:39AAH         LINE#         84
  C:39AAH         LINE#         85
  C:39AEH         LINE#         87
  C:39AEH         LINE#         88
  C:39AEH         LINE#         90
  C:39B9H         LINE#         91
  C:39B9H         LINE#         92
  C:39BBH         LINE#         94
  C:39BEH         LINE#         96
  C:39C1H         LINE#         97
  C:39C4H         LINE#         98
  C:39C7H         LINE#         100
  C:39E1H         LINE#         102
  C:39E7H         LINE#         103
  C:39E7H         LINE#         104
  C:39EAH         LINE#         105
  C:39EAH         LINE#         107
  C:39F0H         LINE#         108
  C:39F0H         LINE#         109
  C:39F2H         LINE#         110
  C:39F2H         LINE#         111
  C:39F2H         LINE#         112
  C:39F2H         LINE#         113
  -------         ENDPROC       MAIN
  -------         ENDMOD        MAIN

  -------         MODULE        BSP_INIT
  C:0000H         SYMBOL        _ICE_DUMMY_
  D:0080H         PUBLIC        P0
  D:0088H         PUBLIC        P1
  D:0090H         PUBLIC        P2
  D:0098H         PUBLIC        P3
  D:00A0H         PUBLIC        P4
  D:00B0H         PUBLIC        P5
  D:008DH         PUBLIC        WDTCR
  C:51A1H         SYMBOL        WDT_init
  D:008EH         PUBLIC        WDTDR
  D:00DEH         PUBLIC        P0DB
  D:0097H         PUBLIC        BUZCR
  C:51D2H         SYMBOL        BUZ_init
  D:008FH         PUBLIC        BUZDR
  D:00D8H         PUBLIC        LVRCR
  D:00A8H         PUBLIC        IE
  D:0091H         PUBLIC        P0OD
  D:0092H         PUBLIC        P1OD
BL51 BANKED LINKER/LOCATER V6.22                                                      10/29/2015  16:57:16  PAGE 22


  D:0093H         PUBLIC        P2OD
  D:0094H         PUBLIC        P4OD
  D:00A1H         PUBLIC        P0IO
  D:00B2H         PUBLIC        T0CR
  D:00B1H         PUBLIC        P1IO
  D:00B4H         PUBLIC        T0DR
  D:00B9H         PUBLIC        P2IO
  D:00C1H         PUBLIC        P3IO
  D:00C9H         PUBLIC        P4IO
  D:00D1H         PUBLIC        P5IO
  C:51D9H         SYMBOL        clock_init
  D:00BDH         PUBLIC        T1ADRH
  D:00ACH         PUBLIC        P0PU
  D:009DH         PUBLIC        ADCCRH
  D:00BFH         PUBLIC        T1BDRH
  D:00ADH         PUBLIC        P1PU
  D:00AEH         PUBLIC        P2PU
  D:00AFH         PUBLIC        P3PU
  D:00F3H         PUBLIC        USI1BD
  D:00BCH         PUBLIC        T1ADRL
  D:00A3H         PUBLIC        P4PU
  D:009CH         PUBLIC        ADCCRL
  D:00BEH         PUBLIC        T1BDRL
  D:0095H         PUBLIC        P5PU
  D:008AH         PUBLIC        SCCR
  C:50C2H         SYMBOL        _BUZ_OnOff
  D:009BH         PUBLIC        LCDCCR
  D:009AH         PUBLIC        LCDCRH
  D:00D3H         PUBLIC        P0FSRH
  D:0099H         PUBLIC        LCDCRL
  D:00D5H         PUBLIC        P1FSRH
  D:00D7H         PUBLIC        P2FSRH
  D:00D2H         PUBLIC        P0FSRL
  D:00D4H         PUBLIC        P1FSRL
  D:00D6H         PUBLIC        P2FSRL
  D:00DFH         PUBLIC        P15DB
  D:00AAH         PUBLIC        IE2
  D:00ABH         PUBLIC        IE3
  D:0096H         PUBLIC        WTCR
  C:516CH         SYMBOL        WT_init
  D:0089H         PUBLIC        WTDR
  C:515FH         SYMBOL        Timer0_init
  C:0003H         SYMBOL        Timer1_init
  C:501AH         SYMBOL        UART_init
  C:51E6H         SYMBOL        WDT_clear
  C:5116H         SYMBOL        _ADC_start
  C:4BF8H         PUBLIC        BSP_Init
  C:4795H         SYMBOL        port_init
  C:51CBH         SYMBOL        ADC_init
  D:00BBH         PUBLIC        T1CRH
  D:00BAH         PUBLIC        T1CRL
  C:51B3H         SYMBOL        LCD_init
  D:00E9H         PUBLIC        USI1CR1
  D:00EAH         PUBLIC        USI1CR2
  D:00EBH         PUBLIC        USI1CR3
  D:00EEH         PUBLIC        P3FSR
  D:00EFH         PUBLIC        P4FSR
BL51 BANKED LINKER/LOCATER V6.22                                                      10/29/2015  16:57:16  PAGE 23


  D:00FFH         PUBLIC        P5FSR
  D:008BH         PUBLIC        BITCR
  C:00A6H         SYMBOL        BIT_init
  D:00C8H         PUBLIC        OSCCR
  -------         PROC          ADC_INIT
  C:51CBH         LINE#         4
  C:51CBH         LINE#         5
  C:51CBH         LINE#         7
  C:51CEH         LINE#         8
  C:51D1H         LINE#         9
  -------         ENDPROC       ADC_INIT
  -------         PROC          _ADC_START
  D:0007H         SYMBOL        ch
  C:5116H         LINE#         11
  C:5116H         LINE#         12
  C:5116H         LINE#         14
  C:5121H         LINE#         15
  C:5124H         LINE#         16
  -------         ENDPROC       _ADC_START
  -------         PROC          BIT_INIT
  C:00A6H         LINE#         18
  C:00A6H         LINE#         19
  C:00A6H         LINE#         21
  C:00A9H         LINE#         22
  C:00ACH         LINE#         23
  C:00AFH         LINE#         24
  C:00B2H         LINE#         25
  -------         ENDPROC       BIT_INIT
  -------         PROC          _BUZ_ONOFF
  D:0007H         SYMBOL        On
  C:50C2H         LINE#         27
  C:50C2H         LINE#         28
  C:50C2H         LINE#         30
  C:50D3H         LINE#         31
  -------         ENDPROC       _BUZ_ONOFF
  -------         PROC          BUZ_INIT
  C:51D2H         LINE#         33
  C:51D2H         LINE#         34
  C:51D2H         LINE#         37
  C:51D5H         LINE#         38
  C:51D8H         LINE#         39
  -------         ENDPROC       BUZ_INIT
  -------         PROC          LCD_INIT
  C:51B3H         LINE#         41
  C:51B3H         LINE#         42
  C:51B3H         LINE#         45
  C:51B6H         LINE#         46
  C:51B8H         LINE#         47
  C:51BAH         LINE#         48
  -------         ENDPROC       LCD_INIT
  -------         PROC          TIMER0_INIT
  C:515FH         LINE#         50
  C:515FH         LINE#         51
  C:515FH         LINE#         54
  C:5162H         LINE#         55
  C:5165H         LINE#         56
  C:5168H         LINE#         57
BL51 BANKED LINKER/LOCATER V6.22                                                      10/29/2015  16:57:16  PAGE 24


  C:516BH         LINE#         58
  -------         ENDPROC       TIMER0_INIT
  -------         PROC          TIMER1_INIT
  C:0003H         LINE#         60
  C:0003H         LINE#         61
  C:0003H         LINE#         65
  C:0006H         LINE#         66
  C:0009H         LINE#         67
  C:000CH         LINE#         70
  C:000FH         LINE#         71
  C:0011H         LINE#         72
  C:0014H         LINE#         73
  C:0017H         LINE#         74
  C:001AH         LINE#         75
  -------         ENDPROC       TIMER1_INIT
  -------         PROC          UART_INIT
  C:501AH         LINE#         77
  C:501AH         LINE#         78
  C:501AH         LINE#         81
  C:501DH         LINE#         82
  C:5020H         LINE#         83
  C:5023H         LINE#         84
  C:5026H         LINE#         85
  C:5029H         LINE#         86
  C:502CH         LINE#         87
  C:502FH         LINE#         88
  -------         ENDPROC       UART_INIT
  -------         PROC          WDT_CLEAR
  C:51E6H         LINE#         90
  C:51E6H         LINE#         91
  C:51E6H         LINE#         92
  C:51E9H         LINE#         93
  -------         ENDPROC       WDT_CLEAR
  -------         PROC          WDT_INIT
  C:51A1H         LINE#         95
  C:51A1H         LINE#         96
  C:51A1H         LINE#         98
  C:51A4H         LINE#         99
  C:51A7H         LINE#         101
  -------         ENDPROC       WDT_INIT
  -------         PROC          WT_INIT
  C:516CH         LINE#         104
  C:516CH         LINE#         105
  C:516CH         LINE#         107
  C:516FH         LINE#         108
  C:5172H         LINE#         109
  C:5175H         LINE#         110
  C:5178H         LINE#         111
  -------         ENDPROC       WT_INIT
  -------         PROC          CLOCK_INIT
  C:51D9H         LINE#         113
  C:51D9H         LINE#         114
  C:51D9H         LINE#         116
  C:51DCH         LINE#         117
  C:51DFH         LINE#         118
  -------         ENDPROC       CLOCK_INIT
  -------         PROC          PORT_INIT
BL51 BANKED LINKER/LOCATER V6.22                                                      10/29/2015  16:57:16  PAGE 25


  C:4795H         LINE#         120
  C:4795H         LINE#         121
  C:4795H         LINE#         158
  C:4798H         LINE#         159
  C:479BH         LINE#         160
  C:479EH         LINE#         161
  C:47A0H         LINE#         162
  C:47A2H         LINE#         164
  C:47A5H         LINE#         165
  C:47A7H         LINE#         166
  C:47A9H         LINE#         167
  C:47ABH         LINE#         168
  C:47ADH         LINE#         170
  C:47B0H         LINE#         171
  C:47B3H         LINE#         172
  C:47B5H         LINE#         173
  C:47B7H         LINE#         175
  C:47BAH         LINE#         176
  C:47BCH         LINE#         177
  C:47BEH         LINE#         179
  C:47C1H         LINE#         180
  C:47C4H         LINE#         181
  C:47C6H         LINE#         182
  C:47C8H         LINE#         184
  C:47CBH         LINE#         185
  C:47CDH         LINE#         186
  C:47CFH         LINE#         189
  C:47D1H         LINE#         190
  C:47D4H         LINE#         191
  C:47D6H         LINE#         192
  C:47D9H         LINE#         193
  C:47DBH         LINE#         194
  C:47DEH         LINE#         195
  C:47E0H         LINE#         196
  C:47E2H         LINE#         197
  C:47E5H         LINE#         198
  -------         ENDPROC       PORT_INIT
  -------         PROC          BSP_INIT
  C:4BF8H         LINE#         200
  C:4BF8H         LINE#         201
  C:4BF8H         LINE#         202
  C:4BFBH         LINE#         204
  C:4BFEH         LINE#         205
  C:4C01H         LINE#         206
  C:4C04H         LINE#         207
  C:4C07H         LINE#         208
  C:4C07H         LINE#         209
  C:4C07H         LINE#         210
  C:4C0CH         LINE#         211
  C:4C0CH         LINE#         212
  C:4C0FH         LINE#         213
  C:4C11H         LINE#         215
  C:4C11H         LINE#         216
  C:4C11H         LINE#         217
  C:4C11H         LINE#         218
  C:4C11H         LINE#         220
  C:4C14H         LINE#         221
BL51 BANKED LINKER/LOCATER V6.22                                                      10/29/2015  16:57:16  PAGE 26


  C:4C17H         LINE#         222
  C:4C1AH         LINE#         223
  C:4C1DH         LINE#         224
  C:4C20H         LINE#         225
  C:4C23H         LINE#         226
  -------         ENDPROC       BSP_INIT
  -------         ENDMOD        BSP_INIT

  -------         MODULE        AIP1944
  C:0000H         SYMBOL        _ICE_DUMMY_
  C:4F3DH         PUBLIC        _AIP1944_WriteByte
  B:00A0H.0       PUBLIC        P40
  B:00A0H.1       PUBLIC        P41
  B:00A0H.2       PUBLIC        P42
  C:47E6H         PUBLIC        _Aip1944_WriteDispDatas
  X:020AH         PUBLIC        Aip1944_BrightnessLevel
  -------         PROC          _AIP1944_WRITEBYTE
  D:0007H         SYMBOL        _byte
  -------         DO            
  D:0006H         SYMBOL        i
  -------         ENDDO         
  C:4F3DH         LINE#         36
  C:4F3DH         LINE#         37
  C:4F3DH         LINE#         40
  C:4F3FH         LINE#         41
  C:4F3FH         LINE#         42
  C:4F43H         LINE#         43
  C:4F43H         LINE#         44
  C:4F45H         LINE#         45
  C:4F47H         LINE#         47
  C:4F47H         LINE#         48
  C:4F49H         LINE#         49
  C:4F49H         LINE#         51
  C:4F4BH         LINE#         53
  C:4F4FH         LINE#         55
  C:4F51H         LINE#         56
  C:4F56H         LINE#         57
  -------         ENDPROC       _AIP1944_WRITEBYTE
  -------         PROC          _AIP1944_WRITEDISPDATAS
  X:01B6H         SYMBOL        dats
  D:0005H         SYMBOL        len
  X:01BAH         SYMBOL        addr
  -------         DO            
  D:0004H         SYMBOL        i
  -------         ENDDO         
  C:47E6H         LINE#         59
  C:47F1H         LINE#         60
  C:47F1H         LINE#         63
  C:47F3H         LINE#         64
  C:47F8H         LINE#         65
  C:47FAH         LINE#         66
  C:47FCH         LINE#         67
  C:4806H         LINE#         68
  C:480DH         LINE#         69
  C:480DH         LINE#         70
  C:4824H         LINE#         71
  C:4827H         LINE#         72
BL51 BANKED LINKER/LOCATER V6.22                                                      10/29/2015  16:57:16  PAGE 27


  C:4829H         LINE#         74
  C:482BH         LINE#         75
  C:4833H         LINE#         76
  C:4835H         LINE#         77
  -------         ENDPROC       _AIP1944_WRITEDISPDATAS
  -------         ENDMOD        AIP1944

  -------         MODULE        DISPLAY
  C:0000H         SYMBOL        _ICE_DUMMY_
  D:0090H         PUBLIC        P2
  D:0098H         PUBLIC        P3
  C:5087H         PUBLIC        _Display_SetAll
  C:39F5H         PUBLIC        _Display_ShowRT
  C:2C92H         PUBLIC        PM_COM10_E_nums
  C:2CDBH         PUBLIC        RT_COM_H1_E_nums
  C:2CA6H         PUBLIC        PM_COM1_E1_nums
  C:2CB0H         PUBLIC        PM_COM1_E2_nums
  C:2C2EH         PUBLIC        H_COM10_nums
  C:2D12H         PUBLIC        RT_COM_M1_E_nums
  C:2C6AH         PUBLIC        PM_COM100_nums
  C:2CBAH         PUBLIC        RT_COM_H10_nums
  D:00B9H         PUBLIC        P2IO
  C:2CE6H         PUBLIC        RT_COM_M10_nums
  C:2C06H         PUBLIC        T_COM10_nums
  D:00C1H         PUBLIC        P3IO
  B:0022H.0       PUBLIC        Display_IsLowLight
  X:0157H         PUBLIC        Display_Datas
  C:3458H         PUBLIC        _Display_ShowNumInRTCArea
  C:2C4CH         PUBLIC        H_COM1_EXT_nums
  C:4582H         PUBLIC        _Display_ShowHumidity
  C:2C9CH         PUBLIC        PM_COM1_nums
  C:2CC5H         PUBLIC        RT_COM_H10_E_nums
  C:2C24H         PUBLIC        T_COM1_EXT_nums
  C:2C56H         PUBLIC        PM_COM1000_nums
  C:48CCH         PUBLIC        _Display_CircleRun
  C:3B8FH         PUBLIC        Display_LedDrive
  C:499CH         PUBLIC        _Display_DustLevel
  C:3152H         PUBLIC        _Display_DustData
  C:2C42H         PUBLIC        H_COM1_nums
  C:2C38H         PUBLIC        H_COM10_EXT_nums
  C:2C88H         PUBLIC        PM_COM10_nums
  C:4B60H         PUBLIC        Display_Ctr
  C:2CD0H         PUBLIC        RT_COM_H1_nums
  B:0022H.1       PUBLIC        Display_FlashOn
  C:2D07H         PUBLIC        RT_COM_M1_nums
  C:2C60H         PUBLIC        PM_COM1000_E_nums
  C:2C1AH         PUBLIC        T_COM1_nums
  C:2C74H         PUBLIC        PM_COM100_E1_nums
  C:2C7EH         PUBLIC        PM_COM100_E2_nums
  C:2C10H         PUBLIC        T_COM10_EXT_nums
  C:2CF1H         PUBLIC        RT_COM_M10_E1_nums
  C:2CFCH         PUBLIC        RT_COM_M10_E2_nums
  C:4D29H         PUBLIC        Display_SetLine
  C:4523H         PUBLIC        _Display_ShowTemperature
  X:0196H         PUBLIC        Display_LedsEn
  C:006EH         PUBLIC        _Display_SpLevel
  -------         PROC          _DISPLAY_SETALL
BL51 BANKED LINKER/LOCATER V6.22                                                      10/29/2015  16:57:16  PAGE 28


  D:0007H         SYMBOL        sta
  -------         DO            
  D:0006H         SYMBOL        i
  -------         ENDDO         
  C:5087H         LINE#         11
  C:5087H         LINE#         12
  C:5087H         LINE#         15
  C:5089H         LINE#         16
  C:5089H         LINE#         17
  C:5095H         LINE#         18
  C:509AH         LINE#         19
  -------         ENDPROC       _DISPLAY_SETALL
  -------         PROC          DISPLAY_SETLINE
  C:4D29H         LINE#         22
  C:4D29H         LINE#         23
  C:4D29H         LINE#         24
  C:4D2FH         LINE#         25
  C:4D31H         LINE#         26
  C:4D33H         LINE#         28
  C:4D37H         LINE#         29
  C:4D39H         LINE#         30
  C:4D3BH         LINE#         32
  C:4D42H         LINE#         33
  C:4D46H         LINE#         34
  C:4D48H         LINE#         35
  -------         ENDPROC       DISPLAY_SETLINE
  -------         PROC          _DISPLAY_CIRCLERUN
  D:0007H         SYMBOL        sp
  -------         DO            
  X:0155H         SYMBOL        cnt
  B:0021H.7       SYMBOL        disIndex
  -------         ENDDO         
  C:48CCH         LINE#         37
  C:48CCH         LINE#         38
  C:48CCH         LINE#         41
  C:48D2H         LINE#         42
  C:48D7H         LINE#         43
  C:48D7H         LINE#         44
  C:48D9H         LINE#         46
  C:48DBH         LINE#         47
  C:48DBH         LINE#         49
  C:48E2H         LINE#         51
  C:48E5H         LINE#         52
  C:48E5H         LINE#         53
  C:48ECH         LINE#         54
  C:48F3H         LINE#         55
  C:48FAH         LINE#         56
  C:48FBH         LINE#         58
  C:48FBH         LINE#         59
  C:4907H         LINE#         60
  C:490EH         LINE#         61
  C:4915H         LINE#         62
  C:4915H         LINE#         88
  -------         ENDPROC       _DISPLAY_CIRCLERUN
  -------         PROC          _DISPLAY_DUSTLEVEL
  D:0007H         SYMBOL        level
  C:499CH         LINE#         90
BL51 BANKED LINKER/LOCATER V6.22                                                      10/29/2015  16:57:16  PAGE 29


  C:499CH         LINE#         91
  C:499CH         LINE#         92
  C:49AFH         LINE#         93
  C:49AFH         LINE#         94
  C:49AFH         LINE#         95
  C:49B6H         LINE#         96
  C:49B6H         LINE#         97
  C:49BDH         LINE#         98
  C:49BDH         LINE#         99
  C:49C4H         LINE#         100
  C:49C4H         LINE#         101
  C:49CBH         LINE#         102
  C:49CBH         LINE#         103
  C:49D2H         LINE#         104
  C:49D2H         LINE#         105
  C:49D9H         LINE#         106
  C:49D9H         LINE#         107
  C:49D9H         LINE#         108
  C:49D9H         LINE#         109
  C:49D9H         LINE#         110
  -------         ENDPROC       _DISPLAY_DUSTLEVEL
  -------         PROC          _DISPLAY_SPLEVEL
  D:0007H         SYMBOL        level
  C:006EH         LINE#         112
  C:006EH         LINE#         113
  C:006EH         LINE#         114
  C:007EH         LINE#         115
  C:007EH         LINE#         116
  C:007EH         LINE#         117
  C:0085H         LINE#         118
  C:0085H         LINE#         119
  C:008CH         LINE#         120
  C:008CH         LINE#         121
  C:0093H         LINE#         122
  C:0093H         LINE#         123
  C:009AH         LINE#         124
  C:009AH         LINE#         125
  C:00A1H         LINE#         126
  C:00A1H         LINE#         127
  C:00A1H         LINE#         128
  C:00A1H         LINE#         129
  C:00A1H         LINE#         130
  -------         ENDPROC       _DISPLAY_SPLEVEL
  -------         PROC          _DISPLAY_SHOWTEMPERATURE
  D:0007H         SYMBOL        t
  -------         DO            
  D:0005H         SYMBOL        v10
  D:0004H         SYMBOL        v1
  -------         ENDDO         
  C:4523H         LINE#         225
  C:4523H         LINE#         226
  C:4523H         LINE#         230
  C:4529H         LINE#         231
  C:4529H         LINE#         232
  C:452BH         LINE#         233
  C:452BH         LINE#         235
  C:4531H         LINE#         236
BL51 BANKED LINKER/LOCATER V6.22                                                      10/29/2015  16:57:16  PAGE 30


  C:4538H         LINE#         238
  C:453BH         LINE#         239
  C:453BH         LINE#         240
  C:454CH         LINE#         241
  C:455FH         LINE#         242
  C:455FH         LINE#         243
  C:4570H         LINE#         244
  C:4581H         LINE#         245
  -------         ENDPROC       _DISPLAY_SHOWTEMPERATURE
  -------         PROC          _DISPLAY_SHOWHUMIDITY
  D:0007H         SYMBOL        h
  -------         DO            
  D:0005H         SYMBOL        v10
  D:0004H         SYMBOL        v1
  -------         ENDDO         
  C:4582H         LINE#         328
  C:4582H         LINE#         329
  C:4582H         LINE#         333
  C:4588H         LINE#         334
  C:4588H         LINE#         335
  C:458AH         LINE#         336
  C:458AH         LINE#         338
  C:4590H         LINE#         339
  C:4597H         LINE#         341
  C:459AH         LINE#         342
  C:459AH         LINE#         343
  C:45ABH         LINE#         344
  C:45BEH         LINE#         345
  C:45BEH         LINE#         346
  C:45CFH         LINE#         347
  C:45E0H         LINE#         348
  -------         ENDPROC       _DISPLAY_SHOWHUMIDITY
  -------         PROC          _DISPLAY_DUSTDATA
  D:0002H         SYMBOL        pm
  -------         DO            
  X:01BAH         SYMBOL        v1000
  X:01BBH         SYMBOL        v100
  X:01BCH         SYMBOL        v10
  D:0003H         SYMBOL        v1
  -------         ENDDO         
  C:3152H         LINE#         553
  C:3156H         LINE#         554
  C:3156H         LINE#         560
  C:315FH         LINE#         561
  C:315FH         LINE#         562
  C:3163H         LINE#         563
  C:3163H         LINE#         565
  C:3173H         LINE#         566
  C:3188H         LINE#         567
  C:319DH         LINE#         568
  C:31AAH         LINE#         571
  C:31BFH         LINE#         572
  C:31D1H         LINE#         574
  C:31DFH         LINE#         575
  C:31F0H         LINE#         576
  C:3205H         LINE#         578
  C:3213H         LINE#         579
BL51 BANKED LINKER/LOCATER V6.22                                                      10/29/2015  16:57:16  PAGE 31


  C:3225H         LINE#         582
  C:322FH         LINE#         583
  C:3240H         LINE#         584
  C:3253H         LINE#         585
  -------         ENDPROC       _DISPLAY_DUSTDATA
  -------         PROC          _DISPLAY_SHOWRT
  D:0007H         SYMBOL        h
  D:0005H         SYMBOL        m
  B:0021H.5       SYMBOL        hFlashEn
  B:0021H.6       SYMBOL        mFlashEn
  -------         DO            
  D:0001H         SYMBOL        h10
  D:0006H         SYMBOL        h1
  D:0004H         SYMBOL        m10
  D:0003H         SYMBOL        m1
  -------         ENDDO         
  C:39F5H         LINE#         787
  C:39F5H         LINE#         788
  C:39F5H         LINE#         795
  C:39FBH         LINE#         796
  C:3A02H         LINE#         797
  C:3A08H         LINE#         798
  C:3A0FH         LINE#         800
  C:3A15H         LINE#         801
  C:3A15H         LINE#         802
  C:3A17H         LINE#         803
  C:3A19H         LINE#         804
  C:3A19H         LINE#         806
  C:3A1FH         LINE#         807
  C:3A1FH         LINE#         808
  C:3A21H         LINE#         809
  C:3A23H         LINE#         810
  C:3A23H         LINE#         811
  C:3A29H         LINE#         812
  C:3A29H         LINE#         813
  C:3A3AH         LINE#         814
  C:3A4BH         LINE#         816
  C:3A5CH         LINE#         817
  C:3A6DH         LINE#         818
  C:3A6DH         LINE#         821
  C:3A73H         LINE#         822
  C:3A73H         LINE#         823
  C:3A84H         LINE#         824
  C:3A95H         LINE#         825
  C:3AA7H         LINE#         827
  C:3AB1H         LINE#         828
  C:3AC2H         LINE#         829
  C:3AC2H         LINE#         830
  -------         ENDPROC       _DISPLAY_SHOWRT
  -------         PROC          _DISPLAY_SHOWNUMINRTCAREA
  D:0002H         SYMBOL        num
  -------         DO            
  X:01BAH         SYMBOL        v1000
  X:01BBH         SYMBOL        v100
  X:01BCH         SYMBOL        v10
  D:0001H         SYMBOL        v1
  -------         ENDDO         
BL51 BANKED LINKER/LOCATER V6.22                                                      10/29/2015  16:57:16  PAGE 32


  C:3458H         LINE#         833
  C:345CH         LINE#         834
  C:345CH         LINE#         840
  C:3468H         LINE#         841
  C:347DH         LINE#         842
  C:3492H         LINE#         843
  C:349FH         LINE#         846
  C:34A8H         LINE#         847
  C:34A8H         LINE#         848
  C:34AEH         LINE#         849
  C:34B0H         LINE#         850
  C:34B2H         LINE#         851
  C:34B3H         LINE#         852
  C:34B3H         LINE#         855
  C:34C8H         LINE#         856
  C:34D9H         LINE#         858
  C:34EEH         LINE#         859
  C:34FFH         LINE#         861
  C:3514H         LINE#         862
  C:3525H         LINE#         863
  C:353AH         LINE#         865
  C:3544H         LINE#         866
  C:3555H         LINE#         867
  -------         ENDPROC       _DISPLAY_SHOWNUMINRTCAREA
  -------         PROC          DISPLAY_LEDDRIVE
  B:0021H.4       SYMBOL        comChangeEn
  -------         DO            
  X:0156H         SYMBOL        scanCnt
  -------         ENDDO         
  C:3B8FH         LINE#         889
  C:3B8FH         LINE#         890
  C:3B8FH         LINE#         893
  C:3B92H         LINE#         894
  C:3B92H         LINE#         895
  C:3B98H         LINE#         896
  C:3B98H         LINE#         898
  C:3B9EH         LINE#         899
  C:3BA4H         LINE#         900
  C:3BAFH         LINE#         901
  C:3BAFH         LINE#         902
  C:3BAFH         LINE#         903
  C:3BB6H         LINE#         904
  C:3BB6H         LINE#         905
  C:3BB9H         LINE#         906
  C:3BBBH         LINE#         908
  C:3BBBH         LINE#         909
  C:3BBEH         LINE#         910
  C:3BBEH         LINE#         911
  C:3BC5H         LINE#         912
  C:3BC5H         LINE#         913
  C:3BC8H         LINE#         914
  C:3BCAH         LINE#         916
  C:3BCAH         LINE#         917
  C:3BCDH         LINE#         918
  C:3BCDH         LINE#         920
  C:3BD3H         LINE#         921
  C:3BD4H         LINE#         922
BL51 BANKED LINKER/LOCATER V6.22                                                      10/29/2015  16:57:16  PAGE 33


  C:3BD4H         LINE#         923
  C:3BDBH         LINE#         924
  C:3BDBH         LINE#         925
  C:3BDEH         LINE#         926
  C:3BE0H         LINE#         928
  C:3BE0H         LINE#         929
  C:3BE3H         LINE#         930
  C:3BE3H         LINE#         931
  C:3BEAH         LINE#         932
  C:3BEAH         LINE#         933
  C:3BEDH         LINE#         934
  C:3BEFH         LINE#         936
  C:3BEFH         LINE#         937
  C:3BF2H         LINE#         938
  C:3BF2H         LINE#         939
  C:3BF8H         LINE#         940
  C:3BF9H         LINE#         941
  C:3BF9H         LINE#         942
  C:3BF9H         LINE#         943
  C:3C00H         LINE#         944
  C:3C00H         LINE#         945
  C:3C03H         LINE#         946
  C:3C05H         LINE#         948
  C:3C05H         LINE#         949
  C:3C08H         LINE#         950
  C:3C08H         LINE#         952
  C:3C0FH         LINE#         953
  C:3C0FH         LINE#         954
  C:3C12H         LINE#         955
  C:3C14H         LINE#         957
  C:3C14H         LINE#         958
  C:3C17H         LINE#         959
  C:3C17H         LINE#         961
  C:3C1EH         LINE#         962
  C:3C1EH         LINE#         963
  C:3C21H         LINE#         964
  C:3C23H         LINE#         966
  C:3C23H         LINE#         967
  C:3C26H         LINE#         968
  C:3C26H         LINE#         970
  C:3C2DH         LINE#         971
  C:3C2DH         LINE#         972
  C:3C30H         LINE#         973
  C:3C32H         LINE#         975
  C:3C32H         LINE#         976
  C:3C35H         LINE#         977
  C:3C35H         LINE#         978
  C:3C3BH         LINE#         980
  C:3C40H         LINE#         981
  C:3C40H         LINE#         982
  C:3C40H         LINE#         983
  -------         ENDPROC       DISPLAY_LEDDRIVE
  -------         PROC          DISPLAY_CTR
  C:4B60H         LINE#         986
  C:4B60H         LINE#         987
  C:4B60H         LINE#         988
  C:4B65H         LINE#         989
BL51 BANKED LINKER/LOCATER V6.22                                                      10/29/2015  16:57:16  PAGE 34


  C:4B6AH         LINE#         991
  C:4B83H         LINE#         993
  -------         ENDPROC       DISPLAY_CTR
  -------         ENDMOD        DISPLAY

  -------         MODULE        BUZZER
  C:0000H         SYMBOL        _ICE_DUMMY_
  D:0097H         PUBLIC        BUZCR
  X:01F8H         SYMBOL        Buzz_times
  C:4916H         PUBLIC        Buzz_Ctr
  C:4DF9H         PUBLIC        _Buzz_Set
  B:0023H.3       SYMBOL        Buzz_En
  X:01F9H         SYMBOL        Buzz_off
  X:01FAH         SYMBOL        Buzz_cnt
  X:01FBH         SYMBOL        Buzz_on
  C:50D4H         PUBLIC        Buzz_DeviceInit
  -------         PROC          BUZZ_DEVICEINIT
  C:50D4H         LINE#         11
  C:50D4H         LINE#         12
  C:50D4H         LINE#         13
  C:50D6H         LINE#         15
  C:50DBH         LINE#         16
  C:50DFH         LINE#         17
  C:50E3H         LINE#         19
  C:50E5H         LINE#         20
  -------         ENDPROC       BUZZ_DEVICEINIT
  -------         PROC          _BUZZ_SET
  D:0007H         SYMBOL        times
  D:0005H         SYMBOL        on
  D:0003H         SYMBOL        off
  C:4DF9H         LINE#         22
  C:4DF9H         LINE#         23
  C:4DF9H         LINE#         24
  C:4DFEH         LINE#         25
  C:4DFEH         LINE#         26
  C:4E01H         LINE#         27
  C:4E01H         LINE#         29
  C:4E06H         LINE#         30
  C:4E0BH         LINE#         31
  C:4E10H         LINE#         33
  C:4E13H         LINE#         34
  -------         ENDPROC       _BUZZ_SET
  -------         PROC          BUZZ_CTR
  C:4916H         LINE#         36
  C:4916H         LINE#         37
  C:4916H         LINE#         38
  C:491CH         LINE#         39
  C:491CH         LINE#         40
  C:4922H         LINE#         42
  C:492EH         LINE#         43
  C:492EH         LINE#         44
  C:4931H         LINE#         45
  C:4931H         LINE#         46
  C:4934H         LINE#         47
  C:4934H         LINE#         49
  C:4936H         LINE#         50
  C:4937H         LINE#         51
BL51 BANKED LINKER/LOCATER V6.22                                                      10/29/2015  16:57:16  PAGE 35


  C:4941H         LINE#         52
  C:4941H         LINE#         53
  C:4944H         LINE#         54
  C:4944H         LINE#         55
  C:4947H         LINE#         56
  C:4947H         LINE#         57
  C:4949H         LINE#         58
  C:494AH         LINE#         60
  C:494AH         LINE#         61
  C:4950H         LINE#         62
  C:4955H         LINE#         63
  C:4955H         LINE#         64
  C:4956H         LINE#         66
  C:4956H         LINE#         67
  C:4958H         LINE#         68
  C:4958H         LINE#         69
  -------         ENDPROC       BUZZ_CTR
  -------         ENDMOD        BUZZER

  -------         MODULE        IR
  C:0000H         SYMBOL        _ICE_DUMMY_
  B:0023H.4       PUBLIC        IR_Changed
  X:0204H         PUBLIC        IR_Code
  -------         ENDMOD        IR

  -------         MODULE        HUMIDITY
  C:0000H         SYMBOL        _ICE_DUMMY_
  C:097DH         SYMBOL        H_Table38
  C:0758H         SYMBOL        H_Table29
  C:09BAH         SYMBOL        H_Table39
  C:3F9BH         PUBLIC        Humidity_GetCurrentH
  B:0022H.6       PUBLIC        NTC_IsError
  C:41EFH         PUBLIC        Humidity_GetCurrentT
  C:43EEH         SYMBOL        _Humidity_GetH
  C:01A0H         SYMBOL        H_table45
  C:50E6H         PUBLIC        Humidity_DeviceInit
  C:0B28H         SYMBOL        H_tables
  D:009FH         PUBLIC        ADCDRH
  D:009CH         PUBLIC        ADCCRL
  C:5030H         PUBLIC        _Utils_GetAdValue
  C:00B6H         SYMBOL        T_table
  I:0016H         PUBLIC        Humidity_AdHBuf
  C:01DDH         SYMBOL        H_Table6
  C:021AH         SYMBOL        H_Table7
  C:0257H         SYMBOL        H_Table8
  C:0294H         SYMBOL        H_Table9
  C:3556H         SYMBOL        _Humidity_Ad2H
  C:4D03H         SYMBOL        _Humidity_Ad2T
  I:0017H         PUBLIC        Humidity_CurrentH
  C:0163H         SYMBOL        H_table5
  I:0018H         PUBLIC        Humidity_CurrentT
  C:02D1H         SYMBOL        H_Table10
  C:0533H         SYMBOL        H_Table20
  C:030EH         SYMBOL        H_Table11
  C:0795H         SYMBOL        H_Table30
  C:0570H         SYMBOL        H_Table21
  C:034BH         SYMBOL        H_Table12
BL51 BANKED LINKER/LOCATER V6.22                                                      10/29/2015  16:57:16  PAGE 36


  C:09F7H         SYMBOL        H_Table40
  C:07D2H         SYMBOL        H_Table31
  C:05ADH         SYMBOL        H_Table22
  C:0388H         SYMBOL        H_Table13
  C:0A34H         SYMBOL        H_Table41
  C:080FH         SYMBOL        H_Table32
  C:05EAH         SYMBOL        H_Table23
  C:03C5H         SYMBOL        H_Table14
  C:0A71H         SYMBOL        H_Table42
  C:084CH         SYMBOL        H_Table33
  C:0627H         SYMBOL        H_Table24
  C:0402H         SYMBOL        H_Table15
  C:0AAEH         SYMBOL        H_Table43
  C:0889H         SYMBOL        H_Table34
  C:0664H         SYMBOL        H_Table25
  C:043FH         SYMBOL        H_Table16
  C:0AEBH         SYMBOL        H_Table44
  C:08C6H         SYMBOL        H_Table35
  C:06A1H         SYMBOL        H_Table26
  C:047CH         SYMBOL        H_Table17
  C:0903H         SYMBOL        H_Table36
  C:06DEH         SYMBOL        H_Table27
  C:04B9H         SYMBOL        H_Table18
  C:0940H         SYMBOL        H_Table37
  C:071BH         SYMBOL        H_Table28
  C:04F6H         SYMBOL        H_Table19
  -------         PROC          _UTILS_GETADVALUE
  D:0007H         SYMBOL        ch
  C:5030H         LINE#         3084
  C:5030H         LINE#         3085
  C:5030H         LINE#         3088
  C:503BH         LINE#         3089
  C:503EH         LINE#         3091
  C:5043H         LINE#         3096
  C:5045H         LINE#         3097
  -------         ENDPROC       _UTILS_GETADVALUE
  -------         PROC          _HUMIDITY_AD2T
  D:0007H         SYMBOL        adValue
  C:4D03H         LINE#         3100
  C:4D03H         LINE#         3101
  C:4D03H         LINE#         3102
  C:4D0FH         LINE#         3103
  C:4D0FH         LINE#         3104
  C:4D11H         LINE#         3105
  C:4D13H         LINE#         3107
  C:4D13H         LINE#         3108
  C:4D15H         LINE#         3109
  C:4D15H         LINE#         3111
  C:4D1BH         LINE#         3112
  C:4D1BH         LINE#         3113
  C:4D1FH         LINE#         3114
  C:4D20H         LINE#         3116
  C:4D20H         LINE#         3117
  C:4D28H         LINE#         3118
  C:4D28H         LINE#         3119
  -------         ENDPROC       _HUMIDITY_AD2T
  -------         PROC          HUMIDITY_GETCURRENTT
BL51 BANKED LINKER/LOCATER V6.22                                                      10/29/2015  16:57:16  PAGE 37


  -------         DO            
  X:01DBH         SYMBOL        adSum
  X:01DDH         SYMBOL        adMax
  X:01DEH         SYMBOL        adMin
  X:01DFH         SYMBOL        sampleCnt
  D:0007H         SYMBOL        adValue
  -------         ENDDO         
  C:41EFH         LINE#         3121
  C:41EFH         LINE#         3122
  C:41EFH         LINE#         3130
  C:41F4H         LINE#         3132
  C:41FEH         LINE#         3133
  C:41FEH         LINE#         3134
  C:4200H         LINE#         3135
  C:4200H         LINE#         3137
  C:420AH         LINE#         3138
  C:420AH         LINE#         3139
  C:420CH         LINE#         3140
  C:420CH         LINE#         3142
  C:4219H         LINE#         3143
  C:421FH         LINE#         3144
  C:4225H         LINE#         3145
  C:4225H         LINE#         3146
  C:424AH         LINE#         3147
  C:4263H         LINE#         3149
  C:4266H         LINE#         3151
  C:426BH         LINE#         3153
  C:4271H         LINE#         3154
  C:4273H         LINE#         3155
  C:4277H         LINE#         3156
  C:4277H         LINE#         3157
  -------         ENDPROC       HUMIDITY_GETCURRENTT
  -------         PROC          L?0047
  -------         ENDPROC       L?0047
  -------         PROC          _HUMIDITY_GETH
  D:0007H         SYMBOL        adH
  D:0005H         SYMBOL        adT
  -------         DO            
  X:01BAH         SYMBOL        table
  D:0006H         SYMBOL        i
  -------         ENDDO         
  C:43EEH         LINE#         3159
  C:43EEH         LINE#         3160
  C:43EEH         LINE#         3164
  C:43F2H         LINE#         3165
  C:43F2H         LINE#         3166
  C:4400H         LINE#         3167
  C:4402H         LINE#         3168
  C:4406H         LINE#         3169
  C:4406H         LINE#         3170
  C:4414H         LINE#         3171
  C:4416H         LINE#         3173
  C:4416H         LINE#         3174
  C:4439H         LINE#         3175
  C:4439H         LINE#         3177
  C:443BH         LINE#         3178
  C:443BH         LINE#         3179
BL51 BANKED LINKER/LOCATER V6.22                                                      10/29/2015  16:57:16  PAGE 38


  C:4454H         LINE#         3180
  C:4454H         LINE#         3181
  C:4454H         LINE#         3182
  C:4454H         LINE#         3183
  C:4459H         LINE#         3185
  C:445DH         LINE#         3186
  -------         ENDPROC       _HUMIDITY_GETH
  -------         PROC          _HUMIDITY_AD2H
  X:01B7H         SYMBOL        adH
  -------         DO            
  X:01B8H         SYMBOL        h1
  X:01B9H         SYMBOL        h2
  -------         ENDDO         
  C:3556H         LINE#         3188
  C:355BH         LINE#         3189
  C:355BH         LINE#         3193
  C:3566H         LINE#         3194
  C:3566H         LINE#         3195
  C:356AH         LINE#         3196
  C:356DH         LINE#         3197
  C:3575H         LINE#         3198
  C:3575H         LINE#         3199
  C:357CH         LINE#         3200
  C:357FH         LINE#         3201
  C:3589H         LINE#         3202
  C:3589H         LINE#         3203
  C:3593H         LINE#         3204
  C:359DH         LINE#         3207
  C:35DCH         LINE#         3208
  C:35DEH         LINE#         3209
  C:35EDH         LINE#         3210
  C:35EDH         LINE#         3211
  C:35F7H         LINE#         3212
  C:3606H         LINE#         3215
  C:3647H         LINE#         3216
  C:3648H         LINE#         3218
  C:3648H         LINE#         3219
  C:3653H         LINE#         3220
  C:3653H         LINE#         3221
  -------         ENDPROC       _HUMIDITY_AD2H
  -------         PROC          HUMIDITY_GETCURRENTH
  -------         DO            
  X:01E0H         SYMBOL        adSum
  X:01E2H         SYMBOL        sampleCnt
  X:01E3H         SYMBOL        circleIndex
  X:01E4H         SYMBOL        circleBuf
  B:0022H.5       SYMBOL        circleEnable
  D:0004H         SYMBOL        i
  D:0006H         SYMBOL        sumExt
  X:01B6H         SYMBOL        ad
  -------         ENDDO         
  C:3F9BH         LINE#         3224
  C:3F9BH         LINE#         3225
  C:3F9BH         LINE#         3237
  C:3FACH         LINE#         3238
  C:3FB2H         LINE#         3239
  C:3FBBH         LINE#         3240
BL51 BANKED LINKER/LOCATER V6.22                                                      10/29/2015  16:57:16  PAGE 39


  C:3FBBH         LINE#         3241
  C:3FD1H         LINE#         3243
  C:3FD7H         LINE#         3244
  C:3FDDH         LINE#         3245
  C:3FDDH         LINE#         3246
  C:3FDFH         LINE#         3247
  C:3FE1H         LINE#         3248
  C:3FE1H         LINE#         3249
  C:3FF6H         LINE#         3251
  C:3FF9H         LINE#         3252
  C:3FF9H         LINE#         3253
  C:3FFCH         LINE#         3254
  C:3FFDH         LINE#         3255
  C:3FFDH         LINE#         3256
  C:400DH         LINE#         3257
  C:4012H         LINE#         3258
  C:401CH         LINE#         3259
  C:4020H         LINE#         3260
  C:4022H         LINE#         3262
  C:4022H         LINE#         3263
  C:4027H         LINE#         3264
  C:4027H         LINE#         3265
  C:402FH         LINE#         3267
  C:4034H         LINE#         3268
  C:403AH         LINE#         3269
  C:403AH         LINE#         3270
  -------         ENDPROC       HUMIDITY_GETCURRENTH
  -------         PROC          HUMIDITY_DEVICEINIT
  C:50E6H         LINE#         3272
  C:50E6H         LINE#         3273
  C:50E6H         LINE#         3274
  C:50EEH         LINE#         3275
  -------         ENDPROC       HUMIDITY_DEVICEINIT
  -------         ENDMOD        HUMIDITY

  -------         MODULE        DUST
  C:0000H         SYMBOL        _ICE_DUMMY_
  X:01D2H         PUBLIC        Dust_Data
  C:4836H         SYMBOL        Dust_getRtLevel
  X:01D4H         PUBLIC        Dust_RTData
  B:0022H.7       PUBLIC        Dust_IsReady
  X:01D6H         PUBLIC        Dust_LevelForFan
  X:01D7H         SYMBOL        Dust_levelPre
  X:01D8H         SYMBOL        Dust_readyCountdown
  C:3C41H         PUBLIC        Dust_LevelUpdate
  C:3CF2H         PUBLIC        Dust_DataUpdate
  C:509BH         PUBLIC        Dust_DeviceInit
  B:0023H.0       PUBLIC        Dust_DataValid
  X:01DAH         PUBLIC        Dust_Level
  -------         PROC          DUST_DEVICEINIT
  C:509BH         LINE#         21
  C:509BH         LINE#         22
  C:509BH         LINE#         23
  C:50A5H         LINE#         24
  C:50A7H         LINE#         25
  C:50AEH         LINE#         26
  -------         ENDPROC       DUST_DEVICEINIT
BL51 BANKED LINKER/LOCATER V6.22                                                      10/29/2015  16:57:16  PAGE 40


  -------         PROC          DUST_GETRTLEVEL
  -------         DO            
  D:0007H         SYMBOL        level
  -------         ENDDO         
  C:4836H         LINE#         29
  C:4836H         LINE#         30
  C:4836H         LINE#         33
  C:4846H         LINE#         34
  C:4846H         LINE#         35
  C:4848H         LINE#         36
  C:484AH         LINE#         37
  C:4853H         LINE#         38
  C:4853H         LINE#         39
  C:4855H         LINE#         40
  C:4857H         LINE#         41
  C:4860H         LINE#         42
  C:4860H         LINE#         43
  C:4862H         LINE#         44
  C:4864H         LINE#         45
  C:486DH         LINE#         46
  C:486DH         LINE#         47
  C:486FH         LINE#         48
  C:4871H         LINE#         49
  C:487AH         LINE#         50
  C:487AH         LINE#         51
  C:487CH         LINE#         52
  C:487EH         LINE#         54
  C:487EH         LINE#         55
  C:4880H         LINE#         56
  C:4880H         LINE#         58
  C:4880H         LINE#         59
  -------         ENDPROC       DUST_GETRTLEVEL
  -------         PROC          DUST_DATAUPDATE
  -------         DO            
  X:01C6H         SYMBOL        tabs
  D:0007H         SYMBOL        i
  -------         ENDDO         
  C:3CF2H         LINE#         63
  C:3CF2H         LINE#         64
  C:3CF2H         LINE#         68
  C:3CFCH         LINE#         69
  C:3CFCH         LINE#         70
  C:3D0AH         LINE#         71
  C:3D11H         LINE#         72
  C:3D11H         LINE#         73
  C:3D19H         LINE#         74
  C:3D1DH         LINE#         75
  C:3D1FH         LINE#         76
  C:3D1FH         LINE#         77
  C:3D21H         LINE#         79
  C:3D21H         LINE#         80
  C:3D23H         LINE#         81
  C:3D23H         LINE#         83
  C:3D26H         LINE#         84
  C:3D26H         LINE#         85
  C:3D33H         LINE#         86
  C:3D40H         LINE#         87
BL51 BANKED LINKER/LOCATER V6.22                                                      10/29/2015  16:57:16  PAGE 41


  C:3D4DH         LINE#         88
  C:3D5CH         LINE#         90
  C:3D5EH         LINE#         92
  C:3D65H         LINE#         93
  C:3D66H         LINE#         94
  C:3D66H         LINE#         95
  C:3D83H         LINE#         96
  C:3D88H         LINE#         97
  C:3D9EH         LINE#         98
  C:3D9EH         LINE#         99
  -------         ENDPROC       DUST_DATAUPDATE
  -------         PROC          DUST_LEVELUPDATE
  -------         DO            
  X:01CEH         SYMBOL        upperHoldCntForFan
  X:01CFH         SYMBOL        lowerHoldCntForFan
  X:01D0H         SYMBOL        lowerHoldCnt
  D:0007H         SYMBOL        levelCur
  -------         ENDDO         
  C:3C41H         LINE#         101
  C:3C41H         LINE#         102
  C:3C41H         LINE#         110
  C:3C44H         LINE#         111
  C:3C44H         LINE#         112
  C:3C49H         LINE#         113
  C:3C4BH         LINE#         115
  C:3C4FH         LINE#         118
  C:3C4FH         LINE#         121
  C:3C52H         LINE#         123
  C:3C5CH         LINE#         124
  C:3C5CH         LINE#         125
  C:3C63H         LINE#         127
  C:3C68H         LINE#         128
  C:3C68H         LINE#         129
  C:3C6AH         LINE#         130
  C:3C6FH         LINE#         131
  C:3C6FH         LINE#         132
  C:3C7DH         LINE#         133
  C:3C8EH         LINE#         134
  C:3C8EH         LINE#         135
  C:3C92H         LINE#         137
  C:3C9BH         LINE#         138
  C:3C9BH         LINE#         139
  C:3C9EH         LINE#         140
  C:3C9EH         LINE#         142
  C:3CA6H         LINE#         143
  C:3CA6H         LINE#         144
  C:3CA6H         LINE#         151
  C:3CB4H         LINE#         152
  C:3CB4H         LINE#         153
  C:3CB9H         LINE#         155
  C:3CBFH         LINE#         156
  C:3CC5H         LINE#         157
  C:3CC5H         LINE#         158
  C:3CC7H         LINE#         160
  C:3CCDH         LINE#         161
  C:3CCDH         LINE#         162
  C:3CCEH         LINE#         163
BL51 BANKED LINKER/LOCATER V6.22                                                      10/29/2015  16:57:16  PAGE 42


  C:3CD3H         LINE#         164
  C:3CD3H         LINE#         165
  C:3CD8H         LINE#         167
  C:3CDCH         LINE#         168
  C:3CE1H         LINE#         169
  C:3CE1H         LINE#         170
  C:3CE3H         LINE#         172
  C:3CE9H         LINE#         173
  C:3CE9H         LINE#         174
  C:3CEAH         LINE#         176
  C:3CEAH         LINE#         177
  C:3CEFH         LINE#         178
  C:3CF1H         LINE#         179
  C:3CF1H         LINE#         180
  -------         ENDPROC       DUST_LEVELUPDATE
  -------         ENDMOD        DUST

  -------         MODULE        MOTOR
  C:0000H         SYMBOL        _ICE_DUMMY_
  X:01EEH         PUBLIC        Motor_CurSpeed
  B:0022H.2       SYMBOL        Motor_runEnable
  B:0022H.3       PUBLIC        Motor_IsRunning
  C:5179H         PUBLIC        Motor_Stop
  C:2226H         PUBLIC        Motor_Ctr
  D:00BFH         PUBLIC        T1BDRH
  C:4D86H         PUBLIC        _Motor_Run
  D:00BEH         PUBLIC        T1BDRL
  B:0022H.4       PUBLIC        Motor_SpeedUpdated
  X:01F0H         SYMBOL        Motor_pwnData
  X:01F2H         PUBLIC        Motor_ExpectSpeed
  -------         PROC          MOTOR_STOP
  C:5179H         LINE#         11
  C:5179H         LINE#         12
  C:5179H         LINE#         13
  C:517BH         LINE#         14
  C:5182H         LINE#         15
  -------         ENDPROC       MOTOR_STOP
  -------         PROC          _MOTOR_RUN
  D:0006H         SYMBOL        rpm
  C:4D86H         LINE#         17
  C:4D86H         LINE#         18
  C:4D86H         LINE#         19
  C:4D88H         LINE#         20
  C:4DA2H         LINE#         21
  -------         ENDPROC       _MOTOR_RUN
  -------         PROC          MOTOR_CTR
  -------         DO            
  X:01ECH         SYMBOL        Motor_lastSpeed
  X:01B6H         SYMBOL        deltaSp
  X:01B8H         SYMBOL        deltaA
  X:01BAH         SYMBOL        e
  -------         ENDDO         
  C:2226H         LINE#         23
  C:2226H         LINE#         24
  C:2226H         LINE#         31
  C:2240H         LINE#         33
  C:224EH         LINE#         34
BL51 BANKED LINKER/LOCATER V6.22                                                      10/29/2015  16:57:16  PAGE 43


  C:224EH         LINE#         35
  C:2251H         LINE#         36
  C:2253H         LINE#         37
  C:2259H         LINE#         38
  C:225AH         LINE#         40
  C:225AH         LINE#         41
  C:225DH         LINE#         42
  C:225DH         LINE#         44
  C:226BH         LINE#         45
  C:227BH         LINE#         46
  C:227BH         LINE#         47
  C:2282H         LINE#         49
  C:2282H         LINE#         50
  C:2285H         LINE#         52
  C:2285H         LINE#         54
  C:228BH         LINE#         55
  C:228BH         LINE#         56
  C:22A0H         LINE#         57
  C:22A0H         LINE#         58
  C:22A9H         LINE#         59
  C:22ABH         LINE#         61
  C:22ABH         LINE#         62
  C:22C6H         LINE#         63
  C:22C6H         LINE#         65
  C:22D3H         LINE#         66
  C:22D3H         LINE#         67
  C:22EDH         LINE#         69
  C:2317H         LINE#         71
  C:2327H         LINE#         72
  C:2327H         LINE#         73
  C:233BH         LINE#         74
  C:233BH         LINE#         75
  C:233DH         LINE#         77
  C:233DH         LINE#         78
  C:2358H         LINE#         79
  C:2382H         LINE#         80
  C:2398H         LINE#         81
  C:2398H         LINE#         82
  C:23ACH         LINE#         83
  C:23ACH         LINE#         84
  C:23ACH         LINE#         86
  C:23AEH         LINE#         87
  C:23AEH         LINE#         88
  C:23AEH         LINE#         90
  C:23B9H         LINE#         91
  C:23BBH         LINE#         93
  C:23CAH         LINE#         94
  C:23CAH         LINE#         95
  -------         ENDPROC       MOTOR_CTR
  -------         ENDMOD        MOTOR

  -------         MODULE        SYSTEM
  C:0000H         SYMBOL        _ICE_DUMMY_
  B:0020H.0       PUBLIC        Sys_SuperFastModeEn
  D:0088H         PUBLIC        P1
  B:0020H.1       PUBLIC        Sys_IsAutoMode
  B:0020H.2       PUBLIC        Sys_TimerFunEn
BL51 BANKED LINKER/LOCATER V6.22                                                      10/29/2015  16:57:16  PAGE 44


  X:00D9H         PUBLIC        Sys_WifiStrength
  X:00DAH         PUBLIC        Time_100msCnt
  X:00DBH         PUBLIC        Sys_PowerOffPoint1
  X:00DDH         PUBLIC        Sys_UVLedSta
  D:00A8H         PUBLIC        IE
  X:00DEH         PUBLIC        Sys_PowerOffPoint2
  X:00E0H         PUBLIC        Sys_CleanMode
  X:00E1H         PUBLIC        Sys_PowerOffPoint3
  X:00E3H         PUBLIC        Time_Flag1s
  X:00E4H         PUBLIC        Sys_AionStaEEPROM
  X:00E5H         PUBLIC        Sys_PlanformConnSta
  X:00E6H         PUBLIC        Sys_ClockTime
  C:4370H         PUBLIC        Sys_Reset
  X:00ECH         PUBLIC        Sys_UsedTimeRecord
  X:0100H         PUBLIC        Sys_TotalWorkedTime
  B:0020H.3       PUBLIC        Sys_MemoryDataExist
  B:0020H.4       PUBLIC        Sys_EDispEn
  X:0102H         PUBLIC        Sys_SpOptionEEPROM
  X:0103H         PUBLIC        Sys_PowerOnPoint1
  X:0105H         PUBLIC        Sys_PowerOnPoint2
  X:0107H         PUBLIC        Sys_PowerOnPoint3
  D:0087H         PUBLIC        PCON
  B:0088H.4       PUBLIC        P14
  B:0088H.5       PUBLIC        P15
  B:00A0H.3       PUBLIC        P43
  B:0088H.6       PUBLIC        P16
  X:0109H         PUBLIC        Sys_HVpgCnt
  X:010BH         PUBLIC        Sys_LeftTime
  X:010DH         PUBLIC        Sys_RemoteTimerCtr
  D:00ABH         PUBLIC        IE3
  B:0020H.5       PUBLIC        Time_Flag1Min
  C:374EH         PUBLIC        Sys_UpdateTimerOnIndex
  B:0020H.6       PUBLIC        Sys_NHVModeEn
  X:010EH         PUBLIC        Sys_LoadsEn
  B:0020H.7       PUBLIC        Sys_IsAutoModeEEPROM
  C:469DH         PUBLIC        Sys_LoadCtr
  X:010FH         PUBLIC        Sys_FixMode
  C:4C26H         PUBLIC        Sys_EnterStopMode
  X:0110H         PUBLIC        Sys_AionSta
  X:0111H         PUBLIC        Sys_WorkTime
  X:0113H         PUBLIC        Sys_UVLedStaEEPROM
  X:0114H         PUBLIC        Sys_PowerSta
  X:0115H         PUBLIC        Sys_TimerOnIndex
  X:0116H         PUBLIC        Sys_Pm25Records_10
  X:0130H         PUBLIC        Sys_Pm25Records_30
  X:014AH         PUBLIC        Sys_SpOption
  C:4D68H         PUBLIC        Timer_Points
  X:014BH         PUBLIC        Sys_RouteConnSta
  X:014CH         PUBLIC        Sys_AmountOfWipedDust
  X:014EH         PUBLIC        Sys_LightLowerCountdown
  C:4D7AH         PUBLIC        Sys_TimerSegments
  X:014FH         PUBLIC        Time_RTCSec
  X:0150H         PUBLIC        Sys_EWorkedMin
  X:0154H         PUBLIC        Sys_TimerStartedIndex
  -------         PROC          SYS_UPDATETIMERONINDEX
  -------         DO            
  X:01BAH         SYMBOL        temp
BL51 BANKED LINKER/LOCATER V6.22                                                      10/29/2015  16:57:16  PAGE 45


  X:01BCH         SYMBOL        i
  X:01BDH         SYMBOL        t1
  D:0006H         SYMBOL        t2
  -------         ENDDO         
  C:374EH         LINE#         81
  C:374EH         LINE#         82
  C:374EH         LINE#         89
  C:3758H         LINE#         90
  C:375EH         LINE#         91
  C:3770H         LINE#         92
  C:3770H         LINE#         93
  C:3798H         LINE#         94
  C:3798H         LINE#         95
  C:37ECH         LINE#         96
  C:37FDH         LINE#         98
  C:380BH         LINE#         99
  C:380BH         LINE#         100
  C:381EH         LINE#         101
  C:381EH         LINE#         102
  C:3830H         LINE#         103
  C:3836H         LINE#         104
  C:3836H         LINE#         105
  C:3836H         LINE#         106
  C:3836H         LINE#         107
  C:3840H         LINE#         108
  -------         ENDPROC       SYS_UPDATETIMERONINDEX
  -------         PROC          SYS_LOADCTR
  C:469DH         LINE#         111
  C:469DH         LINE#         112
  C:469DH         LINE#         113
  C:46A2H         LINE#         114
  C:46BCH         LINE#         116
  C:46C3H         LINE#         117
  C:46C3H         LINE#         118
  C:46C5H         LINE#         119
  C:46C7H         LINE#         121
  C:46C7H         LINE#         122
  C:46C9H         LINE#         123
  C:46C9H         LINE#         125
  C:46D0H         LINE#         126
  C:46D0H         LINE#         127
  C:46D2H         LINE#         128
  C:46D4H         LINE#         130
  C:46D4H         LINE#         131
  C:46D6H         LINE#         132
  C:46D6H         LINE#         134
  C:46DDH         LINE#         135
  C:46DDH         LINE#         136
  C:46DFH         LINE#         137
  C:46E1H         LINE#         139
  C:46E1H         LINE#         140
  C:46E3H         LINE#         141
  C:46E3H         LINE#         143
  C:46EAH         LINE#         144
  C:46EAH         LINE#         145
  C:46ECH         LINE#         146
  C:46EDH         LINE#         148
BL51 BANKED LINKER/LOCATER V6.22                                                      10/29/2015  16:57:16  PAGE 46


  C:46EDH         LINE#         149
  C:46EFH         LINE#         150
  C:46EFH         LINE#         151
  -------         ENDPROC       SYS_LOADCTR
  -------         PROC          SYS_ENTERSTOPMODE
  -------         DO            
  X:00D8H         SYMBOL        cnt
  -------         ENDDO         
  C:4C26H         LINE#         153
  C:4C26H         LINE#         154
  C:4C26H         LINE#         158
  C:4C2BH         LINE#         159
  C:4C2BH         LINE#         160
  C:4C31H         LINE#         161
  C:4C37H         LINE#         162
  C:4C37H         LINE#         163
  C:4C39H         LINE#         165
  C:4C3CH         LINE#         166
  C:4C40H         LINE#         167
  C:4C44H         LINE#         169
  C:4C47H         LINE#         170
  C:4C4AH         LINE#         171
  C:4C4DH         LINE#         172
  C:4C4DH         LINE#         173
  C:4C4EH         LINE#         175
  C:4C4EH         LINE#         176
  C:4C53H         LINE#         177
  C:4C53H         LINE#         178
  -------         ENDPROC       SYS_ENTERSTOPMODE
  -------         PROC          SYS_RESET
  -------         DO            
  D:0007H         SYMBOL        i
  -------         ENDDO         
  C:4370H         LINE#         181
  C:4370H         LINE#         182
  C:4370H         LINE#         185
  C:4372H         LINE#         186
  C:4378H         LINE#         188
  C:437DH         LINE#         189
  C:4381H         LINE#         190
  C:4385H         LINE#         191
  C:4389H         LINE#         192
  C:438DH         LINE#         193
  C:4391H         LINE#         195
  C:4395H         LINE#         196
  C:4399H         LINE#         197
  C:439DH         LINE#         198
  C:43A1H         LINE#         199
  C:43A5H         LINE#         200
  C:43A9H         LINE#         202
  C:43AAH         LINE#         203
  C:43AAH         LINE#         204
  C:43B6H         LINE#         205
  C:43BBH         LINE#         207
  C:43BDH         LINE#         208
  C:43C4H         LINE#         209
  C:43C7H         LINE#         211
BL51 BANKED LINKER/LOCATER V6.22                                                      10/29/2015  16:57:16  PAGE 47


  C:43CDH         LINE#         212
  C:43D1H         LINE#         214
  C:43D3H         LINE#         216
  C:43DDH         LINE#         217
  C:43DFH         LINE#         219
  C:43E1H         LINE#         220
  C:43E8H         LINE#         221
  -------         ENDPROC       SYS_RESET
  -------         ENDMOD        SYSTEM

  -------         MODULE        KEY
  C:0000H         SYMBOL        _ICE_DUMMY_
  D:0090H         PUBLIC        P2
  D:0098H         PUBLIC        P3
  X:01FEH         PUBLIC        Key_Code
  C:46F0H         SYMBOL        Key_Read
  D:00B9H         PUBLIC        P2IO
  D:00C1H         PUBLIC        P3IO
  B:0023H.5       PUBLIC        Key_Released
  C:3AC3H         PUBLIC        Key_ActionDetect
  X:01FFH         PUBLIC        Key_Action
  -------         PROC          KEY_READ
  -------         DO            
  D:0007H         SYMBOL        keyDat
  -------         ENDDO         
  C:46F0H         LINE#         9
  C:46F0H         LINE#         10
  C:46F0H         LINE#         14
  C:46F3H         LINE#         16
  C:46F7H         LINE#         17
  C:46FAH         LINE#         18
  C:46FDH         LINE#         19
  C:4703H         LINE#         20
  C:4707H         LINE#         22
  C:4709H         LINE#         24
  C:470EH         LINE#         25
  C:470EH         LINE#         26
  C:470FH         LINE#         27
  C:470FH         LINE#         29
  C:4714H         LINE#         30
  C:4714H         LINE#         31
  C:4718H         LINE#         32
  C:4718H         LINE#         34
  C:471DH         LINE#         35
  C:471DH         LINE#         36
  C:4721H         LINE#         37
  C:4721H         LINE#         39
  C:4726H         LINE#         40
  C:4726H         LINE#         41
  C:472AH         LINE#         42
  C:472AH         LINE#         44
  C:472FH         LINE#         45
  C:472FH         LINE#         46
  C:4733H         LINE#         47
  C:4733H         LINE#         49
  C:4738H         LINE#         50
  C:4738H         LINE#         51
BL51 BANKED LINKER/LOCATER V6.22                                                      10/29/2015  16:57:16  PAGE 48


  C:473CH         LINE#         52
  C:473CH         LINE#         54
  C:4742H         LINE#         56
  C:4742H         LINE#         57
  -------         ENDPROC       KEY_READ
  -------         PROC          KEY_ACTIONDETECT
  -------         DO            
  X:01B6H         SYMBOL        Key_codeBuf
  X:01FCH         SYMBOL        Key_stateHoldCnt
  X:01FDH         SYMBOL        Key_stateHoldCntExt
  -------         ENDDO         
  C:3AC3H         LINE#         59
  C:3AC3H         LINE#         60
  C:3AC3H         LINE#         66
  C:3ACBH         LINE#         67
  C:3AD2H         LINE#         68
  C:3AD2H         LINE#         69
  C:3AE7H         LINE#         70
  C:3AE7H         LINE#         71
  C:3AEDH         LINE#         72
  C:3B03H         LINE#         73
  C:3B03H         LINE#         74
  C:3B0BH         LINE#         75
  C:3B0CH         LINE#         77
  C:3B0CH         LINE#         78
  C:3B12H         LINE#         79
  C:3B12H         LINE#         80
  C:3B16H         LINE#         81
  C:3B18H         LINE#         83
  C:3B1AH         LINE#         84
  C:3B1BH         LINE#         86
  C:3B1BH         LINE#         87
  C:3B20H         LINE#         88
  C:3B26H         LINE#         89
  C:3B2AH         LINE#         91
  C:3B30H         LINE#         92
  C:3B30H         LINE#         93
  C:3B33H         LINE#         94
  C:3B39H         LINE#         95
  C:3B4FH         LINE#         96
  C:3B4FH         LINE#         98
  C:3B57H         LINE#         99
  C:3B57H         LINE#         100
  C:3B5DH         LINE#         101
  C:3B5FH         LINE#         102
  C:3B63H         LINE#         103
  C:3B63H         LINE#         104
  C:3B69H         LINE#         105
  C:3B6BH         LINE#         107
  C:3B6BH         LINE#         108
  C:3B71H         LINE#         109
  C:3B71H         LINE#         110
  C:3B77H         LINE#         111
  C:3B78H         LINE#         113
  C:3B78H         LINE#         115
  C:3B8EH         LINE#         116
  C:3B8EH         LINE#         117
BL51 BANKED LINKER/LOCATER V6.22                                                      10/29/2015  16:57:16  PAGE 49


  C:3B8EH         LINE#         118
  -------         ENDPROC       KEY_ACTIONDETECT
  -------         ENDMOD        KEY

  -------         MODULE        FIFO
  C:0000H         SYMBOL        _ICE_DUMMY_
  C:5143H         PUBLIC        _InitQueue
  C:4F57H         PUBLIC        _QueueLen
  C:4640H         PUBLIC        _Dequeue
  C:5072H         PUBLIC        _QueueIsEmpty
  C:4A50H         PUBLIC        _QueueIsFull
  C:44C2H         PUBLIC        _Enqueue
  -------         PROC          _INITQUEUE
  D:0001H         SYMBOL        queue
  C:5143H         LINE#         3
  C:5143H         LINE#         4
  C:5143H         LINE#         5
  -------         ENDPROC       _INITQUEUE
  -------         PROC          _QUEUEISEMPTY
  D:0001H         SYMBOL        queue
  C:5072H         LINE#         8
  C:5072H         LINE#         9
  C:5072H         LINE#         10
  C:5086H         LINE#         11
  -------         ENDPROC       _QUEUEISEMPTY
  -------         PROC          _QUEUEISFULL
  X:01C3H         SYMBOL        queue
  C:4A50H         LINE#         13
  C:4A5BH         LINE#         14
  C:4A5BH         LINE#         15
  C:4A88H         LINE#         16
  -------         ENDPROC       _QUEUEISFULL
  -------         PROC          _QUEUELEN
  D:0001H         SYMBOL        queue
  C:4F57H         LINE#         18
  C:4F57H         LINE#         19
  C:4F57H         LINE#         20
  C:4F70H         LINE#         21
  -------         ENDPROC       _QUEUELEN
  -------         PROC          _ENQUEUE
  X:01BFH         SYMBOL        queue
  X:01C2H         SYMBOL        element
  C:44C2H         LINE#         23
  C:44D2H         LINE#         24
  C:44D2H         LINE#         25
  C:44D7H         LINE#         26
  C:44D7H         LINE#         27
  C:44F6H         LINE#         28
  C:451DH         LINE#         29
  C:451DH         LINE#         31
  C:4522H         LINE#         32
  -------         ENDPROC       _ENQUEUE
  -------         PROC          _DEQUEUE
  X:01BFH         SYMBOL        queue
  -------         DO            
  X:01C2H         SYMBOL        result
  -------         ENDDO         
BL51 BANKED LINKER/LOCATER V6.22                                                      10/29/2015  16:57:16  PAGE 50


  C:4640H         LINE#         34
  C:464BH         LINE#         35
  C:464BH         LINE#         38
  C:464EH         LINE#         39
  C:4653H         LINE#         40
  C:4653H         LINE#         41
  C:4670H         LINE#         42
  C:4697H         LINE#         43
  C:4697H         LINE#         45
  C:469CH         LINE#         46
  -------         ENDPROC       _DEQUEUE
  -------         ENDMOD        FIFO

  -------         MODULE        PROTOCOL
  C:0000H         SYMBOL        _ICE_DUMMY_
  C:11BCH         SYMBOL        _Protocol_StaResp
  B:0023H.6       SYMBOL        isWaitingHeader
  C:4CADH         SYMBOL        CMD_POWER_CTR_DEAL
  C:3D9FH         SYMBOL        CMD_GET_ENE_DATAS_DEAL
  C:4DA3H         SYMBOL        CMD_AION_CTR_DEAL
  C:4959H         SYMBOL        CMD_RT_SET_DEAL
  C:4DC0H         SYMBOL        CMD_UV_CTR_DEAL
  C:207BH         SYMBOL        CMD_GET_DEVICE_INFO_DEAL
  C:4F71H         SYMBOL        CMD_WIFI_STA_CHANGE_DEAL
  C:001EH         SYMBOL        CMD_GET_SYS_STA_DEAL
  C:006AH         SYMBOL        CMD_DUMMY_DEAL
  C:45E1H         SYMBOL        CMD_FAN_CTR_DEAL
  C:23CBH         PUBLIC        Protocol_Task
  C:51BBH         PUBLIC        Protocol_Init
  C:3841H         PUBLIC        Protocol_ResetWifiMode
  C:4AC1H         SYMBOL        CMD_MEM_SET_DEAL
  C:2707H         SYMBOL        CMD_GET_PM_DATAS_DEAL
  C:505CH         SYMBOL        CMD_CLEAN_CTR_DEAL
  C:5046H         SYMBOL        CMD_FIX_CTR_DEAL
  X:0203H         SYMBOL        rxIndex
  C:4DDDH         SYMBOL        CMD_REST_DEAL
  C:4881H         PUBLIC        ProtocolTab
  C:3EF8H         PUBLIC        Protocol_EnterATmode
  C:42F6H         SYMBOL        CMD_TIMER_CTR_DEAL
  -------         PROC          _PROTOCOL_STARESP
  X:01BAH         SYMBOL        cmd
  -------         DO            
  X:01BBH         SYMBOL        sum
  -------         ENDDO         
  C:11BCH         LINE#         41
  C:11C1H         LINE#         42
  C:11C1H         LINE#         45
  C:11C4H         LINE#         47
  C:11D4H         LINE#         48
  C:11E4H         LINE#         50
  C:11FDH         LINE#         51
  C:1213H         LINE#         53
  C:122CH         LINE#         55
  C:1245H         LINE#         56
  C:125FH         LINE#         58
  C:1278H         LINE#         59
  C:1292H         LINE#         61
BL51 BANKED LINKER/LOCATER V6.22                                                      10/29/2015  16:57:16  PAGE 51


  C:12ABH         LINE#         62
  C:12C5H         LINE#         64
  C:12DEH         LINE#         65
  C:12F8H         LINE#         67
  C:1310H         LINE#         68
  C:1328H         LINE#         70
  C:1336H         LINE#         71
  C:1336H         LINE#         72
  C:1337H         LINE#         73
  C:1339H         LINE#         75
  C:1339H         LINE#         76
  C:1347H         LINE#         77
  C:1347H         LINE#         79
  C:1368H         LINE#         80
  C:1389H         LINE#         82
  C:13A2H         LINE#         83
  C:13BBH         LINE#         85
  C:13D4H         LINE#         86
  C:13EDH         LINE#         87
  C:1406H         LINE#         88
  C:141FH         LINE#         90
  C:1438H         LINE#         91
  C:1451H         LINE#         92
  C:146AH         LINE#         93
  C:1483H         LINE#         95
  C:149CH         LINE#         96
  C:14B5H         LINE#         97
  C:14CEH         LINE#         98
  C:14E7H         LINE#         100
  C:14FDH         LINE#         101
  C:1513H         LINE#         103
  C:1529H         LINE#         105
  C:153FH         LINE#         106
  C:1555H         LINE#         108
  C:156BH         LINE#         110
  C:1581H         LINE#         112
  C:1597H         LINE#         113
  C:15ADH         LINE#         116
  C:15C0H         LINE#         117
  C:15D0H         LINE#         119
  -------         ENDPROC       _PROTOCOL_STARESP
  -------         PROC          CMD_DUMMY_DEAL
  C:006AH         LINE#         123
  C:006AH         LINE#         124
  C:006AH         LINE#         126
  -------         ENDPROC       CMD_DUMMY_DEAL
  -------         PROC          CMD_GET_SYS_STA_DEAL
  C:001EH         LINE#         128
  C:001EH         LINE#         129
  C:001EH         LINE#         130
  -------         ENDPROC       CMD_GET_SYS_STA_DEAL
  -------         PROC          CMD_POWER_CTR_DEAL
  C:4CADH         LINE#         132
  C:4CADH         LINE#         133
  C:4CADH         LINE#         134
  C:4CB6H         LINE#         135
  C:4CB9H         LINE#         136
BL51 BANKED LINKER/LOCATER V6.22                                                      10/29/2015  16:57:16  PAGE 52


  C:4CB9H         LINE#         137
  C:4CBDH         LINE#         138
  C:4CBFH         LINE#         140
  C:4CBFH         LINE#         141
  C:4CCAH         LINE#         142
  C:4CCAH         LINE#         143
  C:4CD3H         LINE#         144
  -------         ENDPROC       CMD_POWER_CTR_DEAL
  -------         PROC          CMD_FAN_CTR_DEAL
  C:45E1H         LINE#         146
  C:45E1H         LINE#         147
  C:45E1H         LINE#         148
  C:45E9H         LINE#         149
  C:45E9H         LINE#         150
  C:45F0H         LINE#         151
  C:45F0H         LINE#         152
  C:45F2H         LINE#         153
  C:45FAH         LINE#         154
  C:45FCH         LINE#         156
  C:45FCH         LINE#         157
  C:45FEH         LINE#         158
  C:45FEH         LINE#         161
  C:4605H         LINE#         162
  C:4605H         LINE#         163
  C:460AH         LINE#         164
  C:460AH         LINE#         165
  C:4610H         LINE#         166
  C:4614H         LINE#         167
  C:4614H         LINE#         168
  C:4619H         LINE#         169
  C:461DH         LINE#         170
  C:461DH         LINE#         172
  C:4626H         LINE#         174
  C:4629H         LINE#         175
  C:4629H         LINE#         176
  C:462EH         LINE#         177
  C:4632H         LINE#         178
  C:4632H         LINE#         180
  C:463BH         LINE#         181
  C:463BH         LINE#         183
  -------         ENDPROC       CMD_FAN_CTR_DEAL
  -------         PROC          CMD_FIX_CTR_DEAL
  C:5046H         LINE#         185
  C:5046H         LINE#         186
  C:5046H         LINE#         187
  C:504EH         LINE#         188
  C:5057H         LINE#         189
  -------         ENDPROC       CMD_FIX_CTR_DEAL
  -------         PROC          CMD_CLEAN_CTR_DEAL
  C:505CH         LINE#         191
  C:505CH         LINE#         192
  C:505CH         LINE#         193
  C:5064H         LINE#         194
  C:506DH         LINE#         195
  -------         ENDPROC       CMD_CLEAN_CTR_DEAL
  -------         PROC          CMD_AION_CTR_DEAL
  C:4DA3H         LINE#         197
BL51 BANKED LINKER/LOCATER V6.22                                                      10/29/2015  16:57:16  PAGE 53


  C:4DA3H         LINE#         198
  C:4DA3H         LINE#         199
  C:4DAAH         LINE#         200
  C:4DAAH         LINE#         201
  C:4DB2H         LINE#         202
  C:4DBBH         LINE#         203
  C:4DBBH         LINE#         205
  -------         ENDPROC       CMD_AION_CTR_DEAL
  -------         PROC          CMD_UV_CTR_DEAL
  C:4DC0H         LINE#         207
  C:4DC0H         LINE#         208
  C:4DC0H         LINE#         209
  C:4DC7H         LINE#         210
  C:4DC7H         LINE#         211
  C:4DCFH         LINE#         212
  C:4DD8H         LINE#         213
  C:4DD8H         LINE#         215
  -------         ENDPROC       CMD_UV_CTR_DEAL
  -------         PROC          CMD_TIMER_CTR_DEAL
  C:42F6H         LINE#         217
  C:42F6H         LINE#         218
  C:42F6H         LINE#         219
  C:42FEH         LINE#         220
  C:4306H         LINE#         221
  C:430EH         LINE#         222
  C:4316H         LINE#         224
  C:431EH         LINE#         225
  C:4326H         LINE#         226
  C:432EH         LINE#         227
  C:4336H         LINE#         229
  C:433EH         LINE#         230
  C:4346H         LINE#         231
  C:434EH         LINE#         232
  C:4356H         LINE#         234
  C:4358H         LINE#         235
  C:435FH         LINE#         237
  C:4362H         LINE#         239
  C:436BH         LINE#         240
  -------         ENDPROC       CMD_TIMER_CTR_DEAL
  -------         PROC          CMD_GET_PM_DATAS_DEAL
  -------         DO            
  X:01BAH         SYMBOL        sum
  X:01BBH         SYMBOL        i
  X:01BCH         SYMBOL        ptr
  -------         ENDDO         
  C:2707H         LINE#         242
  C:2707H         LINE#         243
  C:2707H         LINE#         248
  C:2711H         LINE#         249
  C:2711H         LINE#         250
  C:271CH         LINE#         251
  C:271EH         LINE#         253
  C:271EH         LINE#         254
  C:2729H         LINE#         255
  C:2729H         LINE#         257
  C:2739H         LINE#         258
  C:2749H         LINE#         260
BL51 BANKED LINKER/LOCATER V6.22                                                      10/29/2015  16:57:16  PAGE 54


  C:275EH         LINE#         261
  C:2774H         LINE#         264
  C:2797H         LINE#         265
  C:27BDH         LINE#         267
  C:27CAH         LINE#         268
  C:27CAH         LINE#         269
  C:27FCH         LINE#         270
  C:2831H         LINE#         271
  C:2837H         LINE#         273
  C:284AH         LINE#         274
  C:285AH         LINE#         276
  C:2863H         LINE#         278
  -------         ENDPROC       CMD_GET_PM_DATAS_DEAL
  -------         PROC          CMD_GET_ENE_DATAS_DEAL
  -------         DO            
  X:01BAH         SYMBOL        sum
  X:01BBH         SYMBOL        i
  -------         ENDDO         
  C:3D9FH         LINE#         280
  C:3D9FH         LINE#         281
  C:3D9FH         LINE#         285
  C:3DAFH         LINE#         286
  C:3DBFH         LINE#         288
  C:3DD4H         LINE#         289
  C:3DEAH         LINE#         291
  C:3DF7H         LINE#         292
  C:3DF7H         LINE#         293
  C:3E17H         LINE#         294
  C:3E1DH         LINE#         296
  C:3E30H         LINE#         297
  C:3E40H         LINE#         299
  C:3E49H         LINE#         301
  -------         ENDPROC       CMD_GET_ENE_DATAS_DEAL
  -------         PROC          CMD_RT_SET_DEAL
  C:4959H         LINE#         303
  C:4959H         LINE#         304
  C:4959H         LINE#         306
  C:496EH         LINE#         307
  C:4976H         LINE#         308
  C:497EH         LINE#         309
  C:4986H         LINE#         310
  C:498EH         LINE#         312
  C:4997H         LINE#         314
  -------         ENDPROC       CMD_RT_SET_DEAL
  -------         PROC          CMD_MEM_SET_DEAL
  C:4AC1H         LINE#         316
  C:4AC1H         LINE#         317
  C:4AC1H         LINE#         320
  C:4AC3H         LINE#         322
  C:4AC7H         LINE#         323
  C:4ACFH         LINE#         324
  C:4AD7H         LINE#         325
  C:4ADFH         LINE#         327
  C:4AEAH         LINE#         329
  C:4AF3H         LINE#         330
  -------         ENDPROC       CMD_MEM_SET_DEAL
  -------         PROC          CMD_REST_DEAL
BL51 BANKED LINKER/LOCATER V6.22                                                      10/29/2015  16:57:16  PAGE 55


  C:4DDDH         LINE#         332
  C:4DDDH         LINE#         333
  C:4DDDH         LINE#         334
  C:4DE0H         LINE#         336
  C:4DEBH         LINE#         337
  C:4DF4H         LINE#         338
  -------         ENDPROC       CMD_REST_DEAL
  -------         PROC          CMD_GET_DEVICE_INFO_DEAL
  -------         DO            
  X:01BAH         SYMBOL        sum
  -------         ENDDO         
  C:207BH         LINE#         342
  C:207BH         LINE#         343
  C:207BH         LINE#         346
  C:2080H         LINE#         348
  C:2090H         LINE#         349
  C:20A0H         LINE#         351
  C:20B6H         LINE#         353
  C:20CCH         LINE#         356
  C:20E2H         LINE#         357
  C:20F8H         LINE#         359
  C:210EH         LINE#         360
  C:2124H         LINE#         362
  C:213AH         LINE#         363
  C:2150H         LINE#         365
  C:2166H         LINE#         366
  C:217CH         LINE#         368
  C:2192H         LINE#         369
  C:21A8H         LINE#         371
  C:21BEH         LINE#         372
  C:21D4H         LINE#         374
  C:21EAH         LINE#         375
  C:2200H         LINE#         377
  C:2213H         LINE#         379
  C:2223H         LINE#         381
  -------         ENDPROC       CMD_GET_DEVICE_INFO_DEAL
  -------         PROC          CMD_WIFI_STA_CHANGE_DEAL
  C:4F71H         LINE#         383
  C:4F71H         LINE#         384
  C:4F71H         LINE#         386
  C:4F79H         LINE#         388
  C:4F81H         LINE#         390
  C:4F89H         LINE#         391
  -------         ENDPROC       CMD_WIFI_STA_CHANGE_DEAL
  -------         PROC          PROTOCOL_INIT
  C:51BBH         LINE#         423
  C:51BBH         LINE#         424
  C:51BBH         LINE#         425
  C:51BDH         LINE#         426
  C:51C2H         LINE#         427
  -------         ENDPROC       PROTOCOL_INIT
  -------         PROC          PROTOCOL_ENTERATMODE
  C:3EF8H         LINE#         429
  C:3EF8H         LINE#         430
  C:3EF8H         LINE#         432
  C:3F08H         LINE#         433
  C:3F18H         LINE#         434
BL51 BANKED LINKER/LOCATER V6.22                                                      10/29/2015  16:57:16  PAGE 56


  C:3F28H         LINE#         435
  C:3F38H         LINE#         436
  C:3F48H         LINE#         437
  C:3F58H         LINE#         438
  C:3F68H         LINE#         439
  C:3F78H         LINE#         440
  C:3F88H         LINE#         441
  C:3F98H         LINE#         443
  -------         ENDPROC       PROTOCOL_ENTERATMODE
  -------         PROC          PROTOCOL_RESETWIFIMODE
  C:3841H         LINE#         446
  C:3841H         LINE#         447
  C:3841H         LINE#         450
  C:3851H         LINE#         451
  C:3861H         LINE#         452
  C:3871H         LINE#         453
  C:3881H         LINE#         454
  C:3891H         LINE#         455
  C:38A1H         LINE#         456
  C:38B1H         LINE#         457
  C:38C1H         LINE#         458
  C:38D1H         LINE#         459
  C:38E1H         LINE#         460
  C:38F1H         LINE#         461
  C:3901H         LINE#         462
  C:3911H         LINE#         463
  C:3921H         LINE#         465
  -------         ENDPROC       PROTOCOL_RESETWIFIMODE
  -------         PROC          PROTOCOL_TASK
  -------         DO            
  X:01B6H         SYMBOL        dat
  X:01B7H         SYMBOL        cmdDeal
  X:0200H         SYMBOL        checksum
  X:0201H         SYMBOL        len
  X:0202H         SYMBOL        cmd
  -------         ENDDO         
  C:23CBH         LINE#         468
  C:23CBH         LINE#         469
  C:23CBH         LINE#         478
  C:23D9H         LINE#         480
  C:23F7H         LINE#         481
  C:23F7H         LINE#         483
  C:2409H         LINE#         484
  C:2430H         LINE#         487
  C:2433H         LINE#         488
  C:2433H         LINE#         489
  C:243AH         LINE#         490
  C:243AH         LINE#         491
  C:2440H         LINE#         492
  C:2445H         LINE#         493
  C:2445H         LINE#         494
  C:2447H         LINE#         495
  C:2448H         LINE#         496
  C:244CH         LINE#         497
  C:244CH         LINE#         498
  C:244EH         LINE#         500
  C:244EH         LINE#         501
BL51 BANKED LINKER/LOCATER V6.22                                                      10/29/2015  16:57:16  PAGE 57


  C:244EH         LINE#         502
  C:244EH         LINE#         503
  C:2451H         LINE#         505
  C:2451H         LINE#         506
  C:2465H         LINE#         507
  C:246BH         LINE#         509
  C:2471H         LINE#         511
  C:2476H         LINE#         512
  C:2476H         LINE#         513
  C:247EH         LINE#         514
  C:2481H         LINE#         515
  C:2489H         LINE#         516
  C:2489H         LINE#         517
  C:2499H         LINE#         518
  C:2499H         LINE#         519
  C:24ADH         LINE#         520
  C:24BBH         LINE#         521
  C:24BDH         LINE#         522
  C:24C5H         LINE#         523
  C:24C5H         LINE#         524
  C:24CEH         LINE#         525
  C:24D1H         LINE#         526
  C:24D3H         LINE#         527
  C:24D7H         LINE#         528
  C:24D7H         LINE#         529
  C:24E0H         LINE#         530
  C:24F8H         LINE#         531
  C:24FAH         LINE#         533
  C:24FAH         LINE#         535
  C:24FAH         LINE#         536
  C:24FCH         LINE#         538
  C:24FCH         LINE#         540
  C:250BH         LINE#         541
  C:250BH         LINE#         543
  C:250DH         LINE#         544
  C:2513H         LINE#         546
  C:2513H         LINE#         547
  C:2513H         LINE#         548
  C:252FH         LINE#         549
  C:252FH         LINE#         551
  C:2555H         LINE#         554
  C:2555H         LINE#         556
  C:2561H         LINE#         557
  C:2561H         LINE#         559
  C:2563H         LINE#         560
  C:2568H         LINE#         561
  C:2568H         LINE#         562
  C:2568H         LINE#         563
  C:256BH         LINE#         564
  -------         ENDPROC       PROTOCOL_TASK
  -------         ENDMOD        PROTOCOL

  -------         MODULE        UART
  C:0000H         SYMBOL        _ICE_DUMMY_
  C:0026H         PUBLIC        Uart_SendStartup
  C:4AF8H         PUBLIC        Uart_MemoryInit
  X:006AH         PUBLIC        Rx_Timeout
BL51 BANKED LINKER/LOCATER V6.22                                                      10/29/2015  16:57:16  PAGE 58


  X:006BH         PUBLIC        Tx_Timeout
  X:006CH         PUBLIC        Rx_Queue
  X:006FH         PUBLIC        Tx_Queue
  D:00F5H         PUBLIC        USI1DR
  B:0023H.1       PUBLIC        Rx_QueueDataExist
  X:0072H         PUBLIC        Rx_Buf
  X:00A5H         PUBLIC        Tx_Buf
  C:51AAH         PUBLIC        Uart_RxDatsDeal
  B:0023H.2       PUBLIC        Tx_Busy
  D:00EAH         PUBLIC        USI1CR2
  -------         PROC          UART_MEMORYINIT
  -------         DO            
  X:0000H         SYMBOL        Rx_queue
  X:0035H         SYMBOL        Tx_queue
  -------         ENDDO         
  C:4AF8H         LINE#         15
  C:4AF8H         LINE#         16
  C:4AF8H         LINE#         20
  C:4B09H         LINE#         21
  C:4B0CH         LINE#         23
  C:4B1DH         LINE#         24
  C:4B20H         LINE#         26
  C:4B25H         LINE#         27
  C:4B27H         LINE#         29
  C:4B29H         LINE#         30
  C:4B2BH         LINE#         31
  -------         ENDPROC       UART_MEMORYINIT
  -------         PROC          UART_SENDSTARTUP
  -------         DO            
  D:0007H         SYMBOL        len
  -------         ENDDO         
  C:0026H         LINE#         33
  C:0026H         LINE#         34
  C:0026H         LINE#         37
  C:0029H         LINE#         38
  C:0029H         LINE#         39
  C:0037H         LINE#         41
  C:003DH         LINE#         42
  C:003EH         LINE#         44
  C:003EH         LINE#         45
  C:0042H         LINE#         46
  C:0042H         LINE#         47
  C:0052H         LINE#         48
  C:0054H         LINE#         50
  C:0054H         LINE#         51
  C:0064H         LINE#         52
  C:0066H         LINE#         53
  C:0066H         LINE#         55
  C:0069H         LINE#         56
  C:0069H         LINE#         57
  -------         ENDPROC       UART_SENDSTARTUP
  -------         PROC          UART_RXDATSDEAL
  C:51AAH         LINE#         59
  C:51AAH         LINE#         60
  C:51AAH         LINE#         61
  C:51ADH         LINE#         62
  C:51ADH         LINE#         63
BL51 BANKED LINKER/LOCATER V6.22                                                      10/29/2015  16:57:16  PAGE 59


  C:51B0H         LINE#         64
  C:51B2H         LINE#         65
  C:51B2H         LINE#         66
  -------         ENDPROC       UART_RXDATSDEAL
  -------         ENDMOD        UART

  -------         MODULE        FSM
  C:0000H         SYMBOL        _ICE_DUMMY_
  C:00A2H         PUBLIC        Task_DoNothing
  X:0206H         PUBLIC        currentState
  C:4E14H         SYMBOL        doNothing
  C:4743H         PUBLIC        _State_TransitionTo
  -------         PROC          TASK_DONOTHING
  C:00A2H         LINE#         3
  -------         ENDPROC       TASK_DONOTHING
  -------         PROC          _STATE_TRANSITIONTO
  X:01BBH         SYMBOL        state
  B:0021H.4       SYMBOL        desStateEnterEventEnable
  B:0021H.5       SYMBOL        currentStateExitEventEnable
  C:4743H         LINE#         20
  C:474BH         LINE#         23
  C:474BH         LINE#         25
  C:474EH         LINE#         26
  C:474EH         LINE#         27
  C:4768H         LINE#         28
  C:4768H         LINE#         31
  C:4777H         LINE#         34
  C:477AH         LINE#         35
  C:477AH         LINE#         36
  C:4794H         LINE#         37
  C:4794H         LINE#         38
  -------         ENDPROC       _STATE_TRANSITIONTO
  -------         ENDMOD        FSM

  -------         MODULE        STATE_TEST
  C:0000H         SYMBOL        _ICE_DUMMY_
  C:5205H         SYMBOL        _enterEventDeal
  C:51FFH         SYMBOL        _keyActionDeal
  C:4E2FH         PUBLIC        State_Test
  C:5206H         SYMBOL        _exitEventDeal
  C:5201H         SYMBOL        _timeTick
  C:5203H         SYMBOL        _irDataDeal
  C:5200H         SYMBOL        _taskExe
  C:5202H         SYMBOL        _motorCtr
  C:5204H         SYMBOL        _rxDataDeal
  C:3654H         SYMBOL        _displayControl
  -------         PROC          _KEYACTIONDEAL
  C:51FFH         LINE#         4
  C:51FFH         LINE#         5
  C:51FFH         LINE#         7
  -------         ENDPROC       _KEYACTIONDEAL
  -------         PROC          _DISPLAYCONTROL
  C:3654H         LINE#         9
  C:3654H         LINE#         10
  C:3654H         LINE#         11
  C:3657H         LINE#         12
  C:365EH         LINE#         13
BL51 BANKED LINKER/LOCATER V6.22                                                      10/29/2015  16:57:16  PAGE 60


  C:3665H         LINE#         15
  C:3673H         LINE#         16
  C:3673H         LINE#         17
  C:3681H         LINE#         18
  C:3681H         LINE#         20
  C:368FH         LINE#         21
  C:369DH         LINE#         30
  C:36A9H         LINE#         31
  C:36B0H         LINE#         32
  C:36BEH         LINE#         33
  C:36C5H         LINE#         34
  C:36D3H         LINE#         35
  C:36DDH         LINE#         36
  C:36E4H         LINE#         37
  C:36EBH         LINE#         38
  C:36EEH         LINE#         39
  C:36F1H         LINE#         40
  C:36F4H         LINE#         41
  C:36F7H         LINE#         44
  C:36FEH         LINE#         45
  C:3705H         LINE#         46
  C:3714H         LINE#         48
  C:371EH         LINE#         50
  C:3723H         LINE#         52
  C:3728H         LINE#         54
  C:373DH         LINE#         56
  C:3740H         LINE#         57
  C:3740H         LINE#         58
  C:3747H         LINE#         59
  C:3747H         LINE#         61
  C:374DH         LINE#         62
  -------         ENDPROC       _DISPLAYCONTROL
  -------         PROC          _TASKEXE
  C:5200H         LINE#         64
  C:5200H         LINE#         65
  C:5200H         LINE#         67
  -------         ENDPROC       _TASKEXE
  -------         PROC          _TIMETICK
  C:5201H         LINE#         70
  C:5201H         LINE#         71
  C:5201H         LINE#         73
  -------         ENDPROC       _TIMETICK
  -------         PROC          _MOTORCTR
  C:5202H         LINE#         76
  C:5202H         LINE#         77
  C:5202H         LINE#         79
  -------         ENDPROC       _MOTORCTR
  -------         PROC          _IRDATADEAL
  C:5203H         LINE#         82
  C:5203H         LINE#         83
  C:5203H         LINE#         89
  -------         ENDPROC       _IRDATADEAL
  -------         PROC          _RXDATADEAL
  C:5204H         LINE#         92
  C:5204H         LINE#         93
  C:5204H         LINE#         95
  -------         ENDPROC       _RXDATADEAL
BL51 BANKED LINKER/LOCATER V6.22                                                      10/29/2015  16:57:16  PAGE 61


  -------         PROC          _ENTEREVENTDEAL
  C:5205H         LINE#         97
  C:5205H         LINE#         98
  C:5205H         LINE#         100
  -------         ENDPROC       _ENTEREVENTDEAL
  -------         PROC          _EXITEVENTDEAL
  C:5206H         LINE#         102
  C:5206H         LINE#         103
  C:5206H         LINE#         105
  -------         ENDPROC       _EXITEVENTDEAL
  -------         ENDMOD        STATE_TEST

  -------         MODULE        STATE_STARTUP
  C:0000H         SYMBOL        _ICE_DUMMY_
  C:5151H         SYMBOL        _enterEventDeal
  C:5207H         SYMBOL        _keyActionDeal
  C:520BH         SYMBOL        _exitEventDeal
  C:4F8AH         SYMBOL        _timeTick
  C:5209H         SYMBOL        _irDataDeal
  C:5208H         SYMBOL        _taskExe
  C:51EAH         SYMBOL        _motorCtr
  C:520AH         SYMBOL        _rxDataDeal
  C:5183H         SYMBOL        _displayControl
  C:4E4AH         PUBLIC        State_Startup
  -------         PROC          _KEYACTIONDEAL
  C:5207H         LINE#         4
  C:5207H         LINE#         5
  C:5207H         LINE#         7
  -------         ENDPROC       _KEYACTIONDEAL
  -------         PROC          _DISPLAYCONTROL
  C:5183H         LINE#         9
  C:5183H         LINE#         10
  C:5183H         LINE#         12
  C:5189H         LINE#         13
  -------         ENDPROC       _DISPLAYCONTROL
  -------         PROC          _TASKEXE
  C:5208H         LINE#         16
  C:5208H         LINE#         17
  C:5208H         LINE#         19
  -------         ENDPROC       _TASKEXE
  -------         PROC          _TIMETICK
  C:4F8AH         LINE#         22
  C:4F8AH         LINE#         23
  C:4F8AH         LINE#         24
  C:4F90H         LINE#         25
  C:4F96H         LINE#         26
  C:4F96H         LINE#         27
  C:4FA1H         LINE#         28
  C:4FA1H         LINE#         29
  -------         ENDPROC       _TIMETICK
  -------         PROC          _MOTORCTR
  C:51EAH         LINE#         32
  C:51EAH         LINE#         33
  C:51EAH         LINE#         34
  -------         ENDPROC       _MOTORCTR
  -------         PROC          _IRDATADEAL
  C:5209H         LINE#         38
BL51 BANKED LINKER/LOCATER V6.22                                                      10/29/2015  16:57:16  PAGE 62


  C:5209H         LINE#         39
  C:5209H         LINE#         41
  -------         ENDPROC       _IRDATADEAL
  -------         PROC          _RXDATADEAL
  C:520AH         LINE#         44
  C:520AH         LINE#         45
  C:520AH         LINE#         47
  -------         ENDPROC       _RXDATADEAL
  -------         PROC          _ENTEREVENTDEAL
  C:5151H         LINE#         49
  C:5151H         LINE#         50
  C:5151H         LINE#         51
  C:5156H         LINE#         53
  C:515CH         LINE#         54
  C:515EH         LINE#         55
  -------         ENDPROC       _ENTEREVENTDEAL
  -------         PROC          _EXITEVENTDEAL
  C:520BH         LINE#         57
  C:520BH         LINE#         58
  C:520BH         LINE#         60
  -------         ENDPROC       _EXITEVENTDEAL
  -------         ENDMOD        STATE_STARTUP

  -------         MODULE        STATE_STANDBY
  C:0000H         SYMBOL        _ICE_DUMMY_
  C:4A89H         SYMBOL        _enterEventDeal
  C:3254H         SYMBOL        _keyActionDeal
  C:520EH         SYMBOL        _exitEventDeal
  C:2E2CH         SYMBOL        _timeTick
  C:2D1DH         SYMBOL        _irDataDeal
  C:520CH         SYMBOL        _taskExe
  X:0208H         SYMBOL        NHVMode_countdown
  C:4E65H         PUBLIC        State_Standby
  C:51EDH         SYMBOL        _motorCtr
  C:520DH         SYMBOL        _rxDataDeal
  C:3356H         SYMBOL        _displayControl
  X:0209H         SYMBOL        wifiResetCmdDelay
  B:0023H.7       SYMBOL        remoteTimerChanged
  -------         PROC          _KEYACTIONDEAL
  C:3254H         LINE#         8
  C:3254H         LINE#         9
  C:3254H         LINE#         11
  C:325AH         LINE#         12
  C:325AH         LINE#         13
  C:325DH         LINE#         14
  C:3260H         LINE#         16
  C:3260H         LINE#         17
  C:3266H         LINE#         19
  C:326CH         LINE#         20
  C:326CH         LINE#         22
  C:326CH         LINE#         25
  C:326FH         LINE#         26
  C:326FH         LINE#         27
  C:327AH         LINE#         28
  C:327AH         LINE#         30
  C:327AH         LINE#         31
  C:327AH         LINE#         34
BL51 BANKED LINKER/LOCATER V6.22                                                      10/29/2015  16:57:16  PAGE 63


  C:3282H         LINE#         35
  C:3282H         LINE#         37
  C:3289H         LINE#         38
  C:3289H         LINE#         39
  C:3292H         LINE#         40
  C:3296H         LINE#         41
  C:3298H         LINE#         43
  C:329FH         LINE#         44
  C:329FH         LINE#         45
  C:32A8H         LINE#         46
  C:32ACH         LINE#         47
  C:32AEH         LINE#         49
  C:32B9H         LINE#         50
  C:32B9H         LINE#         51
  C:32C2H         LINE#         52
  C:32C6H         LINE#         53
  C:32C6H         LINE#         54
  C:32C8H         LINE#         55
  C:32D0H         LINE#         56
  C:32D0H         LINE#         58
  C:32D7H         LINE#         59
  C:32D7H         LINE#         60
  C:32E0H         LINE#         61
  C:32E4H         LINE#         62
  C:32E6H         LINE#         64
  C:32EDH         LINE#         65
  C:32EDH         LINE#         66
  C:32F6H         LINE#         67
  C:32FAH         LINE#         68
  C:32FCH         LINE#         70
  C:3303H         LINE#         71
  C:3303H         LINE#         72
  C:330CH         LINE#         73
  C:3317H         LINE#         74
  C:3317H         LINE#         75
  C:331FH         LINE#         76
  C:331FH         LINE#         78
  C:3322H         LINE#         79
  C:3327H         LINE#         81
  C:3327H         LINE#         82
  C:3327H         LINE#         83
  C:3329H         LINE#         84
  C:3331H         LINE#         85
  C:3331H         LINE#         87
  C:3338H         LINE#         88
  C:3338H         LINE#         89
  C:333AH         LINE#         90
  C:3340H         LINE#         92
  C:3340H         LINE#         93
  C:3342H         LINE#         94
  C:3349H         LINE#         95
  C:3349H         LINE#         96
  C:334CH         LINE#         98
  C:3355H         LINE#         99
  C:3355H         LINE#         100
  C:3355H         LINE#         101
  -------         ENDPROC       _KEYACTIONDEAL
BL51 BANKED LINKER/LOCATER V6.22                                                      10/29/2015  16:57:16  PAGE 64


  -------         PROC          _DISPLAYCONTROL
  C:3356H         LINE#         103
  C:3356H         LINE#         104
  C:3356H         LINE#         105
  C:335CH         LINE#         106
  C:335CH         LINE#         107
  C:3364H         LINE#         109
  C:3364H         LINE#         111
  C:336BH         LINE#         113
  C:3372H         LINE#         114
  C:3379H         LINE#         115
  C:3380H         LINE#         116
  C:3387H         LINE#         119
  C:338DH         LINE#         122
  C:339CH         LINE#         124
  C:339FH         LINE#         125
  C:339FH         LINE#         126
  C:33A6H         LINE#         129
  C:33A9H         LINE#         130
  C:33A9H         LINE#         131
  C:33B7H         LINE#         132
  C:33B7H         LINE#         133
  C:33B7H         LINE#         135
  C:33BFH         LINE#         136
  C:33BFH         LINE#         137
  C:33CBH         LINE#         138
  C:33D2H         LINE#         139
  C:33E1H         LINE#         140
  C:33E1H         LINE#         141
  C:33E1H         LINE#         142
  C:33E8H         LINE#         143
  C:33EFH         LINE#         144
  C:33F0H         LINE#         145
  C:33F0H         LINE#         146
  C:33F7H         LINE#         147
  C:33FAH         LINE#         148
  C:33FBH         LINE#         149
  C:33FBH         LINE#         150
  C:33FFH         LINE#         151
  C:33FFH         LINE#         152
  C:3401H         LINE#         153
  C:3401H         LINE#         154
  C:3401H         LINE#         155
  C:3408H         LINE#         156
  C:340FH         LINE#         157
  C:3412H         LINE#         158
  C:3415H         LINE#         159
  C:3418H         LINE#         160
  C:3418H         LINE#         161
  C:341AH         LINE#         162
  C:341AH         LINE#         163
  C:341AH         LINE#         165
  C:341AH         LINE#         167
  C:341DH         LINE#         168
  C:341DH         LINE#         169
  C:3425H         LINE#         170
  C:3425H         LINE#         171
BL51 BANKED LINKER/LOCATER V6.22                                                      10/29/2015  16:57:16  PAGE 65


  C:3431H         LINE#         172
  C:3434H         LINE#         173
  C:3434H         LINE#         174
  C:343BH         LINE#         175
  C:343CH         LINE#         176
  C:3444H         LINE#         177
  C:3444H         LINE#         178
  C:344BH         LINE#         179
  C:344CH         LINE#         180
  C:3450H         LINE#         181
  C:3450H         LINE#         182
  C:3457H         LINE#         183
  C:3457H         LINE#         184
  C:3457H         LINE#         185
  C:3457H         LINE#         186
  C:3457H         LINE#         187
  -------         ENDPROC       _DISPLAYCONTROL
  -------         PROC          _TASKEXE
  C:520CH         LINE#         189
  C:520CH         LINE#         190
  C:520CH         LINE#         192
  -------         ENDPROC       _TASKEXE
  -------         PROC          _TIMETICK
  C:2E2CH         LINE#         195
  C:2E2CH         LINE#         196
  C:2E2CH         LINE#         197
  C:2E32H         LINE#         198
  C:2E32H         LINE#         199
  C:2E34H         LINE#         200
  C:2E37H         LINE#         201
  C:2E37H         LINE#         202
  C:2E3AH         LINE#         203
  C:2E3AH         LINE#         204
  C:2E3AH         LINE#         206
  C:2E40H         LINE#         207
  C:2E40H         LINE#         208
  C:2E46H         LINE#         209
  C:2E46H         LINE#         210
  C:2E48H         LINE#         211
  C:2E48H         LINE#         213
  C:2E4EH         LINE#         214
  C:2E4EH         LINE#         215
  C:2E50H         LINE#         216
  C:2E53H         LINE#         217
  C:2E53H         LINE#         218
  C:2E55H         LINE#         219
  C:2E55H         LINE#         220
  C:2E55H         LINE#         221
  C:2E55H         LINE#         224
  C:2E5EH         LINE#         225
  C:2E5EH         LINE#         226
  C:2E60H         LINE#         229
  C:2E67H         LINE#         230
  C:2E67H         LINE#         231
  C:2E73H         LINE#         232
  C:2E73H         LINE#         233
  C:2EB4H         LINE#         235
BL51 BANKED LINKER/LOCATER V6.22                                                      10/29/2015  16:57:16  PAGE 66


  C:2EB4H         LINE#         236
  C:2EB4H         LINE#         237
  C:2EB4H         LINE#         238
  C:2EB4H         LINE#         239
  C:2EB4H         LINE#         240
  C:2EB6H         LINE#         242
  C:2EB6H         LINE#         244
  C:2EBCH         LINE#         245
  C:2EBCH         LINE#         246
  C:2EC4H         LINE#         247
  C:2EC4H         LINE#         248
  C:2F20H         LINE#         250
  C:2F20H         LINE#         252
  C:2F25H         LINE#         254
  C:2F2EH         LINE#         255
  C:2F39H         LINE#         256
  C:2F39H         LINE#         257
  C:2F39H         LINE#         258
  C:2F39H         LINE#         259
  C:2F39H         LINE#         260
  C:2F39H         LINE#         261
  -------         ENDPROC       _TIMETICK
  -------         PROC          _MOTORCTR
  C:51EDH         LINE#         264
  C:51EDH         LINE#         265
  C:51EDH         LINE#         266
  -------         ENDPROC       _MOTORCTR
  -------         PROC          _IRDATADEAL
  C:2D1DH         LINE#         270
  C:2D1DH         LINE#         271
  C:2D1DH         LINE#         272
  C:2D23H         LINE#         273
  C:2D23H         LINE#         274
  C:2D27H         LINE#         276
  C:2D27H         LINE#         277
  C:2D2DH         LINE#         279
  C:2D38H         LINE#         280
  C:2D38H         LINE#         281
  C:2D41H         LINE#         282
  C:2D4CH         LINE#         283
  C:2D4CH         LINE#         284
  C:2D5AH         LINE#         285
  C:2D5AH         LINE#         286
  C:2D61H         LINE#         287
  C:2D61H         LINE#         288
  C:2D64H         LINE#         289
  C:2D66H         LINE#         291
  C:2D66H         LINE#         292
  C:2D6DH         LINE#         293
  C:2D6DH         LINE#         295
  C:2D75H         LINE#         296
  C:2D75H         LINE#         297
  C:2D78H         LINE#         298
  C:2D86H         LINE#         299
  C:2D86H         LINE#         300
  C:2D90H         LINE#         301
  C:2D90H         LINE#         302
BL51 BANKED LINKER/LOCATER V6.22                                                      10/29/2015  16:57:16  PAGE 67


  C:2D96H         LINE#         303
  C:2D96H         LINE#         304
  C:2D9CH         LINE#         305
  C:2D9FH         LINE#         307
  C:2D9FH         LINE#         308
  C:2DA6H         LINE#         309
  C:2DA8H         LINE#         310
  C:2DA8H         LINE#         312
  C:2DA8H         LINE#         313
  C:2DA8H         LINE#         314
  C:2DAAH         LINE#         315
  C:2DB8H         LINE#         316
  C:2DB8H         LINE#         317
  C:2DBFH         LINE#         318
  C:2DBFH         LINE#         319
  C:2DC7H         LINE#         320
  C:2DC7H         LINE#         321
  C:2DCDH         LINE#         322
  C:2DCFH         LINE#         324
  C:2DCFH         LINE#         325
  C:2DD8H         LINE#         326
  C:2DDAH         LINE#         327
  C:2DDAH         LINE#         328
  C:2DDAH         LINE#         329
  C:2DDAH         LINE#         330
  C:2DDCH         LINE#         331
  C:2DEAH         LINE#         332
  C:2DEAH         LINE#         333
  C:2DF1H         LINE#         334
  C:2DF1H         LINE#         335
  C:2DF9H         LINE#         336
  C:2DF9H         LINE#         337
  C:2DFFH         LINE#         338
  C:2E01H         LINE#         340
  C:2E01H         LINE#         341
  C:2E0AH         LINE#         342
  C:2E0CH         LINE#         343
  C:2E0CH         LINE#         344
  C:2E0CH         LINE#         345
  C:2E0CH         LINE#         346
  C:2E0EH         LINE#         347
  C:2E1AH         LINE#         348
  C:2E1AH         LINE#         349
  C:2E1CH         LINE#         350
  C:2E22H         LINE#         352
  C:2E2BH         LINE#         353
  C:2E2BH         LINE#         354
  -------         ENDPROC       _IRDATADEAL
  -------         PROC          _RXDATADEAL
  C:520DH         LINE#         357
  C:520DH         LINE#         358
  C:520DH         LINE#         360
  -------         ENDPROC       _RXDATADEAL
  -------         PROC          _ENTEREVENTDEAL
  C:4A89H         LINE#         362
  C:4A89H         LINE#         363
  C:4A89H         LINE#         364
BL51 BANKED LINKER/LOCATER V6.22                                                      10/29/2015  16:57:16  PAGE 68


  C:4A8BH         LINE#         366
  C:4A90H         LINE#         368
  C:4A94H         LINE#         370
  C:4A96H         LINE#         371
  C:4A9CH         LINE#         372
  C:4AA2H         LINE#         374
  C:4AA4H         LINE#         376
  C:4AA6H         LINE#         378
  C:4AACH         LINE#         381
  C:4AB3H         LINE#         382
  C:4AB3H         LINE#         383
  C:4AB6H         LINE#         384
  C:4AB6H         LINE#         385
  C:4AB9H         LINE#         386
  C:4AB9H         LINE#         387
  C:4AB9H         LINE#         389
  C:4AC0H         LINE#         390
  -------         ENDPROC       _ENTEREVENTDEAL
  -------         PROC          _EXITEVENTDEAL
  C:520EH         LINE#         392
  C:520EH         LINE#         393
  C:520EH         LINE#         395
  -------         ENDPROC       _EXITEVENTDEAL
  -------         ENDMOD        STATE_STANDBY

  -------         MODULE        STATE_CLOCKSETTING
  C:0000H         SYMBOL        _ICE_DUMMY_
  C:518DH         SYMBOL        _enterEventDeal
  X:020BH         SYMBOL        clockSettingItem
  C:4278H         SYMBOL        _keyActionDeal
  C:5212H         SYMBOL        _exitEventDeal
  C:4FA2H         SYMBOL        _timeTick
  C:5210H         SYMBOL        _irDataDeal
  C:4E80H         PUBLIC        State_ClockSetting
  C:520FH         SYMBOL        _taskExe
  C:51F0H         SYMBOL        _motorCtr
  C:5211H         SYMBOL        _rxDataDeal
  C:4C81H         SYMBOL        _displayControl
  C:50F6H         SYMBOL        hourDec
  C:5106H         SYMBOL        minDec
  C:5125H         SYMBOL        hourInc
  C:5134H         SYMBOL        minInc
  -------         PROC          HOURINC
  C:5125H         LINE#         7
  C:5125H         LINE#         8
  C:5125H         LINE#         9
  C:512BH         LINE#         10
  C:5131H         LINE#         11
  C:5131H         LINE#         12
  C:5133H         LINE#         13
  C:5133H         LINE#         14
  -------         ENDPROC       HOURINC
  -------         PROC          HOURDEC
  C:50F6H         LINE#         16
  C:50F6H         LINE#         17
  C:50F6H         LINE#         18
  C:50FCH         LINE#         19
BL51 BANKED LINKER/LOCATER V6.22                                                      10/29/2015  16:57:16  PAGE 69


  C:50FCH         LINE#         20
  C:50FEH         LINE#         21
  C:50FFH         LINE#         23
  C:50FFH         LINE#         24
  C:5105H         LINE#         25
  C:5105H         LINE#         26
  -------         ENDPROC       HOURDEC
  -------         PROC          MININC
  C:5134H         LINE#         28
  C:5134H         LINE#         29
  C:5134H         LINE#         30
  C:513AH         LINE#         31
  C:5140H         LINE#         32
  C:5140H         LINE#         33
  C:5142H         LINE#         34
  C:5142H         LINE#         35
  -------         ENDPROC       MININC
  -------         PROC          MINDEC
  C:5106H         LINE#         37
  C:5106H         LINE#         38
  C:5106H         LINE#         39
  C:510CH         LINE#         40
  C:510CH         LINE#         41
  C:510EH         LINE#         42
  C:510FH         LINE#         44
  C:510FH         LINE#         45
  C:5115H         LINE#         46
  C:5115H         LINE#         47
  -------         ENDPROC       MINDEC
  -------         PROC          _KEYACTIONDEAL
  C:4278H         LINE#         51
  C:4278H         LINE#         52
  C:4278H         LINE#         53
  C:427DH         LINE#         55
  C:428BH         LINE#         56
  C:428BH         LINE#         57
  C:4293H         LINE#         58
  C:4293H         LINE#         59
  C:429AH         LINE#         60
  C:429BH         LINE#         62
  C:429BH         LINE#         64
  C:429BH         LINE#         65
  C:42A1H         LINE#         66
  C:42A7H         LINE#         67
  C:42A7H         LINE#         68
  C:42A9H         LINE#         69
  C:42A9H         LINE#         70
  C:42A9H         LINE#         71
  C:42ABH         LINE#         72
  C:42AFH         LINE#         73
  C:42AFH         LINE#         74
  C:42B6H         LINE#         75
  C:42B6H         LINE#         76
  C:42B9H         LINE#         78
  C:42B9H         LINE#         79
  C:42BBH         LINE#         80
  C:42C0H         LINE#         81
BL51 BANKED LINKER/LOCATER V6.22                                                      10/29/2015  16:57:16  PAGE 70


  C:42C0H         LINE#         82
  C:42C3H         LINE#         84
  C:42C3H         LINE#         85
  C:42C3H         LINE#         86
  C:42C5H         LINE#         87
  C:42CDH         LINE#         88
  C:42CDH         LINE#         89
  C:42D4H         LINE#         90
  C:42D4H         LINE#         91
  C:42D7H         LINE#         93
  C:42D7H         LINE#         94
  C:42D9H         LINE#         95
  C:42DDH         LINE#         96
  C:42DDH         LINE#         97
  C:42E0H         LINE#         99
  C:42E5H         LINE#         100
  C:42E5H         LINE#         101
  C:42E5H         LINE#         103
  C:42E5H         LINE#         105
  C:42E5H         LINE#         107
  C:42ECH         LINE#         108
  C:42ECH         LINE#         109
  C:42F5H         LINE#         110
  C:42F5H         LINE#         111
  C:42F5H         LINE#         112
  -------         ENDPROC       _KEYACTIONDEAL
  -------         PROC          _DISPLAYCONTROL
  C:4C81H         LINE#         114
  C:4C81H         LINE#         115
  C:4C81H         LINE#         116
  C:4C84H         LINE#         117
  C:4C84H         LINE#         118
  C:4C8BH         LINE#         119
  C:4C8BH         LINE#         122
  -------         ENDPROC       _DISPLAYCONTROL
  -------         PROC          _TASKEXE
  C:520FH         LINE#         126
  C:520FH         LINE#         127
  C:520FH         LINE#         129
  -------         ENDPROC       _TASKEXE
  -------         PROC          _TIMETICK
  C:4FA2H         LINE#         132
  C:4FA2H         LINE#         133
  C:4FA2H         LINE#         134
  C:4FA8H         LINE#         135
  C:4FAEH         LINE#         136
  C:4FAEH         LINE#         137
  C:4FB9H         LINE#         138
  C:4FB9H         LINE#         139
  -------         ENDPROC       _TIMETICK
  -------         PROC          _MOTORCTR
  C:51F0H         LINE#         142
  C:51F0H         LINE#         143
  C:51F0H         LINE#         144
  -------         ENDPROC       _MOTORCTR
  -------         PROC          _IRDATADEAL
  C:5210H         LINE#         148
BL51 BANKED LINKER/LOCATER V6.22                                                      10/29/2015  16:57:16  PAGE 71


  C:5210H         LINE#         149
  C:5210H         LINE#         151
  -------         ENDPROC       _IRDATADEAL
  -------         PROC          _RXDATADEAL
  C:5211H         LINE#         154
  C:5211H         LINE#         155
  C:5211H         LINE#         157
  -------         ENDPROC       _RXDATADEAL
  -------         PROC          _ENTEREVENTDEAL
  C:518DH         LINE#         159
  C:518DH         LINE#         160
  C:518DH         LINE#         161
  C:5192H         LINE#         162
  C:5196H         LINE#         163
  -------         ENDPROC       _ENTEREVENTDEAL
  -------         PROC          _EXITEVENTDEAL
  C:5212H         LINE#         165
  C:5212H         LINE#         166
  C:5212H         LINE#         168
  -------         ENDPROC       _EXITEVENTDEAL
  -------         ENDMOD        STATE_CLOCKSETTING

  -------         MODULE        STATE_ECHECK
  C:0000H         SYMBOL        _ICE_DUMMY_
  C:51C3H         SYMBOL        _enterEventDeal
  C:49DAH         SYMBOL        _keyActionDeal
  C:4E9BH         PUBLIC        State_ECheck
  C:5216H         SYMBOL        _exitEventDeal
  C:4FBAH         SYMBOL        _timeTick
  C:5214H         SYMBOL        _irDataDeal
  C:5213H         SYMBOL        _taskExe
  C:51F3H         SYMBOL        _motorCtr
  C:5215H         SYMBOL        _rxDataDeal
  C:4CD8H         SYMBOL        _displayControl
  B:0024H.0       SYMBOL        disEn
  -------         PROC          _KEYACTIONDEAL
  C:49DAH         LINE#         5
  C:49DAH         LINE#         6
  C:49DAH         LINE#         7
  C:49DFH         LINE#         9
  C:49E6H         LINE#         10
  C:49E6H         LINE#         11
  C:49EEH         LINE#         12
  C:49EEH         LINE#         13
  C:49F7H         LINE#         15
  C:49F9H         LINE#         16
  C:49FBH         LINE#         17
  C:49FBH         LINE#         18
  C:49FCH         LINE#         19
  C:4A03H         LINE#         20
  C:4A03H         LINE#         21
  C:4A0AH         LINE#         22
  C:4A0AH         LINE#         23
  C:4A13H         LINE#         24
  C:4A15H         LINE#         25
  C:4A15H         LINE#         26
  C:4A15H         LINE#         27
BL51 BANKED LINKER/LOCATER V6.22                                                      10/29/2015  16:57:16  PAGE 72


  -------         ENDPROC       _KEYACTIONDEAL
  -------         PROC          _DISPLAYCONTROL
  C:4CD8H         LINE#         29
  C:4CD8H         LINE#         30
  C:4CD8H         LINE#         31
  C:4CDBH         LINE#         32
  C:4CDBH         LINE#         33
  C:4CE9H         LINE#         34
  C:4CE9H         LINE#         36
  -------         ENDPROC       _DISPLAYCONTROL
  -------         PROC          _TASKEXE
  C:5213H         LINE#         39
  C:5213H         LINE#         40
  C:5213H         LINE#         42
  -------         ENDPROC       _TASKEXE
  -------         PROC          _TIMETICK
  C:4FBAH         LINE#         45
  C:4FBAH         LINE#         46
  C:4FBAH         LINE#         48
  C:4FC0H         LINE#         49
  C:4FC6H         LINE#         50
  C:4FC6H         LINE#         51
  C:4FD1H         LINE#         52
  C:4FD1H         LINE#         53
  -------         ENDPROC       _TIMETICK
  -------         PROC          _MOTORCTR
  C:51F3H         LINE#         56
  C:51F3H         LINE#         57
  C:51F3H         LINE#         58
  -------         ENDPROC       _MOTORCTR
  -------         PROC          _IRDATADEAL
  C:5214H         LINE#         62
  C:5214H         LINE#         63
  C:5214H         LINE#         65
  -------         ENDPROC       _IRDATADEAL
  -------         PROC          _RXDATADEAL
  C:5215H         LINE#         68
  C:5215H         LINE#         69
  C:5215H         LINE#         71
  -------         ENDPROC       _RXDATADEAL
  -------         PROC          _ENTEREVENTDEAL
  C:51C3H         LINE#         73
  C:51C3H         LINE#         74
  C:51C3H         LINE#         75
  C:51C8H         LINE#         76
  C:51CAH         LINE#         77
  -------         ENDPROC       _ENTEREVENTDEAL
  -------         PROC          _EXITEVENTDEAL
  C:5216H         LINE#         79
  C:5216H         LINE#         80
  C:5216H         LINE#         82
  -------         ENDPROC       _EXITEVENTDEAL
  -------         ENDMOD        STATE_ECHECK

  -------         MODULE        STATE_TIMERSETTING
  C:0000H         SYMBOL        _ICE_DUMMY_
  C:5197H         SYMBOL        _enterEventDeal
BL51 BANKED LINKER/LOCATER V6.22                                                      10/29/2015  16:57:16  PAGE 73


  C:1EC8H         SYMBOL        _keyActionDeal
  X:020CH         SYMBOL        timerSettingItem
  C:521AH         SYMBOL        _exitEventDeal
  C:4FD2H         SYMBOL        _timeTick
  C:5218H         SYMBOL        _irDataDeal
  C:5217H         SYMBOL        _taskExe
  C:51F6H         SYMBOL        _motorCtr
  C:5219H         SYMBOL        _rxDataDeal
  C:2866H         SYMBOL        _displayControl
  C:4EB6H         PUBLIC        State_TimerSetting
  -------         PROC          _KEYACTIONDEAL
  -------         DO            
  X:01BAH         SYMBOL        tsPtr
  B:0021H.4       SYMBOL        isM
  -------         ENDDO         
  C:1EC8H         LINE#         19
  C:1EC8H         LINE#         20
  C:1EC8H         LINE#         24
  C:1ECDH         LINE#         26
  C:1ED3H         LINE#         27
  C:1ED3H         LINE#         29
  C:1ED3H         LINE#         31
  C:1EDEH         LINE#         32
  C:1EDEH         LINE#         33
  C:1F07H         LINE#         34
  C:1F0BH         LINE#         36
  C:1F12H         LINE#         37
  C:1F12H         LINE#         38
  C:1F18H         LINE#         39
  C:1F1EH         LINE#         40
  C:1F1EH         LINE#         41
  C:1F20H         LINE#         42
  C:1F20H         LINE#         44
  C:1F20H         LINE#         45
  C:1F23H         LINE#         46
  C:1F2EH         LINE#         47
  C:1F2EH         LINE#         48
  C:1F41H         LINE#         50
  C:1F44H         LINE#         51
  C:1F44H         LINE#         52
  C:1F5DH         LINE#         53
  C:1F73H         LINE#         54
  C:1F73H         LINE#         55
  C:1F7EH         LINE#         56
  C:1F7EH         LINE#         57
  C:1F80H         LINE#         59
  C:1F80H         LINE#         60
  C:1F9AH         LINE#         61
  C:1FB0H         LINE#         62
  C:1FB0H         LINE#         63
  C:1FB6H         LINE#         64
  C:1FB6H         LINE#         65
  C:1FB6H         LINE#         67
  C:1FB6H         LINE#         68
  C:1FB9H         LINE#         69
  C:1FC1H         LINE#         70
  C:1FC1H         LINE#         71
BL51 BANKED LINKER/LOCATER V6.22                                                      10/29/2015  16:57:16  PAGE 74


  C:1FD4H         LINE#         73
  C:1FD7H         LINE#         74
  C:1FD7H         LINE#         75
  C:1FEAH         LINE#         76
  C:1FEAH         LINE#         77
  C:1FF7H         LINE#         78
  C:1FF9H         LINE#         80
  C:1FF9H         LINE#         81
  C:200FH         LINE#         82
  C:200FH         LINE#         83
  C:2011H         LINE#         85
  C:2011H         LINE#         86
  C:2024H         LINE#         87
  C:2024H         LINE#         88
  C:202DH         LINE#         89
  C:202FH         LINE#         91
  C:202FH         LINE#         92
  C:2039H         LINE#         93
  C:2039H         LINE#         94
  C:2039H         LINE#         96
  C:2039H         LINE#         97
  C:203BH         LINE#         98
  C:2043H         LINE#         99
  C:2043H         LINE#         100
  C:204CH         LINE#         101
  C:204CH         LINE#         102
  C:2064H         LINE#         103
  C:2064H         LINE#         104
  C:2067H         LINE#         105
  C:2069H         LINE#         107
  C:2069H         LINE#         108
  C:2071H         LINE#         109
  C:2071H         LINE#         111
  C:207AH         LINE#         112
  C:207AH         LINE#         113
  C:207AH         LINE#         114
  C:207AH         LINE#         115
  -------         ENDPROC       _KEYACTIONDEAL
  -------         PROC          _DISPLAYCONTROL
  -------         DO            
  D:0001H         SYMBOL        tsPtr
  B:0021H.4       SYMBOL        isM
  -------         ENDDO         
  C:2866H         LINE#         117
  C:2866H         LINE#         118
  C:2866H         LINE#         122
  C:2869H         LINE#         123
  C:2869H         LINE#         124
  C:2875H         LINE#         125
  C:287CH         LINE#         126
  C:2882H         LINE#         127
  C:2882H         LINE#         128
  C:2889H         LINE#         129
  C:2890H         LINE#         130
  C:2893H         LINE#         132
  C:2896H         LINE#         133
  C:2899H         LINE#         134
BL51 BANKED LINKER/LOCATER V6.22                                                      10/29/2015  16:57:16  PAGE 75


  C:289CH         LINE#         135
  C:289DH         LINE#         138
  C:289DH         LINE#         140
  C:28A5H         LINE#         141
  C:28A5H         LINE#         142
  C:28A8H         LINE#         143
  C:28A8H         LINE#         144
  C:28B4H         LINE#         145
  C:28BBH         LINE#         146
  C:28BBH         LINE#         148
  C:28C2H         LINE#         149
  C:28C2H         LINE#         151
  C:28C2H         LINE#         152
  C:28E1H         LINE#         153
  C:28E5H         LINE#         155
  C:291CH         LINE#         156
  C:291CH         LINE#         157
  C:291CH         LINE#         158
  C:291CH         LINE#         159
  C:2928H         LINE#         160
  C:292CH         LINE#         161
  C:292EH         LINE#         162
  C:292EH         LINE#         163
  C:292EH         LINE#         164
  C:2935H         LINE#         165
  C:2938H         LINE#         166
  C:293AH         LINE#         167
  C:293AH         LINE#         168
  C:293AH         LINE#         169
  C:2946H         LINE#         170
  C:294DH         LINE#         171
  C:294FH         LINE#         172
  C:294FH         LINE#         173
  C:294FH         LINE#         174
  C:2956H         LINE#         175
  C:2959H         LINE#         176
  C:295BH         LINE#         177
  C:295BH         LINE#         178
  C:295BH         LINE#         179
  C:2967H         LINE#         180
  C:296EH         LINE#         181
  C:2970H         LINE#         182
  C:2970H         LINE#         183
  C:2970H         LINE#         184
  C:2977H         LINE#         185
  C:297AH         LINE#         186
  C:297AH         LINE#         187
  C:297AH         LINE#         189
  C:2987H         LINE#         190
  C:2987H         LINE#         191
  C:299BH         LINE#         192
  C:299DH         LINE#         194
  C:299DH         LINE#         195
  C:29ADH         LINE#         196
  C:29ADH         LINE#         197
  C:29ADH         LINE#         198
  -------         ENDPROC       _DISPLAYCONTROL
BL51 BANKED LINKER/LOCATER V6.22                                                      10/29/2015  16:57:16  PAGE 76


  -------         PROC          _TASKEXE
  C:5217H         LINE#         200
  C:5217H         LINE#         201
  C:5217H         LINE#         203
  -------         ENDPROC       _TASKEXE
  -------         PROC          _TIMETICK
  C:4FD2H         LINE#         206
  C:4FD2H         LINE#         207
  C:4FD2H         LINE#         208
  C:4FD8H         LINE#         209
  C:4FDEH         LINE#         210
  C:4FDEH         LINE#         211
  C:4FE9H         LINE#         212
  C:4FE9H         LINE#         213
  -------         ENDPROC       _TIMETICK
  -------         PROC          _MOTORCTR
  C:51F6H         LINE#         216
  C:51F6H         LINE#         217
  C:51F6H         LINE#         218
  -------         ENDPROC       _MOTORCTR
  -------         PROC          _IRDATADEAL
  C:5218H         LINE#         222
  C:5218H         LINE#         223
  C:5218H         LINE#         225
  -------         ENDPROC       _IRDATADEAL
  -------         PROC          _RXDATADEAL
  C:5219H         LINE#         228
  C:5219H         LINE#         229
  C:5219H         LINE#         231
  -------         ENDPROC       _RXDATADEAL
  -------         PROC          _ENTEREVENTDEAL
  C:5197H         LINE#         233
  C:5197H         LINE#         234
  C:5197H         LINE#         235
  C:519CH         LINE#         236
  C:51A0H         LINE#         237
  -------         ENDPROC       _ENTEREVENTDEAL
  -------         PROC          _EXITEVENTDEAL
  C:521AH         LINE#         239
  C:521AH         LINE#         240
  C:521AH         LINE#         242
  -------         ENDPROC       _EXITEVENTDEAL
  -------         ENDMOD        STATE_TIMERSETTING

  -------         MODULE        STATE_TIMERFNSETTING
  C:0000H         SYMBOL        _ICE_DUMMY_
  C:51E0H         SYMBOL        _enterEventDeal
  C:4ED1H         PUBLIC        State_TimerFnSetting
  C:4D49H         SYMBOL        _keyActionDeal
  C:521EH         SYMBOL        _exitEventDeal
  C:4FEAH         SYMBOL        _timeTick
  C:521CH         SYMBOL        _irDataDeal
  C:521BH         SYMBOL        _taskExe
  C:51F9H         SYMBOL        _motorCtr
  C:521DH         SYMBOL        _rxDataDeal
  C:4B2CH         SYMBOL        _displayControl
  -------         PROC          _KEYACTIONDEAL
BL51 BANKED LINKER/LOCATER V6.22                                                      10/29/2015  16:57:16  PAGE 77


  C:4D49H         LINE#         4
  C:4D49H         LINE#         5
  C:4D49H         LINE#         6
  C:4D4EH         LINE#         8
  C:4D55H         LINE#         9
  C:4D55H         LINE#         10
  C:4D5CH         LINE#         11
  C:4D5CH         LINE#         12
  C:4D5EH         LINE#         13
  C:4D67H         LINE#         14
  C:4D67H         LINE#         15
  C:4D67H         LINE#         16
  -------         ENDPROC       _KEYACTIONDEAL
  -------         PROC          _DISPLAYCONTROL
  C:4B2CH         LINE#         18
  C:4B2CH         LINE#         19
  C:4B2CH         LINE#         20
  C:4B38H         LINE#         21
  C:4B3FH         LINE#         22
  C:4B45H         LINE#         23
  C:4B45H         LINE#         24
  C:4B4CH         LINE#         25
  C:4B53H         LINE#         26
  C:4B56H         LINE#         28
  C:4B59H         LINE#         29
  C:4B5CH         LINE#         30
  C:4B5FH         LINE#         31
  C:4B5FH         LINE#         32
  -------         ENDPROC       _DISPLAYCONTROL
  -------         PROC          _TASKEXE
  C:521BH         LINE#         34
  C:521BH         LINE#         35
  C:521BH         LINE#         37
  -------         ENDPROC       _TASKEXE
  -------         PROC          _TIMETICK
  C:4FEAH         LINE#         40
  C:4FEAH         LINE#         41
  C:4FEAH         LINE#         42
  C:4FF0H         LINE#         43
  C:4FF6H         LINE#         44
  C:4FF6H         LINE#         45
  C:5001H         LINE#         46
  C:5001H         LINE#         47
  -------         ENDPROC       _TIMETICK
  -------         PROC          _MOTORCTR
  C:51F9H         LINE#         50
  C:51F9H         LINE#         51
  C:51F9H         LINE#         52
  -------         ENDPROC       _MOTORCTR
  -------         PROC          _IRDATADEAL
  C:521CH         LINE#         56
  C:521CH         LINE#         57
  C:521CH         LINE#         59
  -------         ENDPROC       _IRDATADEAL
  -------         PROC          _RXDATADEAL
  C:521DH         LINE#         62
  C:521DH         LINE#         63
BL51 BANKED LINKER/LOCATER V6.22                                                      10/29/2015  16:57:16  PAGE 78


  C:521DH         LINE#         65
  -------         ENDPROC       _RXDATADEAL
  -------         PROC          _ENTEREVENTDEAL
  C:51E0H         LINE#         67
  C:51E0H         LINE#         68
  C:51E0H         LINE#         69
  C:51E5H         LINE#         70
  -------         ENDPROC       _ENTEREVENTDEAL
  -------         PROC          _EXITEVENTDEAL
  C:521EH         LINE#         72
  C:521EH         LINE#         73
  C:521EH         LINE#         75
  -------         ENDPROC       _EXITEVENTDEAL
  -------         ENDMOD        STATE_TIMERFNSETTING

  -------         MODULE        STATE_TIMERLOOKUP
  C:0000H         SYMBOL        _ICE_DUMMY_
  C:4EECH         SYMBOL        _enterEventDeal
  C:4A16H         SYMBOL        _keyActionDeal
  C:5222H         SYMBOL        _exitEventDeal
  C:5002H         SYMBOL        _timeTick
  C:5220H         SYMBOL        _irDataDeal
  X:020DH         SYMBOL        timerLookupItem
  C:521FH         SYMBOL        _taskExe
  C:51FCH         SYMBOL        _motorCtr
  C:5221H         SYMBOL        _rxDataDeal
  C:2AE8H         SYMBOL        _displayControl
  C:4B93H         SYMBOL        getNextActiveTimerIndex
  C:4F07H         PUBLIC        State_TimerLookup
  -------         PROC          GETNEXTACTIVETIMERINDEX
  C:4B93H         LINE#         7
  C:4B93H         LINE#         8
  C:4B93H         LINE#         10
  C:4B93H         LINE#         11
  C:4B99H         LINE#         12
  C:4BA0H         LINE#         13
  C:4BA0H         LINE#         14
  C:4BA0H         LINE#         15
  C:4BA0H         LINE#         16
  C:4BC5H         LINE#         17
  -------         ENDPROC       GETNEXTACTIVETIMERINDEX
  -------         PROC          _KEYACTIONDEAL
  C:4A16H         LINE#         19
  C:4A16H         LINE#         20
  C:4A16H         LINE#         21
  C:4A1BH         LINE#         23
  C:4A1EH         LINE#         24
  C:4A1EH         LINE#         26
  C:4A1EH         LINE#         28
  C:4A26H         LINE#         29
  C:4A26H         LINE#         30
  C:4A2DH         LINE#         31
  C:4A2DH         LINE#         32
  C:4A34H         LINE#         33
  C:4A34H         LINE#         35
  C:4A34H         LINE#         37
  C:4A34H         LINE#         38
BL51 BANKED LINKER/LOCATER V6.22                                                      10/29/2015  16:57:16  PAGE 79


  C:4A37H         LINE#         39
  C:4A40H         LINE#         40
  C:4A40H         LINE#         41
  C:4A43H         LINE#         42
  C:4A46H         LINE#         43
  C:4A46H         LINE#         45
  C:4A4FH         LINE#         46
  C:4A4FH         LINE#         47
  C:4A4FH         LINE#         48
  C:4A4FH         LINE#         49
  -------         ENDPROC       _KEYACTIONDEAL
  -------         PROC          _DISPLAYCONTROL
  -------         DO            
  D:0006H         SYMBOL        t1
  D:0005H         SYMBOL        t2
  -------         ENDDO         
  C:2AE8H         LINE#         51
  C:2AE8H         LINE#         52
  C:2AE8H         LINE#         55
  C:2AEBH         LINE#         56
  C:2AEBH         LINE#         57
  C:2AF7H         LINE#         58
  C:2AFEH         LINE#         59
  C:2B04H         LINE#         60
  C:2B04H         LINE#         61
  C:2B0BH         LINE#         62
  C:2B12H         LINE#         63
  C:2B15H         LINE#         65
  C:2B18H         LINE#         66
  C:2B1BH         LINE#         67
  C:2B1BH         LINE#         68
  C:2B1EH         LINE#         71
  C:2B1EH         LINE#         73
  C:2B25H         LINE#         74
  C:2B25H         LINE#         75
  C:2B2CH         LINE#         76
  C:2B2CH         LINE#         78
  C:2B2CH         LINE#         79
  C:2B4FH         LINE#         80
  C:2B6FH         LINE#         82
  C:2B78H         LINE#         84
  C:2B7FH         LINE#         86
  C:2B96H         LINE#         87
  C:2B96H         LINE#         88
  C:2B96H         LINE#         89
  C:2BA2H         LINE#         90
  C:2BA5H         LINE#         91
  C:2BA5H         LINE#         92
  C:2BA9H         LINE#         93
  C:2BA9H         LINE#         94
  C:2BABH         LINE#         95
  C:2BABH         LINE#         96
  C:2BB2H         LINE#         97
  C:2BB5H         LINE#         98
  C:2BB5H         LINE#         99
  C:2BB9H         LINE#         100
  C:2BB9H         LINE#         101
BL51 BANKED LINKER/LOCATER V6.22                                                      10/29/2015  16:57:16  PAGE 80


  C:2BBAH         LINE#         102
  C:2BBAH         LINE#         103
  C:2BC6H         LINE#         104
  C:2BC9H         LINE#         105
  C:2BC9H         LINE#         106
  C:2BD0H         LINE#         107
  C:2BD0H         LINE#         108
  C:2BD1H         LINE#         109
  C:2BD1H         LINE#         110
  C:2BD8H         LINE#         111
  C:2BDBH         LINE#         112
  C:2BDBH         LINE#         113
  C:2BDFH         LINE#         114
  C:2BDFH         LINE#         115
  C:2BE0H         LINE#         116
  C:2BE0H         LINE#         117
  C:2BECH         LINE#         118
  C:2BEFH         LINE#         119
  C:2BEFH         LINE#         120
  C:2BF6H         LINE#         121
  C:2BF6H         LINE#         122
  C:2BF7H         LINE#         123
  C:2BF7H         LINE#         124
  C:2BFEH         LINE#         125
  C:2C01H         LINE#         126
  C:2C01H         LINE#         127
  C:2C05H         LINE#         128
  C:2C05H         LINE#         129
  C:2C05H         LINE#         130
  C:2C05H         LINE#         132
  C:2C05H         LINE#         133
  C:2C05H         LINE#         134
  C:2C05H         LINE#         135
  -------         ENDPROC       _DISPLAYCONTROL
  -------         PROC          _TASKEXE
  C:521FH         LINE#         137
  C:521FH         LINE#         138
  C:521FH         LINE#         140
  -------         ENDPROC       _TASKEXE
  -------         PROC          _TIMETICK
  C:5002H         LINE#         143
  C:5002H         LINE#         144
  C:5002H         LINE#         145
  C:5008H         LINE#         146
  C:500EH         LINE#         147
  C:500EH         LINE#         148
  C:5019H         LINE#         149
  C:5019H         LINE#         150
  -------         ENDPROC       _TIMETICK
  -------         PROC          _MOTORCTR
  C:51FCH         LINE#         153
  C:51FCH         LINE#         154
  C:51FCH         LINE#         155
  -------         ENDPROC       _MOTORCTR
  -------         PROC          _IRDATADEAL
  C:5220H         LINE#         159
  C:5220H         LINE#         160
BL51 BANKED LINKER/LOCATER V6.22                                                      10/29/2015  16:57:16  PAGE 81


  C:5220H         LINE#         162
  -------         ENDPROC       _IRDATADEAL
  -------         PROC          _RXDATADEAL
  C:5221H         LINE#         165
  C:5221H         LINE#         166
  C:5221H         LINE#         168
  -------         ENDPROC       _RXDATADEAL
  -------         PROC          _ENTEREVENTDEAL
  C:4EECH         LINE#         170
  C:4EECH         LINE#         171
  C:4EECH         LINE#         172
  C:4EF1H         LINE#         174
  C:4EF7H         LINE#         175
  C:4EFAH         LINE#         176
  C:4F03H         LINE#         177
  C:4F03H         LINE#         178
  C:4F06H         LINE#         179
  C:4F06H         LINE#         180
  -------         ENDPROC       _ENTEREVENTDEAL
  -------         PROC          _EXITEVENTDEAL
  C:5222H         LINE#         182
  C:5222H         LINE#         183
  C:5222H         LINE#         185
  -------         ENDPROC       _EXITEVENTDEAL
  -------         ENDMOD        STATE_TIMERLOOKUP

  -------         MODULE        STATE_WORK
  C:0000H         SYMBOL        _ICE_DUMMY_
  C:2F3AH         SYMBOL        _enterEventDeal
  X:0197H         SYMBOL        countOfSec
  D:0080H         PUBLIC        P0
  X:0198H         SYMBOL        spOptionBuf
  X:0199H         SYMBOL        dustRecord10Index
  C:29AEH         SYMBOL        _keyActionDeal
  X:019AH         SYMBOL        dustRecord30Index
  C:4F22H         PUBLIC        State_Work
  C:5224H         SYMBOL        _exitEventDeal
  X:019BH         SYMBOL        TotalWorkedMin
  C:0B9DH         SYMBOL        _timeTick
  B:0024H.1       SYMBOL        IsAutoOffSta
  X:019CH         SYMBOL        dustWipeOffCur
  X:019EH         SYMBOL        dustRecord10Cnt
  C:1CE7H         SYMBOL        _irDataDeal
  X:019FH         SYMBOL        dustRecord30Cnt
  C:4164H         SYMBOL        _taskExe
  C:445EH         SYMBOL        _motorCtr
  X:01A0H         SYMBOL        dustRecord10Sum
  C:5223H         SYMBOL        _rxDataDeal
  C:19DBH         SYMBOL        _displayControl
  X:01A2H         SYMBOL        dustRecord30Sum
  X:01A4H         SYMBOL        runStatus
  X:01AAH         SYMBOL        AutoOffCnt
  X:01ACH         SYMBOL        memoryOffCounedown
  X:01ADH         SYMBOL        dustWipeOffBase
  -------         PROC          _KEYACTIONDEAL
  C:29AEH         LINE#         35
  C:29AEH         LINE#         36
BL51 BANKED LINKER/LOCATER V6.22                                                      10/29/2015  16:57:16  PAGE 82


  C:29AEH         LINE#         38
  C:29B4H         LINE#         39
  C:29B4H         LINE#         40
  C:29B6H         LINE#         41
  C:29BCH         LINE#         43
  C:29C2H         LINE#         44
  C:29C5H         LINE#         46
  C:29C5H         LINE#         48
  C:29CBH         LINE#         50
  C:29D1H         LINE#         51
  C:29D1H         LINE#         53
  C:29D1H         LINE#         55
  C:29D9H         LINE#         56
  C:29D9H         LINE#         58
  C:29E4H         LINE#         59
  C:29E4H         LINE#         60
  C:29EFH         LINE#         61
  C:29EFH         LINE#         62
  C:29EFH         LINE#         63
  C:29F2H         LINE#         65
  C:29FDH         LINE#         66
  C:29FDH         LINE#         68
  C:2A05H         LINE#         69
  C:2A05H         LINE#         70
  C:2A0BH         LINE#         71
  C:2A0DH         LINE#         73
  C:2A10H         LINE#         74
  C:2A10H         LINE#         75
  C:2A15H         LINE#         76
  C:2A17H         LINE#         77
  C:2A19H         LINE#         79
  C:2A19H         LINE#         80
  C:2A1FH         LINE#         81
  C:2A25H         LINE#         82
  C:2A25H         LINE#         83
  C:2A27H         LINE#         84
  C:2A2FH         LINE#         85
  C:2A35H         LINE#         86
  C:2A35H         LINE#         87
  C:2A37H         LINE#         88
  C:2A37H         LINE#         89
  C:2A37H         LINE#         90
  C:2A37H         LINE#         93
  C:2A3FH         LINE#         94
  C:2A3FH         LINE#         95
  C:2A43H         LINE#         96
  C:2A43H         LINE#         97
  C:2A45H         LINE#         99
  C:2A4BH         LINE#         100
  C:2A4BH         LINE#         101
  C:2A52H         LINE#         102
  C:2A52H         LINE#         103
  C:2A58H         LINE#         104
  C:2A5CH         LINE#         105
  C:2A5CH         LINE#         106
  C:2A5CH         LINE#         108
  C:2A64H         LINE#         110
BL51 BANKED LINKER/LOCATER V6.22                                                      10/29/2015  16:57:16  PAGE 83


  C:2A64H         LINE#         111
  C:2A66H         LINE#         113
  C:2A6DH         LINE#         114
  C:2A6DH         LINE#         115
  C:2A7EH         LINE#         117
  C:2A7EH         LINE#         118
  C:2A80H         LINE#         120
  C:2A88H         LINE#         121
  C:2A88H         LINE#         122
  C:2A99H         LINE#         124
  C:2A99H         LINE#         125
  C:2A99H         LINE#         126
  C:2A9BH         LINE#         127
  C:2AA3H         LINE#         128
  C:2AA3H         LINE#         129
  C:2AABH         LINE#         130
  C:2AABH         LINE#         131
  C:2AB1H         LINE#         132
  C:2AB3H         LINE#         134
  C:2AB7H         LINE#         135
  C:2ABFH         LINE#         136
  C:2AC7H         LINE#         137
  C:2ACFH         LINE#         139
  C:2AD3H         LINE#         140
  C:2AD5H         LINE#         141
  C:2ADCH         LINE#         142
  C:2ADCH         LINE#         143
  C:2ADEH         LINE#         144
  C:2AE7H         LINE#         145
  C:2AE7H         LINE#         146
  C:2AE7H         LINE#         147
  -------         ENDPROC       _KEYACTIONDEAL
  -------         PROC          _DISPLAYCONTROL
  C:19DBH         LINE#         149
  C:19DBH         LINE#         150
  C:19DBH         LINE#         152
  C:19E1H         LINE#         153
  C:19E1H         LINE#         154
  C:19E7H         LINE#         155
  C:19E7H         LINE#         156
  C:19F5H         LINE#         157
  C:19FCH         LINE#         158
  C:1A0AH         LINE#         159
  C:1A18H         LINE#         161
  C:1A1DH         LINE#         162
  C:1A24H         LINE#         163
  C:1A25H         LINE#         165
  C:1A25H         LINE#         168
  C:1A28H         LINE#         171
  C:1A37H         LINE#         172
  C:1A37H         LINE#         173
  C:1A37H         LINE#         174
  C:1A39H         LINE#         175
  C:1A45H         LINE#         176
  C:1A45H         LINE#         177
  C:1A48H         LINE#         178
  C:1A48H         LINE#         179
BL51 BANKED LINKER/LOCATER V6.22                                                      10/29/2015  16:57:16  PAGE 84


  C:1A56H         LINE#         180
  C:1A56H         LINE#         181
  C:1A56H         LINE#         184
  C:1A5CH         LINE#         185
  C:1A5CH         LINE#         186
  C:1A6AH         LINE#         187
  C:1A6AH         LINE#         190
  C:1A79H         LINE#         191
  C:1A79H         LINE#         192
  C:1A7CH         LINE#         193
  C:1A7CH         LINE#         194
  C:1A83H         LINE#         195
  C:1A83H         LINE#         196
  C:1A83H         LINE#         199
  C:1A98H         LINE#         200
  C:1AA3H         LINE#         201
  C:1AA6H         LINE#         202
  C:1AA6H         LINE#         203
  C:1AAAH         LINE#         204
  C:1AACH         LINE#         206
  C:1AACH         LINE#         207
  C:1ABBH         LINE#         208
  C:1ABBH         LINE#         212
  C:1ABEH         LINE#         213
  C:1ABEH         LINE#         214
  C:1AC3H         LINE#         215
  C:1AC5H         LINE#         216
  C:1AC7H         LINE#         218
  C:1AC7H         LINE#         219
  C:1ACEH         LINE#         220
  C:1AD5H         LINE#         221
  C:1AD5H         LINE#         224
  C:1AE3H         LINE#         225
  C:1AEAH         LINE#         228
  C:1AF9H         LINE#         229
  C:1AFCH         LINE#         230
  C:1AFCH         LINE#         231
  C:1B03H         LINE#         232
  C:1B03H         LINE#         235
  C:1B11H         LINE#         237
  C:1B17H         LINE#         238
  C:1B17H         LINE#         239
  C:1B22H         LINE#         241
  C:1B25H         LINE#         242
  C:1B25H         LINE#         244
  C:1B28H         LINE#         245
  C:1B28H         LINE#         246
  C:1B2FH         LINE#         248
  C:1B36H         LINE#         249
  C:1B3DH         LINE#         251
  C:1B42H         LINE#         252
  C:1B49H         LINE#         253
  C:1B50H         LINE#         254
  C:1B57H         LINE#         255
  C:1B59H         LINE#         256
  C:1B62H         LINE#         257
  C:1B62H         LINE#         258
BL51 BANKED LINKER/LOCATER V6.22                                                      10/29/2015  16:57:16  PAGE 85


  C:1B67H         LINE#         259
  C:1B69H         LINE#         260
  C:1B6BH         LINE#         261
  C:1B74H         LINE#         262
  C:1B74H         LINE#         263
  C:1B79H         LINE#         264
  C:1B7BH         LINE#         265
  C:1B7DH         LINE#         266
  C:1B86H         LINE#         267
  C:1B86H         LINE#         268
  C:1B8BH         LINE#         269
  C:1B8DH         LINE#         270
  C:1B8FH         LINE#         272
  C:1B8FH         LINE#         273
  C:1B94H         LINE#         274
  C:1B96H         LINE#         275
  C:1B96H         LINE#         276
  C:1B98H         LINE#         278
  C:1B98H         LINE#         279
  C:1B9DH         LINE#         280
  C:1B9FH         LINE#         281
  C:1B9FH         LINE#         282
  C:1BA1H         LINE#         284
  C:1BA1H         LINE#         285
  C:1BA9H         LINE#         286
  C:1BB6H         LINE#         287
  C:1BB6H         LINE#         289
  C:1BB9H         LINE#         290
  C:1BB9H         LINE#         292
  C:1BC0H         LINE#         293
  C:1BC0H         LINE#         294
  C:1BCEH         LINE#         295
  C:1BCEH         LINE#         298
  C:1BD5H         LINE#         299
  C:1BD5H         LINE#         300
  C:1BDCH         LINE#         301
  C:1BDCH         LINE#         302
  C:1BDCH         LINE#         305
  C:1BDFH         LINE#         306
  C:1BDFH         LINE#         307
  C:1BEDH         LINE#         308
  C:1BEDH         LINE#         311
  C:1BF5H         LINE#         312
  C:1BF5H         LINE#         313
  C:1C01H         LINE#         314
  C:1C08H         LINE#         315
  C:1C17H         LINE#         316
  C:1C17H         LINE#         317
  C:1C17H         LINE#         318
  C:1C1EH         LINE#         319
  C:1C1EH         LINE#         320
  C:1C20H         LINE#         321
  C:1C20H         LINE#         322
  C:1C27H         LINE#         323
  C:1C27H         LINE#         324
  C:1C29H         LINE#         325
  C:1C29H         LINE#         326
BL51 BANKED LINKER/LOCATER V6.22                                                      10/29/2015  16:57:16  PAGE 86


  C:1C2DH         LINE#         327
  C:1C2DH         LINE#         328
  C:1C2FH         LINE#         329
  C:1C2FH         LINE#         330
  C:1C2FH         LINE#         331
  C:1C36H         LINE#         332
  C:1C3DH         LINE#         333
  C:1C40H         LINE#         334
  C:1C43H         LINE#         335
  C:1C46H         LINE#         336
  C:1C46H         LINE#         337
  C:1C49H         LINE#         338
  C:1C49H         LINE#         339
  C:1C49H         LINE#         341
  C:1C49H         LINE#         342
  C:1C51H         LINE#         343
  C:1C51H         LINE#         344
  C:1C58H         LINE#         345
  C:1C5BH         LINE#         346
  C:1C5BH         LINE#         347
  C:1C74H         LINE#         348
  C:1C74H         LINE#         349
  C:1C7BH         LINE#         350
  C:1C7BH         LINE#         351
  C:1C7DH         LINE#         352
  C:1C85H         LINE#         353
  C:1C85H         LINE#         354
  C:1C9FH         LINE#         355
  C:1C9FH         LINE#         356
  C:1CA6H         LINE#         357
  C:1CA6H         LINE#         358
  C:1CA8H         LINE#         359
  C:1CACH         LINE#         360
  C:1CACH         LINE#         361
  C:1CC6H         LINE#         362
  C:1CC6H         LINE#         363
  C:1CCDH         LINE#         364
  C:1CCDH         LINE#         365
  C:1CCDH         LINE#         366
  C:1CCDH         LINE#         367
  C:1CCDH         LINE#         370
  C:1CD6H         LINE#         371
  C:1CD6H         LINE#         372
  C:1CD9H         LINE#         373
  C:1CDDH         LINE#         374
  C:1CE1H         LINE#         375
  C:1CE2H         LINE#         377
  C:1CE2H         LINE#         378
  C:1CE6H         LINE#         379
  C:1CE6H         LINE#         380
  -------         ENDPROC       _DISPLAYCONTROL
  -------         PROC          _TASKEXE
  C:4164H         LINE#         382
  C:4164H         LINE#         383
  C:4164H         LINE#         384
  C:416BH         LINE#         387
  C:4171H         LINE#         388
BL51 BANKED LINKER/LOCATER V6.22                                                      10/29/2015  16:57:16  PAGE 87


  C:4171H         LINE#         390
  C:4171H         LINE#         392
  C:417BH         LINE#         393
  C:417BH         LINE#         394
  C:417FH         LINE#         395
  C:4181H         LINE#         397
  C:4181H         LINE#         398
  C:4185H         LINE#         399
  C:4185H         LINE#         401
  C:418FH         LINE#         402
  C:418FH         LINE#         403
  C:4193H         LINE#         404
  C:4195H         LINE#         406
  C:4195H         LINE#         407
  C:4199H         LINE#         408
  C:4199H         LINE#         410
  C:419CH         LINE#         411
  C:419CH         LINE#         412
  C:41A3H         LINE#         414
  C:41AAH         LINE#         415
  C:41ABH         LINE#         417
  C:41ABH         LINE#         418
  C:41B2H         LINE#         420
  C:41B7H         LINE#         421
  C:41B7H         LINE#         423
  C:41B7H         LINE#         425
  C:41B7H         LINE#         427
  C:41BEH         LINE#         428
  C:41BEH         LINE#         435
  C:41D6H         LINE#         436
  C:41D6H         LINE#         437
  C:41D6H         LINE#         438
  C:41D8H         LINE#         439
  C:41E7H         LINE#         440
  C:41E7H         LINE#         441
  C:41EEH         LINE#         442
  C:41EEH         LINE#         443
  C:41EEH         LINE#         444
  -------         ENDPROC       _TASKEXE
  -------         PROC          _TIMETICK
  -------         DO            
  X:01BAH         SYMBOL        index
  D:0006H         SYMBOL        t
  -------         ENDDO         
  C:0B9DH         LINE#         447
  C:0B9DH         LINE#         448
  C:0B9DH         LINE#         452
  C:0BA3H         LINE#         453
  C:0BA3H         LINE#         454
  C:0BA5H         LINE#         455
  C:0BA8H         LINE#         456
  C:0BA8H         LINE#         457
  C:0BB3H         LINE#         458
  C:0BBCH         LINE#         459
  C:0BBCH         LINE#         460
  C:0BBCH         LINE#         462
  C:0BC5H         LINE#         463
BL51 BANKED LINKER/LOCATER V6.22                                                      10/29/2015  16:57:16  PAGE 88


  C:0BC5H         LINE#         464
  C:0BCBH         LINE#         465
  C:0BCBH         LINE#         466
  C:0BD2H         LINE#         467
  C:0BD4H         LINE#         468
  C:0BE3H         LINE#         469
  C:0BE3H         LINE#         470
  C:0BEFH         LINE#         471
  C:0BFEH         LINE#         472
  C:0BFEH         LINE#         473
  C:0C04H         LINE#         474
  C:0C04H         LINE#         475
  C:0C04H         LINE#         478
  C:0C07H         LINE#         479
  C:0C07H         LINE#         480
  C:0C0EH         LINE#         481
  C:0C0EH         LINE#         482
  C:0C1CH         LINE#         483
  C:0C2BH         LINE#         484
  C:0C2BH         LINE#         485
  C:0C2DH         LINE#         486
  C:0C2DH         LINE#         487
  C:0C2FH         LINE#         489
  C:0C2FH         LINE#         490
  C:0C2FH         LINE#         491
  C:0C2FH         LINE#         492
  C:0C2FH         LINE#         493
  C:0C31H         LINE#         495
  C:0C31H         LINE#         496
  C:0C33H         LINE#         497
  C:0C3AH         LINE#         498
  C:0C3AH         LINE#         501
  C:0C40H         LINE#         502
  C:0C40H         LINE#         503
  C:0C42H         LINE#         504
  C:0C45H         LINE#         505
  C:0C45H         LINE#         506
  C:0C47H         LINE#         507
  C:0C4DH         LINE#         508
  C:0C4DH         LINE#         509
  C:0C4DH         LINE#         512
  C:0C53H         LINE#         514
  C:0C67H         LINE#         516
  C:0C73H         LINE#         517
  C:0C73H         LINE#         518
  C:0C75H         LINE#         520
  C:0C7BH         LINE#         521
  C:0C80H         LINE#         522
  C:0C80H         LINE#         523
  C:0C82H         LINE#         525
  C:0C88H         LINE#         526
  C:0C88H         LINE#         528
  C:0C8EH         LINE#         529
  C:0C94H         LINE#         530
  C:0C94H         LINE#         531
  C:0C96H         LINE#         533
  C:0CA4H         LINE#         534
BL51 BANKED LINKER/LOCATER V6.22                                                      10/29/2015  16:57:16  PAGE 89


  C:0CA4H         LINE#         536
  C:0CB2H         LINE#         537
  C:0CB2H         LINE#         538
  C:0CB7H         LINE#         539
  C:0CB7H         LINE#         540
  C:0CC6H         LINE#         541
  C:0CC6H         LINE#         542
  C:0CC6H         LINE#         543
  C:0CC8H         LINE#         545
  C:0CC8H         LINE#         546
  C:0CD7H         LINE#         547
  C:0CE4H         LINE#         548
  C:0CE4H         LINE#         549
  C:0CFAH         LINE#         550
  C:0CFAH         LINE#         551
  C:0D02H         LINE#         552
  C:0D09H         LINE#         553
  C:0D09H         LINE#         554
  C:0D09H         LINE#         555
  C:0D09H         LINE#         557
  C:0D0FH         LINE#         558
  C:0D0FH         LINE#         559
  C:0D23H         LINE#         560
  C:0D29H         LINE#         561
  C:0D32H         LINE#         562
  C:0D32H         LINE#         563
  C:0D34H         LINE#         566
  C:0D3DH         LINE#         567
  C:0D3DH         LINE#         568
  C:0D4DH         LINE#         569
  C:0D4DH         LINE#         570
  C:0D77H         LINE#         571
  C:0D7FH         LINE#         572
  C:0D96H         LINE#         574
  C:0D9DH         LINE#         575
  C:0DA3H         LINE#         576
  C:0DA3H         LINE#         577
  C:0DA7H         LINE#         579
  C:0DADH         LINE#         580
  C:0DB3H         LINE#         581
  C:0DB3H         LINE#         582
  C:0DB5H         LINE#         583
  C:0DB5H         LINE#         584
  C:0DB5H         LINE#         585
  C:0DB7H         LINE#         587
  C:0DB7H         LINE#         588
  C:0DBAH         LINE#         589
  C:0DBAH         LINE#         590
  C:0DC2H         LINE#         591
  C:0DCAH         LINE#         592
  C:0DCAH         LINE#         593
  C:0DEDH         LINE#         594
  C:0DEDH         LINE#         596
  C:0DF3H         LINE#         597
  C:0DF9H         LINE#         598
  C:0DF9H         LINE#         599
  C:0DFCH         LINE#         600
BL51 BANKED LINKER/LOCATER V6.22                                                      10/29/2015  16:57:16  PAGE 90


  C:0DFCH         LINE#         602
  C:0E03H         LINE#         603
  C:0E03H         LINE#         606
  C:0E17H         LINE#         607
  C:0E1DH         LINE#         608
  C:0E26H         LINE#         609
  C:0E26H         LINE#         610
  C:0E28H         LINE#         613
  C:0E31H         LINE#         614
  C:0E31H         LINE#         615
  C:0E41H         LINE#         616
  C:0E41H         LINE#         617
  C:0E6BH         LINE#         618
  C:0E73H         LINE#         619
  C:0E8AH         LINE#         621
  C:0E91H         LINE#         622
  C:0E97H         LINE#         623
  C:0E97H         LINE#         624
  C:0E9BH         LINE#         626
  C:0EA1H         LINE#         627
  C:0EA7H         LINE#         628
  C:0EA7H         LINE#         629
  C:0EA9H         LINE#         630
  C:0EA9H         LINE#         631
  C:0EA9H         LINE#         632
  C:0EABH         LINE#         634
  C:0EABH         LINE#         635
  C:0EAEH         LINE#         636
  C:0EAEH         LINE#         637
  C:0EB6H         LINE#         638
  C:0EBEH         LINE#         639
  C:0EBEH         LINE#         640
  C:0EE1H         LINE#         641
  C:0EE1H         LINE#         643
  C:0EE7H         LINE#         644
  C:0EEDH         LINE#         645
  C:0EEDH         LINE#         646
  C:0EF0H         LINE#         647
  C:0EF0H         LINE#         648
  C:0EF0H         LINE#         652
  C:0EF7H         LINE#         653
  C:0EF7H         LINE#         654
  C:0F03H         LINE#         655
  C:0F03H         LINE#         656
  C:0F44H         LINE#         658
  C:0F44H         LINE#         659
  C:0F44H         LINE#         660
  C:0F44H         LINE#         661
  C:0F44H         LINE#         662
  C:0F44H         LINE#         663
  C:0F47H         LINE#         665
  C:0F47H         LINE#         666
  C:0F52H         LINE#         667
  C:0F52H         LINE#         668
  C:0F58H         LINE#         669
  C:0F7CH         LINE#         670
  C:0F7CH         LINE#         671
BL51 BANKED LINKER/LOCATER V6.22                                                      10/29/2015  16:57:16  PAGE 91


  C:0F82H         LINE#         672
  C:0F82H         LINE#         674
  C:0F89H         LINE#         675
  C:0F89H         LINE#         677
  C:0F94H         LINE#         678
  C:0F94H         LINE#         679
  C:0F9FH         LINE#         680
  C:0FA8H         LINE#         681
  C:0FA8H         LINE#         682
  C:0FAAH         LINE#         684
  C:0FAAH         LINE#         685
  C:1005H         LINE#         687
  C:1005H         LINE#         688
  C:100EH         LINE#         689
  C:1019H         LINE#         690
  C:1019H         LINE#         691
  C:1019H         LINE#         692
  C:1019H         LINE#         693
  C:1019H         LINE#         695
  C:101FH         LINE#         696
  C:101FH         LINE#         697
  C:103EH         LINE#         699
  C:1059H         LINE#         700
  C:1059H         LINE#         701
  C:1060H         LINE#         703
  C:108AH         LINE#         704
  C:108AH         LINE#         705
  C:108CH         LINE#         706
  C:108CH         LINE#         707
  C:108EH         LINE#         709
  C:108EH         LINE#         710
  C:10C1H         LINE#         711
  C:10C1H         LINE#         712
  C:10C1H         LINE#         715
  C:10DFH         LINE#         716
  C:10DFH         LINE#         717
  C:10DFH         LINE#         718
  C:10E5H         LINE#         719
  C:10EEH         LINE#         720
  C:10EEH         LINE#         721
  C:10F0H         LINE#         723
  C:10FEH         LINE#         724
  C:110CH         LINE#         725
  C:110CH         LINE#         727
  C:110DH         LINE#         728
  C:110DH         LINE#         729
  C:1113H         LINE#         730
  C:111CH         LINE#         731
  C:111CH         LINE#         732
  C:111EH         LINE#         734
  C:112CH         LINE#         735
  C:113AH         LINE#         736
  C:113AH         LINE#         737
  C:113BH         LINE#         738
  C:113BH         LINE#         739
  C:1141H         LINE#         740
  C:1147H         LINE#         741
BL51 BANKED LINKER/LOCATER V6.22                                                      10/29/2015  16:57:16  PAGE 92


  C:1147H         LINE#         742
  C:1149H         LINE#         744
  C:1157H         LINE#         745
  C:1165H         LINE#         746
  C:1165H         LINE#         747
  C:1166H         LINE#         748
  C:1166H         LINE#         749
  C:116CH         LINE#         750
  C:1172H         LINE#         751
  C:1172H         LINE#         752
  C:1174H         LINE#         754
  C:1182H         LINE#         755
  C:1190H         LINE#         756
  C:1190H         LINE#         757
  C:1191H         LINE#         758
  C:1191H         LINE#         759
  C:1197H         LINE#         760
  C:119DH         LINE#         761
  C:119DH         LINE#         762
  C:119FH         LINE#         764
  C:11ADH         LINE#         765
  C:11BBH         LINE#         766
  C:11BBH         LINE#         767
  C:11BBH         LINE#         768
  C:11BBH         LINE#         769
  C:11BBH         LINE#         770
  -------         ENDPROC       _TIMETICK
  -------         PROC          _MOTORCTR
  C:445EH         LINE#         773
  C:445EH         LINE#         774
  C:445EH         LINE#         776
  C:4461H         LINE#         777
  C:4461H         LINE#         778
  C:4464H         LINE#         779
  C:4464H         LINE#         781
  C:4464H         LINE#         782
  C:4467H         LINE#         783
  C:4467H         LINE#         784
  C:446AH         LINE#         785
  C:446AH         LINE#         786
  C:4473H         LINE#         787
  C:4473H         LINE#         788
  C:4473H         LINE#         789
  C:4475H         LINE#         790
  C:447EH         LINE#         791
  C:447EH         LINE#         792
  C:447EH         LINE#         793
  C:4480H         LINE#         794
  C:4489H         LINE#         795
  C:4489H         LINE#         796
  C:4489H         LINE#         797
  C:448BH         LINE#         804
  C:448BH         LINE#         805
  C:448BH         LINE#         806
  C:448BH         LINE#         807
  C:448DH         LINE#         809
  C:448DH         LINE#         810
BL51 BANKED LINKER/LOCATER V6.22                                                      10/29/2015  16:57:16  PAGE 93


  C:44A2H         LINE#         811
  C:44A2H         LINE#         812
  C:44A2H         LINE#         813
  C:44A6H         LINE#         814
  C:44A8H         LINE#         815
  C:44A8H         LINE#         816
  C:44ACH         LINE#         817
  C:44AEH         LINE#         818
  C:44AEH         LINE#         819
  C:44B2H         LINE#         820
  C:44B4H         LINE#         821
  C:44B4H         LINE#         822
  C:44B8H         LINE#         823
  C:44BAH         LINE#         824
  C:44BAH         LINE#         825
  C:44C1H         LINE#         826
  C:44C1H         LINE#         827
  C:44C1H         LINE#         828
  C:44C1H         LINE#         829
  C:44C1H         LINE#         830
  C:44C1H         LINE#         831
  C:44C1H         LINE#         832
  -------         ENDPROC       _MOTORCTR
  -------         PROC          _IRDATADEAL
  C:1CE7H         LINE#         835
  C:1CE7H         LINE#         836
  C:1CE7H         LINE#         838
  C:1CEDH         LINE#         839
  C:1CEDH         LINE#         840
  C:1CEFH         LINE#         841
  C:1CF5H         LINE#         843
  C:1CFCH         LINE#         845
  C:1CFCH         LINE#         846
  C:1D02H         LINE#         849
  C:1D0DH         LINE#         850
  C:1D0DH         LINE#         851
  C:1D16H         LINE#         852
  C:1D21H         LINE#         853
  C:1D21H         LINE#         855
  C:1D2FH         LINE#         856
  C:1D2FH         LINE#         857
  C:1D35H         LINE#         858
  C:1D37H         LINE#         860
  C:1D39H         LINE#         861
  C:1D41H         LINE#         863
  C:1D47H         LINE#         864
  C:1D47H         LINE#         865
  C:1D49H         LINE#         866
  C:1D49H         LINE#         867
  C:1D49H         LINE#         868
  C:1D4BH         LINE#         869
  C:1D57H         LINE#         870
  C:1D57H         LINE#         871
  C:1D5EH         LINE#         872
  C:1D60H         LINE#         874
  C:1D65H         LINE#         876
  C:1D67H         LINE#         878
BL51 BANKED LINKER/LOCATER V6.22                                                      10/29/2015  16:57:16  PAGE 94


  C:1D6CH         LINE#         879
  C:1D70H         LINE#         881
  C:1D75H         LINE#         883
  C:1D7AH         LINE#         885
  C:1D7DH         LINE#         886
  C:1D8BH         LINE#         887
  C:1D8BH         LINE#         888
  C:1D91H         LINE#         889
  C:1D93H         LINE#         891
  C:1D99H         LINE#         892
  C:1D9BH         LINE#         894
  C:1DA2H         LINE#         895
  C:1DA2H         LINE#         896
  C:1DA8H         LINE#         897
  C:1DACH         LINE#         898
  C:1DACH         LINE#         899
  C:1DB4H         LINE#         901
  C:1DBAH         LINE#         902
  C:1DBDH         LINE#         903
  C:1DCBH         LINE#         904
  C:1DCBH         LINE#         905
  C:1DD1H         LINE#         906
  C:1DD3H         LINE#         908
  C:1DD9H         LINE#         909
  C:1DDBH         LINE#         911
  C:1DE2H         LINE#         912
  C:1DE2H         LINE#         913
  C:1DE8H         LINE#         914
  C:1DECH         LINE#         915
  C:1DECH         LINE#         916
  C:1DF4H         LINE#         918
  C:1DFAH         LINE#         919
  C:1DFDH         LINE#         920
  C:1E0BH         LINE#         921
  C:1E0BH         LINE#         922
  C:1E11H         LINE#         923
  C:1E13H         LINE#         925
  C:1E19H         LINE#         926
  C:1E1BH         LINE#         928
  C:1E22H         LINE#         929
  C:1E22H         LINE#         930
  C:1E28H         LINE#         931
  C:1E2CH         LINE#         932
  C:1E2CH         LINE#         933
  C:1E34H         LINE#         935
  C:1E3AH         LINE#         936
  C:1E3DH         LINE#         937
  C:1E4BH         LINE#         938
  C:1E4BH         LINE#         939
  C:1E51H         LINE#         940
  C:1E53H         LINE#         942
  C:1E59H         LINE#         943
  C:1E5BH         LINE#         945
  C:1E62H         LINE#         946
  C:1E62H         LINE#         947
  C:1E68H         LINE#         948
  C:1E6CH         LINE#         949
BL51 BANKED LINKER/LOCATER V6.22                                                      10/29/2015  16:57:16  PAGE 95


  C:1E6CH         LINE#         950
  C:1E74H         LINE#         952
  C:1E7AH         LINE#         953
  C:1E7CH         LINE#         954
  C:1E88H         LINE#         955
  C:1E88H         LINE#         956
  C:1E99H         LINE#         957
  C:1E9FH         LINE#         958
  C:1EA1H         LINE#         959
  C:1EADH         LINE#         960
  C:1EADH         LINE#         961
  C:1EBEH         LINE#         962
  C:1EC7H         LINE#         963
  C:1EC7H         LINE#         964
  -------         ENDPROC       _IRDATADEAL
  -------         PROC          _RXDATADEAL
  C:5223H         LINE#         967
  C:5223H         LINE#         968
  C:5223H         LINE#         970
  -------         ENDPROC       _RXDATADEAL
  -------         PROC          _ENTEREVENTDEAL
  -------         DO            
  D:0007H         SYMBOL        i
  -------         ENDDO         
  C:2F3AH         LINE#         972
  C:2F3AH         LINE#         973
  C:2F3AH         LINE#         976
  C:2F40H         LINE#         978
  C:2F42H         LINE#         979
  C:2F44H         LINE#         980
  C:2F49H         LINE#         982
  C:2F4FH         LINE#         984
  C:2F53H         LINE#         985
  C:2F57H         LINE#         986
  C:2F5DH         LINE#         987
  C:2F61H         LINE#         988
  C:2F65H         LINE#         989
  C:2F6BH         LINE#         992
  C:2F71H         LINE#         994
  C:2F77H         LINE#         995
  C:2F7AH         LINE#         998
  C:2F7DH         LINE#         999
  C:2F7DH         LINE#         1000
  C:2F7FH         LINE#         1001
  C:2F85H         LINE#         1002
  C:2F8BH         LINE#         1003
  C:2F8BH         LINE#         1004
  C:2F8DH         LINE#         1006
  C:2F8DH         LINE#         1007
  C:2F91H         LINE#         1008
  C:2F99H         LINE#         1009
  C:2FA1H         LINE#         1010
  C:2FA9H         LINE#         1011
  C:2FA9H         LINE#         1013
  C:2FB1H         LINE#         1015
  C:2FB6H         LINE#         1017
  C:2FBCH         LINE#         1019
BL51 BANKED LINKER/LOCATER V6.22                                                      10/29/2015  16:57:16  PAGE 96


  C:2FC0H         LINE#         1020
  C:2FC2H         LINE#         1022
  C:2FCFH         LINE#         1023
  C:2FCFH         LINE#         1024
  C:2FD4H         LINE#         1026
  C:2FDBH         LINE#         1027
  C:2FE1H         LINE#         1028
  C:2FE7H         LINE#         1029
  C:2FEDH         LINE#         1030
  C:2FF3H         LINE#         1031
  C:2FF3H         LINE#         1033
  C:2FFAH         LINE#         1034
  C:3000H         LINE#         1036
  C:3006H         LINE#         1039
  C:3007H         LINE#         1040
  C:3007H         LINE#         1041
  C:3017H         LINE#         1042
  C:3027H         LINE#         1043
  C:302CH         LINE#         1044
  C:3035H         LINE#         1045
  C:303EH         LINE#         1046
  C:3043H         LINE#         1047
  C:3046H         LINE#         1048
  -------         ENDPROC       _ENTEREVENTDEAL
  -------         PROC          _EXITEVENTDEAL
  C:5224H         LINE#         1050
  C:5224H         LINE#         1051
  C:5224H         LINE#         1053
  -------         ENDPROC       _EXITEVENTDEAL
  -------         ENDMOD        STATE_WORK

  -------         MODULE        ?C?FPMUL
  C:15D3H         PUBLIC        ?C?FPMUL
  -------         ENDMOD        ?C?FPMUL

  -------         MODULE        ?C?FCAST
  C:16E3H         PUBLIC        ?C?FCASTC
  C:16DEH         PUBLIC        ?C?FCASTI
  C:16D9H         PUBLIC        ?C?FCASTL
  -------         ENDMOD        ?C?FCAST

  -------         MODULE        ?C?CASTF
  C:1717H         PUBLIC        ?C?CASTF
  -------         ENDMOD        ?C?CASTF

  -------         MODULE        ?C?CLDPTR
  C:1798H         PUBLIC        ?C?CLDPTR
  -------         ENDMOD        ?C?CLDPTR

  -------         MODULE        ?C?CLDOPTR
  C:17B1H         PUBLIC        ?C?CLDOPTR
  -------         ENDMOD        ?C?CLDOPTR

  -------         MODULE        ?C?CSTPTR
  C:17DEH         PUBLIC        ?C?CSTPTR
  -------         ENDMOD        ?C?CSTPTR

BL51 BANKED LINKER/LOCATER V6.22                                                      10/29/2015  16:57:16  PAGE 97


  -------         MODULE        ?C?CSTOPTR
  C:17F0H         PUBLIC        ?C?CSTOPTR
  -------         ENDMOD        ?C?CSTOPTR

  -------         MODULE        ?C?UIDIV
  C:1812H         PUBLIC        ?C?UIDIV
  -------         ENDMOD        ?C?UIDIV

  -------         MODULE        ?C?ILDOPTR
  C:1867H         PUBLIC        ?C?ILDOPTR
  -------         ENDMOD        ?C?ILDOPTR

  -------         MODULE        ?C?ULDIV
  C:18DBH         PUBLIC        ?C?ULDIV
  -------         ENDMOD        ?C?ULDIV

  -------         MODULE        ?C?LNEG
  C:196DH         PUBLIC        ?C?LNEG
  -------         ENDMOD        ?C?LNEG

  -------         MODULE        ?C?ULCMP
  C:197BH         PUBLIC        ?C?ULCMP
  -------         ENDMOD        ?C?ULCMP

  -------         MODULE        ?C?LSTXDATA
  C:198CH         PUBLIC        ?C?LSTXDATA
  -------         ENDMOD        ?C?LSTXDATA

  -------         MODULE        ?C?LSTKXDATA
  C:1998H         PUBLIC        ?C?LSTKXDATA
  -------         ENDMOD        ?C?LSTKXDATA

  -------         MODULE        ?C?OFFXADD
  C:19C9H         PUBLIC        ?C?OFFXADD
  -------         ENDMOD        ?C?OFFXADD

  -------         MODULE        ?C?ICALL
  C:19D5H         PUBLIC        ?C?ICALL
  C:19D9H         PUBLIC        ?C?ICALL2
  -------         ENDMOD        ?C?ICALL

Program Size: data=30.2 xdata=526 code=21029
LINK/LOCATE RUN COMPLETE.  0 WARNING(S),  0 ERROR(S)
