BL51 BANKED LINKER/LOCATER V6.22                                                        10/13/2015  15:22:36  PAGE 1


BL51 BANKED LINKER/LOCATER V6.22, INVOKED BY:
C:\KEIL_V5\C51\BIN\BL51.EXE .\it.obj, startup.obj, .\main.obj, .\bsp_init.obj, .\aip1944.obj, .\display.obj, .\buzzer.ob
>> j, .\ir.obj, .\humidity.obj, .\dust.obj, .\motor.obj, .\system.obj, .\key.obj, .\fifo.obj, .\protocol.obj, .\uart.obj
>> , .\fsm.obj, .\state_test.obj, .\state_startup.obj, .\state_standby.obj, .\state_clockSetting.obj, .\state_echeck.obj
>> , .\state_timerSetting.obj, .\state_timerFnSetting.obj, .\state_timerLookup.obj, .\state_work.obj TO YTN-E608-WIFI-64
>> 32 RAMSIZE (256) DISABLEWARNING (16, 15, 13) CODE (0X0000-0X7FFF) XDATA (0X0000-0X02FF)




PROGRAM RECURSIONS REMOVED FROM CALL TREE
=========================================
+--> ?CO?STATE_STANDBY
|  | ?PR?_KEYACTIONDEAL?STATE_STANDBY
|  | ?CO?STATE_WORK
<--+ ?PR?_TIMETICK?STATE_WORK



MEMORY MODEL: LARGE WITH FLOATING POINT ARITHMETIC


INPUT MODULES INCLUDED:
  .\it.obj (IT)
  startup.obj (?C_STARTUP)
  .\main.obj (MAIN)
  .\bsp_init.obj (BSP_INIT)
  .\aip1944.obj (AIP1944)
  .\display.obj (DISPLAY)
  .\buzzer.obj (BUZZER)
  .\ir.obj (IR)
  .\humidity.obj (HUMIDITY)
  .\dust.obj (DUST)
  .\motor.obj (MOTOR)
  .\system.obj (SYSTEM)
  .\key.obj (KEY)
  .\fifo.obj (FIFO)
  .\protocol.obj (PROTOCOL)
  .\uart.obj (UART)
  .\fsm.obj (FSM)
  .\state_test.obj (STATE_TEST)
  .\state_startup.obj (STATE_STARTUP)
  .\state_standby.obj (STATE_STANDBY)
  .\state_clockSetting.obj (STATE_CLOCKSETTING)
  .\state_echeck.obj (STATE_ECHECK)
  .\state_timerSetting.obj (STATE_TIMERSETTING)
  .\state_timerFnSetting.obj (STATE_TIMERFNSETTING)
  .\state_timerLookup.obj (STATE_TIMERLOOKUP)
  .\state_work.obj (STATE_WORK)
  C:\KEIL_V5\C51\LIB\C51FPL.LIB (?C?FPMUL)
  C:\KEIL_V5\C51\LIB\C51FPL.LIB (?C?FCAST)
  C:\KEIL_V5\C51\LIB\C51FPL.LIB (?C?CASTF)
  C:\KEIL_V5\C51\LIB\C51FPL.LIB (?C?FPGETOPN)
  C:\KEIL_V5\C51\LIB\C51L.LIB (?C_INIT)
  C:\KEIL_V5\C51\LIB\C51L.LIB (?C?CLDPTR)
  C:\KEIL_V5\C51\LIB\C51L.LIB (?C?CLDOPTR)
  C:\KEIL_V5\C51\LIB\C51L.LIB (?C?CSTPTR)
  C:\KEIL_V5\C51\LIB\C51L.LIB (?C?CSTOPTR)
BL51 BANKED LINKER/LOCATER V6.22                                                      10/13/2015  15:22:36  PAGE 2


  C:\KEIL_V5\C51\LIB\C51L.LIB (?C?UIDIV)
  C:\KEIL_V5\C51\LIB\C51L.LIB (?C?ILDOPTR)
  C:\KEIL_V5\C51\LIB\C51L.LIB (?C?ULDIV)
  C:\KEIL_V5\C51\LIB\C51L.LIB (?C?LNEG)
  C:\KEIL_V5\C51\LIB\C51L.LIB (?C?ULCMP)
  C:\KEIL_V5\C51\LIB\C51L.LIB (?C?LSTXDATA)
  C:\KEIL_V5\C51\LIB\C51L.LIB (?C?LSTKXDATA)
  C:\KEIL_V5\C51\LIB\C51L.LIB (?C?OFFXADD)
  C:\KEIL_V5\C51\LIB\C51L.LIB (?C?ICALL)


LINK MAP OF MODULE:  YTN-E608-WIFI-6432 (IT)


            TYPE    BASE      LENGTH    RELOCATION   SEGMENT NAME
            -----------------------------------------------------

            * * * * * * *   D A T A   M E M O R Y   * * * * * * *
            REG     0000H     0008H     ABSOLUTE     "REG BANK 0"
            IDATA   0008H     000BH     UNIT         ?ID?IT
            IDATA   0013H     0003H     UNIT         ?ID?MAIN
            IDATA   0016H     0003H     UNIT         ?ID?HUMIDITY
                    0019H     0007H                  *** GAP ***
            BIT     0020H.0   0000H.7   UNIT         _BIT_GROUP_
            BIT     0020H.7   0000H.6   UNIT         ?BI?SYSTEM
            BIT     0021H.5   0000H.3   UNIT         ?BI?DISPLAY
            BIT     0022H.0   0000H.3   UNIT         ?BI?MOTOR
            BIT     0022H.3   0000H.2   UNIT         ?BI?DUST
            BIT     0022H.5   0000H.2   UNIT         ?BI?UART
            BIT     0022H.7   0000H.1   UNIT         ?BI?BUZZER
            BIT     0023H.0   0000H.1   UNIT         ?BI?IR
            BIT     0023H.1   0000H.1   UNIT         ?BI?HUMIDITY
            BIT     0023H.2   0000H.1   UNIT         ?BI?KEY
            BIT     0023H.3   0000H.1   UNIT         ?BI?PROTOCOL
            BIT     0023H.4   0000H.1   UNIT         ?BI?STATE_STANDBY
            BIT     0023H.5   0000H.1   UNIT         ?BI?STATE_ECHECK
            BIT     0023H.6   0000H.1   UNIT         ?BI?STATE_WORK
                    0023H.7   0000H.1                *** GAP ***
            IDATA   0024H     0001H     UNIT         ?STACK

            * * * * * * *  X D A T A   M E M O R Y  * * * * * * *
            XDATA   0000H     00D8H     UNIT         ?XD?UART
            XDATA   00D8H     0078H     UNIT         ?XD?SYSTEM
            XDATA   0150H     0042H     UNIT         ?XD?DISPLAY
            XDATA   0192H     0017H     UNIT         _XDATA_GROUP_
            XDATA   01A9H     0015H     UNIT         ?XD?DUST
            XDATA   01BEH     0011H     UNIT         ?XD?HUMIDITY
            XDATA   01CFH     0011H     UNIT         ?XD?STATE_WORK
            XDATA   01E0H     0008H     UNIT         ?XD?MOTOR
            XDATA   01E8H     0004H     UNIT         ?XD?IT
            XDATA   01ECH     0004H     UNIT         ?XD?BUZZER
            XDATA   01F0H     0004H     UNIT         ?XD?KEY
            XDATA   01F4H     0004H     UNIT         ?XD?PROTOCOL
            XDATA   01F8H     0002H     UNIT         ?XD?IR
            XDATA   01FAH     0002H     UNIT         ?XD?FSM
            XDATA   01FCH     0002H     UNIT         ?XD?STATE_STANDBY
            XDATA   01FEH     0001H     UNIT         ?XD?AIP1944
BL51 BANKED LINKER/LOCATER V6.22                                                      10/13/2015  15:22:36  PAGE 3


            XDATA   01FFH     0001H     UNIT         ?XD?STATE_CLOCKSETTING
            XDATA   0200H     0001H     UNIT         ?XD?STATE_TIMERSETTING
            XDATA   0201H     0001H     UNIT         ?XD?STATE_TIMERLOOKUP

            * * * * * * *   C O D E   M E M O R Y   * * * * * * *
            CODE    0000H     0003H     ABSOLUTE     
            CODE    0003H     0018H     UNIT         ?PR?TIMER1_INIT?BSP_INIT
            CODE    001BH     0003H     ABSOLUTE     
            CODE    001EH     0005H     UNIT         ?PR?CMD_GET_SYS_STA_DEAL?PROTOCOL
            CODE    0023H     0003H     ABSOLUTE     
            CODE    0026H     0044H     UNIT         ?PR?UART_SENDSTARTUP?UART
            CODE    006AH     0001H     UNIT         ?PR?CMD_DUMMY_DEAL?PROTOCOL
            CODE    006BH     0003H     ABSOLUTE     
            CODE    006EH     0034H     UNIT         ?PR?_DISPLAY_SPLEVEL?DISPLAY
            CODE    00A2H     0001H     UNIT         ?PR?TASK_DONOTHING?FSM
            CODE    00A3H     0003H     ABSOLUTE     
            CODE    00A6H     000DH     UNIT         ?PR?BIT_INIT?BSP_INIT
            CODE    00B3H     0003H     ABSOLUTE     
            CODE    00B6H     0AE7H     UNIT         ?CO?HUMIDITY
            CODE    0B9DH     0557H     UNIT         ?PR?_TIMETICK?STATE_WORK
            CODE    10F4H     0417H     UNIT         ?PR?_PROTOCOL_STARESP?PROTOCOL
            CODE    150BH     0408H     UNIT         ?C?LIB_CODE
            CODE    1913H     02CDH     UNIT         ?PR?_DISPLAYCONTROL?STATE_WORK
            CODE    1BE0H     01B3H     UNIT         ?PR?_KEYACTIONDEAL?STATE_TIMERSETTING
            CODE    1D93H     01ABH     UNIT         ?PR?CMD_GET_DEVICE_INFO_DEAL?PROTOCOL
            CODE    1F3EH     01A5H     UNIT         ?PR?MOTOR_CTR?MOTOR
            CODE    20E3H     01A1H     UNIT         ?PR?PROTOCOL_TASK?PROTOCOL
            CODE    2284H     019BH     UNIT         ?PR?INT_BIT?IT
            CODE    241FH     016EH     UNIT         ?PR?_IRDATADEAL?STATE_WORK
            CODE    258DH     015FH     UNIT         ?PR?CMD_GET_PM_DATAS_DEAL?PROTOCOL
            CODE    26ECH     0148H     UNIT         ?PR?_DISPLAYCONTROL?STATE_TIMERSETTING
            CODE    2834H     011EH     UNIT         ?PR?_DISPLAYCONTROL?STATE_TIMERLOOKUP
            CODE    2952H     0117H     UNIT         ?CO?DISPLAY
            CODE    2A69H     010FH     UNIT         ?PR?_IRDATADEAL?STATE_STANDBY
            CODE    2B78H     010EH     UNIT         ?PR?_TIMETICK?STATE_STANDBY
            CODE    2C86H     0107H     UNIT         ?PR?_DISPLAYCONTROL?STATE_STANDBY
            CODE    2D8DH     0104H     UNIT         ?PR?INT_WT?IT
            CODE    2E91H     0102H     UNIT         ?PR?_DISPLAY_DUSTDATA?DISPLAY
            CODE    2F93H     00FEH     UNIT         ?PR?_DISPLAY_SHOWNUMINRTCAREA?DISPLAY
            CODE    3091H     00FEH     UNIT         ?PR?_HUMIDITY_AD2H?HUMIDITY
            CODE    318FH     00FAH     UNIT         ?PR?_DISPLAYCONTROL?STATE_TEST
            CODE    3289H     00FAH     UNIT         ?PR?_KEYACTIONDEAL?STATE_WORK
            CODE    3383H     00F3H     UNIT         ?PR?SYS_UPDATETIMERONINDEX?SYSTEM
            CODE    3476H     00E7H     UNIT         ?PR?_KEYACTIONDEAL?STATE_STANDBY
            CODE    355DH     00E3H     UNIT         ?PR?PROTOCOL_RESETWIFIMODE?PROTOCOL
            CODE    3640H     00D1H     UNIT         ?PR?MAIN?MAIN
            CODE    3711H     00CEH     UNIT         ?PR?_DISPLAY_SHOWRT?DISPLAY
            CODE    37DFH     00CCH     UNIT         ?PR?KEY_ACTIONDETECT?KEY
            CODE    38ABH     00BAH     UNIT         ?PR?DUST_LEVELUPDATE?DUST
            CODE    3965H     00B2H     UNIT         ?PR?DISPLAY_LEDDRIVE?DISPLAY
            CODE    3A17H     00ADH     UNIT         ?PR?DUST_DATAUPDATE?DUST
            CODE    3AC4H     00ADH     UNIT         ?PR?CMD_GET_ENE_DATAS_DEAL?PROTOCOL
            CODE    3B71H     00ACH     UNIT         ?PR?INT_USI1_RX?IT
            CODE    3C1DH     00A3H     UNIT         ?PR?PROTOCOL_ENTERATMODE?PROTOCOL
            CODE    3CC0H     00A0H     UNIT         ?PR?HUMIDITY_GETCURRENTH?HUMIDITY
            CODE    3D60H     009AH     UNIT         ?C_C51STARTUP
            CODE    3DFAH     0090H     UNIT         ?PR?CMD_REST_DEAL?PROTOCOL
BL51 BANKED LINKER/LOCATER V6.22                                                      10/13/2015  15:22:36  PAGE 4


            CODE    3E8AH     008FH     UNIT         ?PR?INT_USI1_TX?IT
            CODE    3F19H     008DH     UNIT         ?PR?_ENTEREVENTDEAL?STATE_WORK
            CODE    3FA6H     0089H     UNIT         ?PR?HUMIDITY_GETCURRENTT?HUMIDITY
            CODE    402FH     007EH     UNIT         ?PR?_KEYACTIONDEAL?STATE_CLOCKSETTING
            CODE    40ADH     007AH     UNIT         ?PR?CMD_TIMER_CTR_DEAL?PROTOCOL
            CODE    4127H     0075H     UNIT         ?PR?_HUMIDITY_GETH?HUMIDITY
            CODE    419CH     0064H     UNIT         ?PR?_MOTORCTR?STATE_WORK
            CODE    4200H     0061H     UNIT         ?PR?_ENQUEUE?FIFO
            CODE    4261H     005FH     UNIT         ?PR?_DISPLAY_SHOWTEMPERATURE?DISPLAY
            CODE    42C0H     005FH     UNIT         ?PR?_DISPLAY_SHOWHUMIDITY?DISPLAY
            CODE    431FH     005DH     UNIT         ?PR?_DEQUEUE?FIFO
            CODE    437CH     0053H     UNIT         ?PR?SYS_LOADCTR?SYSTEM
            CODE    43CFH     0053H     UNIT         ?PR?KEY_READ?KEY
            CODE    4422H     0052H     UNIT         ?PR?_STATE_TRANSITIONTO?FSM
            CODE    4474H     0051H     UNIT         ?PR?PORT_INIT?BSP_INIT
            CODE    44C5H     0050H     UNIT         ?PR?_AIP1944_WRITEDISPDATAS?AIP1944
            CODE    4515H     004BH     UNIT         ?PR?DUST_GETRTLEVEL?DUST
            CODE    4560H     004BH     UNIT         ?CO?PROTOCOL
            CODE    45ABH     004AH     UNIT         ?PR?_DISPLAY_CIRCLERUN?DISPLAY
            CODE    45F5H     0046H     UNIT         ?PR?CMD_FAN_CTR_DEAL?PROTOCOL
            CODE    463BH     0043H     UNIT         ?PR?BUZZ_CTR?BUZZER
            CODE    467EH     0043H     UNIT         ?PR?CMD_RT_SET_DEAL?PROTOCOL
            CODE    46C1H     0041H     UNIT         ?PR?_TASKEXE?STATE_WORK
            CODE    4702H     003EH     UNIT         ?PR?_DISPLAY_DUSTLEVEL?DISPLAY
            CODE    4740H     003CH     UNIT         ?PR?_KEYACTIONDEAL?STATE_ECHECK
            CODE    477CH     003AH     UNIT         ?PR?_KEYACTIONDEAL?STATE_TIMERLOOKUP
            CODE    47B6H     0039H     UNIT         ?PR?_QUEUEISFULL?FIFO
            CODE    47EFH     0034H     UNIT         ?PR?UART_MEMORYINIT?UART
            CODE    4823H     0034H     UNIT         ?PR?_DISPLAYCONTROL?STATE_TIMERFNSETTING
            CODE    4857H     0033H     UNIT         ?PR?DISPLAY_CTR?DISPLAY
            CODE    488AH     0033H     UNIT         ?PR?GETNEXTACTIVETIMERINDEX?STATE_TIMERLOOKUP
            CODE    48BDH     0030H     UNIT         ?PR?INITALL?MAIN
            CODE    48EDH     002FH     UNIT         ?PR?_ENTEREVENTDEAL?STATE_STANDBY
            CODE    491CH     002EH     UNIT         ?PR?BSP_INIT?BSP_INIT
            CODE    494AH     002EH     UNIT         ?PR?SYS_ENTERSTOPMODE?SYSTEM
            CODE    4978H     002DH     UNIT         ?C_INITSEG
            CODE    49A5H     002CH     UNIT         ?PR?_DISPLAYCONTROL?STATE_CLOCKSETTING
            CODE    49D1H     002BH     UNIT         ?PR?CMD_POWER_CTR_DEAL?PROTOCOL
            CODE    49FCH     002BH     UNIT         ?PR?_DISPLAYCONTROL?STATE_ECHECK
            CODE    4A27H     0020H     UNIT         ?PR?DISPLAY_SETLINE?DISPLAY
            CODE    4A47H     001FH     UNIT         ?PR?_KEYACTIONDEAL?STATE_TIMERFNSETTING
            CODE    4A66H     001EH     UNIT         ?CO?SYSTEM
            CODE    4A84H     001DH     UNIT         ?PR?_MOTOR_RUN?MOTOR
            CODE    4AA1H     001DH     UNIT         ?PR?CMD_AION_CTR_DEAL?PROTOCOL
            CODE    4ABEH     001DH     UNIT         ?PR?CMD_UV_CTR_DEAL?PROTOCOL
            CODE    4ADBH     001BH     UNIT         ?PR?_BUZZ_SET?BUZZER
            CODE    4AF6H     001BH     UNIT         ?PR?CMD_MEM_SET_DEAL?PROTOCOL
            CODE    4B11H     001BH     UNIT         ?CO?FSM
            CODE    4B2CH     001BH     UNIT         ?CO?STATE_TEST
            CODE    4B47H     001BH     UNIT         ?CO?STATE_STARTUP
            CODE    4B62H     001BH     UNIT         ?CO?STATE_STANDBY
            CODE    4B7DH     001BH     UNIT         ?CO?STATE_CLOCKSETTING
            CODE    4B98H     001BH     UNIT         ?CO?STATE_ECHECK
            CODE    4BB3H     001BH     UNIT         ?CO?STATE_TIMERSETTING
            CODE    4BCEH     001BH     UNIT         ?CO?STATE_TIMERFNSETTING
            CODE    4BE9H     001BH     UNIT         ?PR?_ENTEREVENTDEAL?STATE_TIMERLOOKUP
            CODE    4C04H     001BH     UNIT         ?CO?STATE_TIMERLOOKUP
BL51 BANKED LINKER/LOCATER V6.22                                                      10/13/2015  15:22:36  PAGE 5


            CODE    4C1FH     001BH     UNIT         ?CO?STATE_WORK
            CODE    4C3AH     001AH     UNIT         ?PR?_AIP1944_WRITEBYTE?AIP1944
            CODE    4C54H     001AH     UNIT         ?PR?_QUEUELEN?FIFO
            CODE    4C6EH     0019H     UNIT         ?PR?CMD_WIFI_STA_CHANGE_DEAL?PROTOCOL
            CODE    4C87H     0018H     UNIT         ?PR?_TIMETICK?STATE_STARTUP
            CODE    4C9FH     0018H     UNIT         ?PR?_TIMETICK?STATE_CLOCKSETTING
            CODE    4CB7H     0018H     UNIT         ?PR?_TIMETICK?STATE_ECHECK
            CODE    4CCFH     0018H     UNIT         ?PR?_TIMETICK?STATE_TIMERSETTING
            CODE    4CE7H     0018H     UNIT         ?PR?_TIMETICK?STATE_TIMERFNSETTING
            CODE    4CFFH     0018H     UNIT         ?PR?_TIMETICK?STATE_TIMERLOOKUP
            CODE    4D17H     0016H     UNIT         ?PR?UART_INIT?BSP_INIT
            CODE    4D2DH     0016H     UNIT         ?PR?_UTILS_GETADVALUE?HUMIDITY
            CODE    4D43H     0016H     UNIT         ?PR?CMD_FIX_CTR_DEAL?PROTOCOL
            CODE    4D59H     0016H     UNIT         ?PR?CMD_CLEAN_CTR_DEAL?PROTOCOL
            CODE    4D6FH     0015H     UNIT         ?PR?_QUEUEISEMPTY?FIFO
            CODE    4D84H     0014H     UNIT         ?PR?_DISPLAY_SETALL?DISPLAY
            CODE    4D98H     0014H     UNIT         ?PR?_HUMIDITY_AD2T?HUMIDITY
            CODE    4DACH     0014H     UNIT         ?PR?DUST_DEVICEINIT?DUST
            CODE    4DC0H     0013H     UNIT         ?PR?INT_TIMER0?IT
            CODE    4DD3H     0012H     UNIT         ?PR?_BUZ_ONOFF?BSP_INIT
            CODE    4DE5H     0012H     UNIT         ?PR?BUZZ_DEVICEINIT?BUZZER
            CODE    4DF7H     0010H     UNIT         ?PR?HUMIDITY_DEVICEINIT?HUMIDITY
            CODE    4E07H     0010H     UNIT         ?PR?HOURDEC?STATE_CLOCKSETTING
            CODE    4E17H     0010H     UNIT         ?PR?MINDEC?STATE_CLOCKSETTING
            CODE    4E27H     000FH     UNIT         ?PR?_ADC_START?BSP_INIT
            CODE    4E36H     000FH     UNIT         ?PR?HOURINC?STATE_CLOCKSETTING
            CODE    4E45H     000FH     UNIT         ?PR?MININC?STATE_CLOCKSETTING
            CODE    4E54H     000EH     UNIT         ?PR?_INITQUEUE?FIFO
            CODE    4E62H     000EH     UNIT         ?PR?_ENTEREVENTDEAL?STATE_STARTUP
            CODE    4E70H     000DH     UNIT         ?PR?TIMER0_INIT?BSP_INIT
            CODE    4E7DH     000DH     UNIT         ?PR?WT_INIT?BSP_INIT
            CODE    4E8AH     000CH     UNIT         ?PR?_ENTEREVENTDEAL?STATE_TIMERSETTING
            CODE    4E96H     000AH     UNIT         ?PR?MOTOR_STOP?MOTOR
            CODE    4EA0H     000AH     UNIT         ?PR?_DISPLAYCONTROL?STATE_STARTUP
            CODE    4EAAH     000AH     UNIT         ?PR?_ENTEREVENTDEAL?STATE_CLOCKSETTING
            CODE    4EB4H     0009H     UNIT         ?PR?WDT_INIT?BSP_INIT
            CODE    4EBDH     0009H     UNIT         ?PR?UART_RXDATSDEAL?UART
            CODE    4EC6H     0008H     UNIT         ?PR?LCD_INIT?BSP_INIT
            CODE    4ECEH     0008H     UNIT         ?PR?PROTOCOL_INIT?PROTOCOL
            CODE    4ED6H     0008H     UNIT         ?PR?_ENTEREVENTDEAL?STATE_ECHECK
            CODE    4EDEH     0007H     UNIT         ?PR?ADC_INIT?BSP_INIT
            CODE    4EE5H     0007H     UNIT         ?PR?BUZ_INIT?BSP_INIT
            CODE    4EECH     0007H     UNIT         ?PR?CLOCK_INIT?BSP_INIT
            CODE    4EF3H     0006H     UNIT         ?PR?_ENTEREVENTDEAL?STATE_TIMERFNSETTING
            CODE    4EF9H     0004H     UNIT         ?PR?WDT_CLEAR?BSP_INIT
            CODE    4EFDH     0003H     UNIT         ?PR?_MOTORCTR?STATE_STARTUP
            CODE    4F00H     0003H     UNIT         ?PR?_MOTORCTR?STATE_STANDBY
            CODE    4F03H     0003H     UNIT         ?PR?_MOTORCTR?STATE_CLOCKSETTING
            CODE    4F06H     0003H     UNIT         ?PR?_MOTORCTR?STATE_ECHECK
            CODE    4F09H     0003H     UNIT         ?PR?_MOTORCTR?STATE_TIMERSETTING
            CODE    4F0CH     0003H     UNIT         ?PR?_MOTORCTR?STATE_TIMERFNSETTING
            CODE    4F0FH     0003H     UNIT         ?PR?_MOTORCTR?STATE_TIMERLOOKUP
            CODE    4F12H     0001H     UNIT         ?PR?_KEYACTIONDEAL?STATE_TEST
            CODE    4F13H     0001H     UNIT         ?PR?_TASKEXE?STATE_TEST
            CODE    4F14H     0001H     UNIT         ?PR?_TIMETICK?STATE_TEST
            CODE    4F15H     0001H     UNIT         ?PR?_MOTORCTR?STATE_TEST
            CODE    4F16H     0001H     UNIT         ?PR?_IRDATADEAL?STATE_TEST
BL51 BANKED LINKER/LOCATER V6.22                                                      10/13/2015  15:22:36  PAGE 6


            CODE    4F17H     0001H     UNIT         ?PR?_RXDATADEAL?STATE_TEST
            CODE    4F18H     0001H     UNIT         ?PR?_ENTEREVENTDEAL?STATE_TEST
            CODE    4F19H     0001H     UNIT         ?PR?_EXITEVENTDEAL?STATE_TEST
            CODE    4F1AH     0001H     UNIT         ?PR?_KEYACTIONDEAL?STATE_STARTUP
            CODE    4F1BH     0001H     UNIT         ?PR?_TASKEXE?STATE_STARTUP
            CODE    4F1CH     0001H     UNIT         ?PR?_IRDATADEAL?STATE_STARTUP
            CODE    4F1DH     0001H     UNIT         ?PR?_RXDATADEAL?STATE_STARTUP
            CODE    4F1EH     0001H     UNIT         ?PR?_EXITEVENTDEAL?STATE_STARTUP
            CODE    4F1FH     0001H     UNIT         ?PR?_TASKEXE?STATE_STANDBY
            CODE    4F20H     0001H     UNIT         ?PR?_RXDATADEAL?STATE_STANDBY
            CODE    4F21H     0001H     UNIT         ?PR?_EXITEVENTDEAL?STATE_STANDBY
            CODE    4F22H     0001H     UNIT         ?PR?_TASKEXE?STATE_CLOCKSETTING
            CODE    4F23H     0001H     UNIT         ?PR?_IRDATADEAL?STATE_CLOCKSETTING
            CODE    4F24H     0001H     UNIT         ?PR?_RXDATADEAL?STATE_CLOCKSETTING
            CODE    4F25H     0001H     UNIT         ?PR?_EXITEVENTDEAL?STATE_CLOCKSETTING
            CODE    4F26H     0001H     UNIT         ?PR?_TASKEXE?STATE_ECHECK
            CODE    4F27H     0001H     UNIT         ?PR?_IRDATADEAL?STATE_ECHECK
            CODE    4F28H     0001H     UNIT         ?PR?_RXDATADEAL?STATE_ECHECK
            CODE    4F29H     0001H     UNIT         ?PR?_EXITEVENTDEAL?STATE_ECHECK
            CODE    4F2AH     0001H     UNIT         ?PR?_TASKEXE?STATE_TIMERSETTING
            CODE    4F2BH     0001H     UNIT         ?PR?_IRDATADEAL?STATE_TIMERSETTING
            CODE    4F2CH     0001H     UNIT         ?PR?_RXDATADEAL?STATE_TIMERSETTING
            CODE    4F2DH     0001H     UNIT         ?PR?_EXITEVENTDEAL?STATE_TIMERSETTING
            CODE    4F2EH     0001H     UNIT         ?PR?_TASKEXE?STATE_TIMERFNSETTING
            CODE    4F2FH     0001H     UNIT         ?PR?_IRDATADEAL?STATE_TIMERFNSETTING
            CODE    4F30H     0001H     UNIT         ?PR?_RXDATADEAL?STATE_TIMERFNSETTING
            CODE    4F31H     0001H     UNIT         ?PR?_EXITEVENTDEAL?STATE_TIMERFNSETTING
            CODE    4F32H     0001H     UNIT         ?PR?_TASKEXE?STATE_TIMERLOOKUP
            CODE    4F33H     0001H     UNIT         ?PR?_IRDATADEAL?STATE_TIMERLOOKUP
            CODE    4F34H     0001H     UNIT         ?PR?_RXDATADEAL?STATE_TIMERLOOKUP
            CODE    4F35H     0001H     UNIT         ?PR?_EXITEVENTDEAL?STATE_TIMERLOOKUP
            CODE    4F36H     0001H     UNIT         ?PR?_RXDATADEAL?STATE_WORK
            CODE    4F37H     0001H     UNIT         ?PR?_EXITEVENTDEAL?STATE_WORK



OVERLAY MAP OF MODULE:   YTN-E608-WIFI-6432 (IT)


SEGMENT                                             BIT_GROUP          XDATA_GROUP
  +--> CALLED SEGMENT                            START    LENGTH     START    LENGTH
------------------------------------------------------------------------------------
?PR?INT_WT?IT                                    -----    -----      -----    -----
  +--> ?PR?INITALL?MAIN

?PR?INITALL?MAIN                                 -----    -----      -----    -----
  +--> ?PR?BSP_INIT?BSP_INIT
  +--> ?PR?BUZZ_DEVICEINIT?BUZZER
  +--> ?PR?UART_MEMORYINIT?UART
  +--> ?PR?PROTOCOL_INIT?PROTOCOL
  +--> ?PR?HUMIDITY_DEVICEINIT?HUMIDITY
  +--> ?PR?DUST_DEVICEINIT?DUST
  +--> ?CO?STATE_STARTUP
  +--> ?PR?_STATE_TRANSITIONTO?FSM
  +--> ?PR?_BUZZ_SET?BUZZER

?PR?BSP_INIT?BSP_INIT                            -----    -----      -----    -----
BL51 BANKED LINKER/LOCATER V6.22                                                      10/13/2015  15:22:36  PAGE 7


  +--> ?PR?PORT_INIT?BSP_INIT
  +--> ?PR?CLOCK_INIT?BSP_INIT
  +--> ?PR?WT_INIT?BSP_INIT
  +--> ?PR?ADC_INIT?BSP_INIT
  +--> ?PR?BIT_INIT?BSP_INIT
  +--> ?PR?BUZ_INIT?BSP_INIT
  +--> ?PR?LCD_INIT?BSP_INIT
  +--> ?PR?TIMER0_INIT?BSP_INIT
  +--> ?PR?TIMER1_INIT?BSP_INIT
  +--> ?PR?UART_INIT?BSP_INIT

?PR?UART_MEMORYINIT?UART                         -----    -----      -----    -----
  +--> ?PR?_INITQUEUE?FIFO

?PR?HUMIDITY_DEVICEINIT?HUMIDITY                 -----    -----      -----    -----
  +--> ?PR?_UTILS_GETADVALUE?HUMIDITY
  +--> ?PR?_HUMIDITY_AD2T?HUMIDITY
  +--> ?PR?_HUMIDITY_AD2H?HUMIDITY

?PR?_HUMIDITY_AD2T?HUMIDITY                      -----    -----      -----    -----
  +--> ?CO?HUMIDITY

?PR?_HUMIDITY_AD2H?HUMIDITY                      -----    -----      019AH    0003H
  +--> ?PR?_HUMIDITY_GETH?HUMIDITY

?PR?_HUMIDITY_GETH?HUMIDITY                      -----    -----      019DH    0003H
  +--> ?CO?HUMIDITY

?CO?STATE_STARTUP                                -----    -----      -----    -----
  +--> ?PR?_KEYACTIONDEAL?STATE_STARTUP
  +--> ?PR?_DISPLAYCONTROL?STATE_STARTUP
  +--> ?PR?_TASKEXE?STATE_STARTUP
  +--> ?PR?_TIMETICK?STATE_STARTUP
  +--> ?PR?_MOTORCTR?STATE_STARTUP
  +--> ?PR?_IRDATADEAL?STATE_STARTUP
  +--> ?PR?_RXDATADEAL?STATE_STARTUP
  +--> ?PR?_ENTEREVENTDEAL?STATE_STARTUP
  +--> ?PR?_EXITEVENTDEAL?STATE_STARTUP

?PR?_DISPLAYCONTROL?STATE_STARTUP                -----    -----      -----    -----
  +--> ?PR?_DISPLAY_SETALL?DISPLAY

?PR?_TIMETICK?STATE_STARTUP                      -----    -----      -----    -----
  +--> ?CO?STATE_STANDBY
  +--> ?PR?_STATE_TRANSITIONTO?FSM

?CO?STATE_STANDBY                                -----    -----      -----    -----
  +--> ?PR?_KEYACTIONDEAL?STATE_STANDBY
  +--> ?PR?_DISPLAYCONTROL?STATE_STANDBY
  +--> ?PR?_TASKEXE?STATE_STANDBY
  +--> ?PR?_TIMETICK?STATE_STANDBY
  +--> ?PR?_MOTORCTR?STATE_STANDBY
  +--> ?PR?_IRDATADEAL?STATE_STANDBY
  +--> ?PR?_RXDATADEAL?STATE_STANDBY
  +--> ?PR?_ENTEREVENTDEAL?STATE_STANDBY
  +--> ?PR?_EXITEVENTDEAL?STATE_STANDBY

BL51 BANKED LINKER/LOCATER V6.22                                                      10/13/2015  15:22:36  PAGE 8


?PR?_KEYACTIONDEAL?STATE_STANDBY                 -----    -----      -----    -----
  +--> ?PR?_BUZZ_SET?BUZZER
  +--> ?CO?STATE_WORK
  +--> ?CO?STATE_ECHECK
  +--> ?CO?STATE_TIMERLOOKUP
  +--> ?CO?STATE_CLOCKSETTING
  +--> ?CO?STATE_TIMERSETTING
  +--> ?CO?STATE_TIMERFNSETTING
  +--> ?PR?_STATE_TRANSITIONTO?FSM
  +--> ?PR?PROTOCOL_ENTERATMODE?PROTOCOL

?CO?STATE_WORK                                   -----    -----      -----    -----
  +--> ?PR?_KEYACTIONDEAL?STATE_WORK
  +--> ?PR?_DISPLAYCONTROL?STATE_WORK
  +--> ?PR?_TASKEXE?STATE_WORK
  +--> ?PR?_TIMETICK?STATE_WORK
  +--> ?PR?_MOTORCTR?STATE_WORK
  +--> ?PR?_IRDATADEAL?STATE_WORK
  +--> ?PR?_RXDATADEAL?STATE_WORK
  +--> ?PR?_ENTEREVENTDEAL?STATE_WORK
  +--> ?PR?_EXITEVENTDEAL?STATE_WORK

?PR?_KEYACTIONDEAL?STATE_WORK                    -----    -----      -----    -----
  +--> ?PR?_STATE_TRANSITIONTO?FSM
  +--> ?PR?_BUZZ_SET?BUZZER

?PR?_STATE_TRANSITIONTO?FSM                      0020H.4  0000H.2    019EH    0002H

?PR?_DISPLAYCONTROL?STATE_WORK                   -----    -----      -----    -----
  +--> ?PR?_DISPLAY_SPLEVEL?DISPLAY
  +--> ?PR?DISPLAY_SETLINE?DISPLAY
  +--> ?PR?_DISPLAY_DUSTDATA?DISPLAY
  +--> ?PR?_DISPLAY_DUSTLEVEL?DISPLAY
  +--> ?PR?_DISPLAY_SHOWTEMPERATURE?DISPLAY
  +--> ?PR?_DISPLAY_SHOWHUMIDITY?DISPLAY
  +--> ?PR?_DISPLAY_SHOWRT?DISPLAY
  +--> ?PR?_DISPLAY_CIRCLERUN?DISPLAY
  +--> ?CO?SYSTEM

?PR?_DISPLAY_DUSTDATA?DISPLAY                    -----    -----      019DH    0003H
  +--> ?CO?DISPLAY

?PR?_DISPLAY_SHOWTEMPERATURE?DISPLAY             -----    -----      -----    -----
  +--> ?CO?DISPLAY

?PR?_DISPLAY_SHOWHUMIDITY?DISPLAY                -----    -----      -----    -----
  +--> ?CO?DISPLAY

?PR?_DISPLAY_SHOWRT?DISPLAY                      0020H.5  0000H.2    -----    -----
  +--> ?CO?DISPLAY

?PR?_TIMETICK?STATE_WORK                         -----    -----      019DH    0001H
  +--> ?PR?_STATE_TRANSITIONTO?FSM
  +--> ?PR?_BUZZ_SET?BUZZER
  +--> ?CO?SYSTEM

?PR?_MOTORCTR?STATE_WORK                         -----    -----      -----    -----
BL51 BANKED LINKER/LOCATER V6.22                                                      10/13/2015  15:22:36  PAGE 9


  +--> ?PR?MOTOR_STOP?MOTOR
  +--> ?PR?_MOTOR_RUN?MOTOR

?PR?_IRDATADEAL?STATE_WORK                       -----    -----      -----    -----
  +--> ?PR?_BUZZ_SET?BUZZER
  +--> ?PR?_STATE_TRANSITIONTO?FSM

?PR?_ENTEREVENTDEAL?STATE_WORK                   -----    -----      -----    -----
  +--> ?PR?DUST_DEVICEINIT?DUST

?CO?STATE_ECHECK                                 -----    -----      -----    -----
  +--> ?PR?_KEYACTIONDEAL?STATE_ECHECK
  +--> ?PR?_DISPLAYCONTROL?STATE_ECHECK
  +--> ?PR?_TASKEXE?STATE_ECHECK
  +--> ?PR?_TIMETICK?STATE_ECHECK
  +--> ?PR?_MOTORCTR?STATE_ECHECK
  +--> ?PR?_IRDATADEAL?STATE_ECHECK
  +--> ?PR?_RXDATADEAL?STATE_ECHECK
  +--> ?PR?_ENTEREVENTDEAL?STATE_ECHECK
  +--> ?PR?_EXITEVENTDEAL?STATE_ECHECK

?PR?_KEYACTIONDEAL?STATE_ECHECK                  -----    -----      -----    -----
  +--> ?PR?_BUZZ_SET?BUZZER

?PR?_DISPLAYCONTROL?STATE_ECHECK                 -----    -----      -----    -----
  +--> ?PR?_DISPLAY_SHOWNUMINRTCAREA?DISPLAY

?PR?_DISPLAY_SHOWNUMINRTCAREA?DISPLAY            -----    -----      019DH    0003H
  +--> ?CO?DISPLAY

?PR?_TIMETICK?STATE_ECHECK                       -----    -----      -----    -----
  +--> ?PR?_STATE_TRANSITIONTO?FSM

?PR?_MOTORCTR?STATE_ECHECK                       -----    -----      -----    -----
  +--> ?PR?MOTOR_STOP?MOTOR

?CO?STATE_TIMERLOOKUP                            -----    -----      -----    -----
  +--> ?PR?_KEYACTIONDEAL?STATE_TIMERLOOKUP
  +--> ?PR?_DISPLAYCONTROL?STATE_TIMERLOOKUP
  +--> ?PR?_TASKEXE?STATE_TIMERLOOKUP
  +--> ?PR?_TIMETICK?STATE_TIMERLOOKUP
  +--> ?PR?_MOTORCTR?STATE_TIMERLOOKUP
  +--> ?PR?_IRDATADEAL?STATE_TIMERLOOKUP
  +--> ?PR?_RXDATADEAL?STATE_TIMERLOOKUP
  +--> ?PR?_ENTEREVENTDEAL?STATE_TIMERLOOKUP
  +--> ?PR?_EXITEVENTDEAL?STATE_TIMERLOOKUP

?PR?_KEYACTIONDEAL?STATE_TIMERLOOKUP             -----    -----      -----    -----
  +--> ?PR?GETNEXTACTIVETIMERINDEX?STATE_TIM...
  +--> ?PR?_BUZZ_SET?BUZZER

?PR?GETNEXTACTIVETIMERINDEX?STATE_TIM...         -----    -----      -----    -----
  +--> ?CO?SYSTEM

?PR?_DISPLAYCONTROL?STATE_TIMERLOOKUP            -----    -----      -----    -----
  +--> ?PR?_DISPLAY_SHOWNUMINRTCAREA?DISPLAY
  +--> ?CO?SYSTEM
BL51 BANKED LINKER/LOCATER V6.22                                                      10/13/2015  15:22:36  PAGE 10


  +--> ?PR?_DISPLAY_SHOWRT?DISPLAY

?PR?_TIMETICK?STATE_TIMERLOOKUP                  -----    -----      -----    -----
  +--> ?PR?_STATE_TRANSITIONTO?FSM

?PR?_MOTORCTR?STATE_TIMERLOOKUP                  -----    -----      -----    -----
  +--> ?PR?MOTOR_STOP?MOTOR

?PR?_ENTEREVENTDEAL?STATE_TIMERLOOKUP            -----    -----      -----    -----
  +--> ?PR?GETNEXTACTIVETIMERINDEX?STATE_TIM...

?CO?STATE_CLOCKSETTING                           -----    -----      -----    -----
  +--> ?PR?_KEYACTIONDEAL?STATE_CLOCKSETTING
  +--> ?PR?_DISPLAYCONTROL?STATE_CLOCKSETTING
  +--> ?PR?_TASKEXE?STATE_CLOCKSETTING
  +--> ?PR?_TIMETICK?STATE_CLOCKSETTING
  +--> ?PR?_MOTORCTR?STATE_CLOCKSETTING
  +--> ?PR?_IRDATADEAL?STATE_CLOCKSETTING
  +--> ?PR?_RXDATADEAL?STATE_CLOCKSETTING
  +--> ?PR?_ENTEREVENTDEAL?STATE_CLOCKSETTING
  +--> ?PR?_EXITEVENTDEAL?STATE_CLOCKSETTING

?PR?_KEYACTIONDEAL?STATE_CLOCKSETTING            -----    -----      -----    -----
  +--> ?PR?HOURINC?STATE_CLOCKSETTING
  +--> ?PR?MININC?STATE_CLOCKSETTING
  +--> ?PR?HOURDEC?STATE_CLOCKSETTING
  +--> ?PR?MINDEC?STATE_CLOCKSETTING
  +--> ?PR?_BUZZ_SET?BUZZER

?PR?_DISPLAYCONTROL?STATE_CLOCKSETTING           -----    -----      -----    -----
  +--> ?PR?_DISPLAY_SHOWRT?DISPLAY

?PR?_TIMETICK?STATE_CLOCKSETTING                 -----    -----      -----    -----
  +--> ?PR?_STATE_TRANSITIONTO?FSM

?PR?_MOTORCTR?STATE_CLOCKSETTING                 -----    -----      -----    -----
  +--> ?PR?MOTOR_STOP?MOTOR

?CO?STATE_TIMERSETTING                           -----    -----      -----    -----
  +--> ?PR?_KEYACTIONDEAL?STATE_TIMERSETTING
  +--> ?PR?_DISPLAYCONTROL?STATE_TIMERSETTING
  +--> ?PR?_TASKEXE?STATE_TIMERSETTING
  +--> ?PR?_TIMETICK?STATE_TIMERSETTING
  +--> ?PR?_MOTORCTR?STATE_TIMERSETTING
  +--> ?PR?_IRDATADEAL?STATE_TIMERSETTING
  +--> ?PR?_RXDATADEAL?STATE_TIMERSETTING
  +--> ?PR?_ENTEREVENTDEAL?STATE_TIMERSETTING
  +--> ?PR?_EXITEVENTDEAL?STATE_TIMERSETTING

?PR?_KEYACTIONDEAL?STATE_TIMERSETTING            0020H.4  0000H.1    019DH    0003H
  +--> ?CO?SYSTEM
  +--> ?PR?_BUZZ_SET?BUZZER

?PR?_DISPLAYCONTROL?STATE_TIMERSETTING           0020H.4  0000H.1    -----    -----
  +--> ?PR?_DISPLAY_SHOWNUMINRTCAREA?DISPLAY
  +--> ?CO?SYSTEM
  +--> ?PR?_DISPLAY_SHOWRT?DISPLAY
BL51 BANKED LINKER/LOCATER V6.22                                                      10/13/2015  15:22:36  PAGE 11



?PR?_TIMETICK?STATE_TIMERSETTING                 -----    -----      -----    -----
  +--> ?PR?_STATE_TRANSITIONTO?FSM

?PR?_MOTORCTR?STATE_TIMERSETTING                 -----    -----      -----    -----
  +--> ?PR?MOTOR_STOP?MOTOR

?CO?STATE_TIMERFNSETTING                         -----    -----      -----    -----
  +--> ?PR?_KEYACTIONDEAL?STATE_TIMERFNSETTING
  +--> ?PR?_DISPLAYCONTROL?STATE_TIMERFNSETTING
  +--> ?PR?_TASKEXE?STATE_TIMERFNSETTING
  +--> ?PR?_TIMETICK?STATE_TIMERFNSETTING
  +--> ?PR?_MOTORCTR?STATE_TIMERFNSETTING
  +--> ?PR?_IRDATADEAL?STATE_TIMERFNSETTING
  +--> ?PR?_RXDATADEAL?STATE_TIMERFNSETTING
  +--> ?PR?_ENTEREVENTDEAL?STATE_TIMERFNSETTING
  +--> ?PR?_EXITEVENTDEAL?STATE_TIMERFNSETTING

?PR?_KEYACTIONDEAL?STATE_TIMERFNSETTING          -----    -----      -----    -----
  +--> ?PR?_BUZZ_SET?BUZZER

?PR?_TIMETICK?STATE_TIMERFNSETTING               -----    -----      -----    -----
  +--> ?PR?_STATE_TRANSITIONTO?FSM

?PR?_MOTORCTR?STATE_TIMERFNSETTING               -----    -----      -----    -----
  +--> ?PR?MOTOR_STOP?MOTOR

?PR?PROTOCOL_ENTERATMODE?PROTOCOL                -----    -----      -----    -----
  +--> ?PR?_ENQUEUE?FIFO
  +--> ?PR?UART_SENDSTARTUP?UART

?PR?_ENQUEUE?FIFO                                -----    -----      01A2H    0004H
  +--> ?PR?_QUEUEISFULL?FIFO

?PR?_QUEUEISFULL?FIFO                            -----    -----      01A6H    0003H

?PR?UART_SENDSTARTUP?UART                        -----    -----      -----    -----
  +--> ?PR?_QUEUELEN?FIFO
  +--> ?PR?_DEQUEUE?FIFO

?PR?_DEQUEUE?FIFO                                -----    -----      01A2H    0004H
  +--> ?PR?_QUEUEISEMPTY?FIFO

?PR?_DISPLAYCONTROL?STATE_STANDBY                -----    -----      -----    -----
  +--> ?PR?_DISPLAY_DUSTDATA?DISPLAY
  +--> ?PR?_DISPLAY_SHOWRT?DISPLAY

?PR?_TIMETICK?STATE_STANDBY                      -----    -----      -----    -----
  +--> ?PR?PROTOCOL_RESETWIFIMODE?PROTOCOL
  +--> ?CO?SYSTEM
  +--> ?PR?_BUZZ_SET?BUZZER
  +--> ?CO?STATE_WORK
  +--> ?PR?_STATE_TRANSITIONTO?FSM

?PR?PROTOCOL_RESETWIFIMODE?PROTOCOL              -----    -----      -----    -----
  +--> ?PR?_ENQUEUE?FIFO
  +--> ?PR?UART_SENDSTARTUP?UART
BL51 BANKED LINKER/LOCATER V6.22                                                      10/13/2015  15:22:36  PAGE 12



?PR?_MOTORCTR?STATE_STANDBY                      -----    -----      -----    -----
  +--> ?PR?MOTOR_STOP?MOTOR

?PR?_IRDATADEAL?STATE_STANDBY                    -----    -----      -----    -----
  +--> ?PR?_BUZZ_SET?BUZZER
  +--> ?CO?STATE_WORK
  +--> ?PR?_STATE_TRANSITIONTO?FSM

?PR?_ENTEREVENTDEAL?STATE_STANDBY                -----    -----      -----    -----
  +--> ?PR?SYS_UPDATETIMERONINDEX?SYSTEM

?PR?SYS_UPDATETIMERONINDEX?SYSTEM                -----    -----      019DH    0005H
  +--> ?CO?SYSTEM

?PR?_MOTORCTR?STATE_STARTUP                      -----    -----      -----    -----
  +--> ?PR?MOTOR_STOP?MOTOR

*** NEW ROOT ***************************************************

?PR?INT_BIT?IT                                   -----    -----      -----    -----
  +--> ?PR?DISPLAY_LEDDRIVE?DISPLAY

?PR?DISPLAY_LEDDRIVE?DISPLAY                     0020H.4  0000H.1    -----    -----

*** NEW ROOT ***************************************************

?C_C51STARTUP                                    -----    -----      -----    -----
  +--> ?PR?MAIN?MAIN
  +--> ?C_INITSEG

?PR?MAIN?MAIN                                    -----    -----      -----    -----
  +--> ?PR?INITALL?MAIN
  +--> ?PR?UART_RXDATSDEAL?UART
  +--> ?PR?_UTILS_GETADVALUE?HUMIDITY
  +--> ?PR?KEY_ACTIONDETECT?KEY
  +--> ?PR?DISPLAY_LEDDRIVE?DISPLAY
  +--> ?PR?BUZZ_CTR?BUZZER
  +--> ?PR?DUST_DATAUPDATE?DUST
  +--> ?PR?MOTOR_CTR?MOTOR
  +--> ?PR?SYS_LOADCTR?SYSTEM
  +--> ?PR?SYS_ENTERSTOPMODE?SYSTEM
  +--> ?PR?DISPLAY_CTR?DISPLAY
  +--> ?PR?HUMIDITY_GETCURRENTT?HUMIDITY
  +--> ?PR?HUMIDITY_GETCURRENTH?HUMIDITY
  +--> ?PR?DUST_LEVELUPDATE?DUST

?PR?UART_RXDATSDEAL?UART                         -----    -----      -----    -----
  +--> ?PR?PROTOCOL_TASK?PROTOCOL

?PR?PROTOCOL_TASK?PROTOCOL                       -----    -----      0199H    0004H
  +--> ?PR?CMD_DUMMY_DEAL?PROTOCOL
  +--> ?CO?PROTOCOL

?CO?PROTOCOL                                     -----    -----      -----    -----
  +--> ?PR?CMD_GET_SYS_STA_DEAL?PROTOCOL
  +--> ?PR?CMD_POWER_CTR_DEAL?PROTOCOL
BL51 BANKED LINKER/LOCATER V6.22                                                      10/13/2015  15:22:36  PAGE 13


  +--> ?PR?CMD_FAN_CTR_DEAL?PROTOCOL
  +--> ?PR?CMD_FIX_CTR_DEAL?PROTOCOL
  +--> ?PR?CMD_CLEAN_CTR_DEAL?PROTOCOL
  +--> ?PR?CMD_AION_CTR_DEAL?PROTOCOL
  +--> ?PR?CMD_UV_CTR_DEAL?PROTOCOL
  +--> ?PR?CMD_TIMER_CTR_DEAL?PROTOCOL
  +--> ?PR?CMD_GET_PM_DATAS_DEAL?PROTOCOL
  +--> ?PR?CMD_GET_ENE_DATAS_DEAL?PROTOCOL
  +--> ?PR?CMD_RT_SET_DEAL?PROTOCOL
  +--> ?PR?CMD_MEM_SET_DEAL?PROTOCOL
  +--> ?PR?CMD_REST_DEAL?PROTOCOL
  +--> ?PR?CMD_GET_DEVICE_INFO_DEAL?PROTOCOL
  +--> ?PR?CMD_WIFI_STA_CHANGE_DEAL?PROTOCOL

?PR?CMD_GET_SYS_STA_DEAL?PROTOCOL                -----    -----      -----    -----
  +--> ?PR?_PROTOCOL_STARESP?PROTOCOL

?PR?_PROTOCOL_STARESP?PROTOCOL                   -----    -----      019DH    0002H
  +--> ?PR?_ENQUEUE?FIFO
  +--> ?PR?UART_SENDSTARTUP?UART

?PR?CMD_POWER_CTR_DEAL?PROTOCOL                  -----    -----      -----    -----
  +--> ?CO?STATE_WORK
  +--> ?CO?STATE_STANDBY
  +--> ?PR?_STATE_TRANSITIONTO?FSM
  +--> ?PR?_BUZZ_SET?BUZZER
  +--> ?PR?_PROTOCOL_STARESP?PROTOCOL

?PR?CMD_FAN_CTR_DEAL?PROTOCOL                    -----    -----      -----    -----
  +--> ?PR?_BUZZ_SET?BUZZER
  +--> ?PR?_PROTOCOL_STARESP?PROTOCOL

?PR?CMD_FIX_CTR_DEAL?PROTOCOL                    -----    -----      -----    -----
  +--> ?PR?_BUZZ_SET?BUZZER
  +--> ?PR?_PROTOCOL_STARESP?PROTOCOL

?PR?CMD_CLEAN_CTR_DEAL?PROTOCOL                  -----    -----      -----    -----
  +--> ?PR?_BUZZ_SET?BUZZER
  +--> ?PR?_PROTOCOL_STARESP?PROTOCOL

?PR?CMD_AION_CTR_DEAL?PROTOCOL                   -----    -----      -----    -----
  +--> ?PR?_BUZZ_SET?BUZZER
  +--> ?PR?_PROTOCOL_STARESP?PROTOCOL

?PR?CMD_UV_CTR_DEAL?PROTOCOL                     -----    -----      -----    -----
  +--> ?PR?_BUZZ_SET?BUZZER
  +--> ?PR?_PROTOCOL_STARESP?PROTOCOL

?PR?CMD_TIMER_CTR_DEAL?PROTOCOL                  -----    -----      -----    -----
  +--> ?PR?SYS_UPDATETIMERONINDEX?SYSTEM
  +--> ?PR?_BUZZ_SET?BUZZER
  +--> ?PR?_PROTOCOL_STARESP?PROTOCOL

?PR?CMD_GET_PM_DATAS_DEAL?PROTOCOL               -----    -----      019DH    0005H
  +--> ?PR?_ENQUEUE?FIFO
  +--> ?PR?_BUZZ_SET?BUZZER
  +--> ?PR?UART_SENDSTARTUP?UART
BL51 BANKED LINKER/LOCATER V6.22                                                      10/13/2015  15:22:36  PAGE 14



?PR?CMD_GET_ENE_DATAS_DEAL?PROTOCOL              -----    -----      019DH    0002H
  +--> ?PR?_ENQUEUE?FIFO
  +--> ?PR?_BUZZ_SET?BUZZER
  +--> ?PR?UART_SENDSTARTUP?UART

?PR?CMD_RT_SET_DEAL?PROTOCOL                     -----    -----      -----    -----
  +--> ?PR?_BUZZ_SET?BUZZER
  +--> ?PR?_PROTOCOL_STARESP?PROTOCOL

?PR?CMD_MEM_SET_DEAL?PROTOCOL                    -----    -----      -----    -----
  +--> ?CO?STATE_STANDBY
  +--> ?PR?_STATE_TRANSITIONTO?FSM
  +--> ?PR?_BUZZ_SET?BUZZER
  +--> ?PR?_PROTOCOL_STARESP?PROTOCOL

?PR?CMD_REST_DEAL?PROTOCOL                       -----    -----      -----    -----
  +--> ?CO?STATE_STANDBY
  +--> ?PR?_STATE_TRANSITIONTO?FSM
  +--> ?PR?_BUZZ_SET?BUZZER
  +--> ?PR?_PROTOCOL_STARESP?PROTOCOL

?PR?CMD_GET_DEVICE_INFO_DEAL?PROTOCOL            -----    -----      019DH    0001H
  +--> ?PR?_ENQUEUE?FIFO
  +--> ?PR?UART_SENDSTARTUP?UART

?PR?KEY_ACTIONDETECT?KEY                         -----    -----      0199H    0001H
  +--> ?PR?KEY_READ?KEY

?PR?DUST_DATAUPDATE?DUST                         -----    -----      -----    -----
  +--> ?PR?DUST_GETRTLEVEL?DUST

?PR?MOTOR_CTR?MOTOR                              -----    -----      0199H    0006H

?PR?DISPLAY_CTR?DISPLAY                          -----    -----      -----    -----
  +--> ?PR?_DISPLAY_SETALL?DISPLAY
  +--> ?PR?_AIP1944_WRITEDISPDATAS?AIP1944

?PR?_AIP1944_WRITEDISPDATAS?AIP1944              -----    -----      0199H    0005H
  +--> ?PR?_AIP1944_WRITEBYTE?AIP1944

?PR?HUMIDITY_GETCURRENTT?HUMIDITY                -----    -----      -----    -----
  +--> ?PR?_UTILS_GETADVALUE?HUMIDITY
  +--> ?PR?_HUMIDITY_AD2T?HUMIDITY

?PR?HUMIDITY_GETCURRENTH?HUMIDITY                -----    -----      0199H    0001H
  +--> ?PR?_HUMIDITY_AD2H?HUMIDITY

?PR?DUST_LEVELUPDATE?DUST                        -----    -----      -----    -----
  +--> ?PR?DUST_GETRTLEVEL?DUST

?C_INITSEG                                       -----    -----      -----    -----
  +--> ?CO?FSM

?CO?FSM                                          -----    -----      -----    -----
  +--> ?PR?TASK_DONOTHING?FSM

BL51 BANKED LINKER/LOCATER V6.22                                                      10/13/2015  15:22:36  PAGE 15




SYMBOL TABLE OF MODULE:  YTN-E608-WIFI-6432 (IT)

  VALUE           TYPE          NAME
  ----------------------------------

  -------         MODULE        IT
  C:0000H         SYMBOL        _ICE_DUMMY_
  D:0080H         PUBLIC        P0
  C:4DC0H         PUBLIC        INT_Timer0
  D:0088H         PUBLIC        P1
  D:0090H         PUBLIC        P2
  D:0098H         PUBLIC        P3
  D:00A0H         PUBLIC        P4
  D:00B0H         PUBLIC        P5
  D:008DH         PUBLIC        WDTCR
  D:00A8H         PUBLIC        IE
  D:00B2H         PUBLIC        T0CR
  C:3B71H         PUBLIC        INT_USI1_Rx
  C:3E8AH         PUBLIC        INT_USI1_Tx
  C:2284H         PUBLIC        INT_BIT
  D:0087H         PUBLIC        PCON
  B:0090H.2       PUBLIC        P22
  B:0090H.3       PUBLIC        P23
  D:00F5H         PUBLIC        USI1DR
  D:00ABH         PUBLIC        IE3
  X:01EAH         PUBLIC        SysTick_4ms
  X:01EBH         SYMBOL        pgCntH
  I:0011H         PUBLIC        SquGen_Cnt
  D:00B3H         PUBLIC        T0CNT
  I:0012H         SYMBOL        IR_Flags
  D:00EAH         PUBLIC        USI1CR2
  C:2D8DH         PUBLIC        INT_WT
  -------         PROC          INT_USI1_RX
  -------         DO            
  D:0007H         SYMBOL        len
  -------         ENDDO         
  C:3B71H         LINE#         7
  C:3B8EH         LINE#         12
  C:3B94H         LINE#         15
  C:3BAFH         LINE#         16
  C:3BD6H         LINE#         19
  C:3BFAH         LINE#         20
  C:3C00H         LINE#         21
  C:3C00H         LINE#         22
  C:3C02H         LINE#         23
  C:3C02H         LINE#         24
  -------         ENDPROC       INT_USI1_RX
  -------         PROC          INT_USI1_TX
  C:3E8AH         LINE#         26
  C:3EA7H         LINE#         31
  C:3EC2H         LINE#         32
  C:3EE9H         LINE#         35
  C:3EF9H         LINE#         36
  C:3EF9H         LINE#         37
  C:3EFBH         LINE#         38
BL51 BANKED LINKER/LOCATER V6.22                                                      10/13/2015  15:22:36  PAGE 16


  C:3EFEH         LINE#         39
  C:3EFEH         LINE#         40
  -------         ENDPROC       INT_USI1_TX
  -------         PROC          INT_TIMER0
  C:4DC0H         LINE#         43
  C:4DC6H         LINE#         46
  C:4DCCH         LINE#         47
  -------         ENDPROC       INT_TIMER0
  -------         PROC          INT_WT
  -------         DO            
  X:01E8H         SYMBOL        rt_05sCnt
  X:01E9H         SYMBOL        clearMemoryDataCnt
  -------         ENDDO         
  C:2D8DH         LINE#         51
  C:2DAAH         LINE#         58
  C:2DBFH         LINE#         59
  C:2DC2H         LINE#         60
  C:2DC7H         LINE#         62
  C:2DD1H         LINE#         63
  C:2DD1H         LINE#         64
  C:2DD3H         LINE#         65
  C:2DD5H         LINE#         66
  C:2DE4H         LINE#         67
  C:2DE4H         LINE#         68
  C:2DE6H         LINE#         69
  C:2DE6H         LINE#         71
  C:2DE8H         LINE#         74
  C:2DEAH         LINE#         77
  C:2DF0H         LINE#         78
  C:2DF6H         LINE#         79
  C:2DF6H         LINE#         80
  C:2DF8H         LINE#         82
  C:2DFEH         LINE#         84
  C:2E04H         LINE#         85
  C:2E09H         LINE#         86
  C:2E09H         LINE#         87
  C:2E0BH         LINE#         89
  C:2E0DH         LINE#         91
  C:2E13H         LINE#         92
  C:2E18H         LINE#         93
  C:2E18H         LINE#         94
  C:2E1AH         LINE#         96
  C:2E20H         LINE#         97
  C:2E25H         LINE#         98
  C:2E25H         LINE#         99
  C:2E27H         LINE#         100
  C:2E27H         LINE#         101
  C:2E27H         LINE#         102
  C:2E27H         LINE#         103
  C:2E27H         LINE#         106
  C:2E2AH         LINE#         108
  C:2E2FH         LINE#         109
  C:2E2FH         LINE#         111
  C:2E32H         LINE#         112
  C:2E36H         LINE#         113
  C:2E3AH         LINE#         115
  C:2E3DH         LINE#         116
BL51 BANKED LINKER/LOCATER V6.22                                                      10/13/2015  15:22:36  PAGE 17


  C:2E40H         LINE#         117
  C:2E43H         LINE#         119
  C:2E46H         LINE#         120
  C:2E49H         LINE#         121
  C:2E4CH         LINE#         122
  C:2E4FH         LINE#         123
  C:2E52H         LINE#         124
  C:2E55H         LINE#         128
  C:2E5BH         LINE#         129
  C:2E61H         LINE#         130
  C:2E61H         LINE#         131
  C:2E64H         LINE#         132
  C:2E66H         LINE#         133
  C:2E66H         LINE#         134
  C:2E68H         LINE#         136
  C:2E68H         LINE#         137
  C:2E6EH         LINE#         138
  C:2E6EH         LINE#         139
  C:2E71H         LINE#         140
  C:2E71H         LINE#         142
  C:2E76H         LINE#         143
  C:2E76H         LINE#         144
  -------         ENDPROC       INT_WT
  -------         PROC          INT_BIT
  -------         DO            
  I:0008H         SYMBOL        t_128usCnt
  I:0009H         SYMBOL        rx_mode
  I:000AH         SYMBOL        rxCount
  I:000CH         SYMBOL        dataCount
  I:000DH         SYMBOL        rxData
  I:000FH         SYMBOL        Dust_SignalLowHoldCnt
  -------         ENDDO         
  C:2284H         LINE#         172
  C:22A1H         LINE#         185
  C:22A6H         LINE#         186
  C:22A6H         LINE#         187
  C:22ACH         LINE#         188
  C:22AFH         LINE#         190
  C:22B8H         LINE#         191
  C:22B8H         LINE#         192
  C:22BBH         LINE#         193
  C:22BEH         LINE#         196
  C:22C4H         LINE#         197
  C:22C4H         LINE#         199
  C:22D3H         LINE#         200
  C:22D3H         LINE#         201
  C:22D6H         LINE#         202
  C:22DAH         LINE#         203
  C:22E0H         LINE#         204
  C:22E7H         LINE#         205
  C:22E7H         LINE#         206
  C:22E9H         LINE#         208
  C:22EEH         LINE#         209
  C:22EEH         LINE#         210
  C:22FBH         LINE#         212
  C:2307H         LINE#         213
  C:2307H         LINE#         214
BL51 BANKED LINKER/LOCATER V6.22                                                      10/13/2015  15:22:36  PAGE 18


  C:230DH         LINE#         215
  C:230DH         LINE#         216
  C:2314H         LINE#         218
  C:2316H         LINE#         220
  C:231CH         LINE#         221
  C:231CH         LINE#         222
  C:2329H         LINE#         224
  C:232DH         LINE#         225
  C:2333H         LINE#         226
  C:2336H         LINE#         228
  C:2338H         LINE#         229
  C:2338H         LINE#         230
  C:233AH         LINE#         232
  C:2340H         LINE#         233
  C:2340H         LINE#         234
  C:234CH         LINE#         235
  C:234CH         LINE#         236
  C:234FH         LINE#         237
  C:2355H         LINE#         238
  C:2358H         LINE#         239
  C:2358H         LINE#         240
  C:2358H         LINE#         241
  C:2358H         LINE#         243
  C:235FH         LINE#         244
  C:235FH         LINE#         245
  C:2367H         LINE#         247
  C:2373H         LINE#         248
  C:2373H         LINE#         249
  C:2378H         LINE#         250
  C:237EH         LINE#         251
  C:2382H         LINE#         252
  C:2387H         LINE#         253
  C:2387H         LINE#         254
  C:2387H         LINE#         257
  C:238AH         LINE#         258
  C:2390H         LINE#         259
  C:2390H         LINE#         260
  C:2392H         LINE#         261
  C:2394H         LINE#         262
  C:2396H         LINE#         263
  C:239EH         LINE#         264
  C:239EH         LINE#         265
  C:23A0H         LINE#         266
  C:23A2H         LINE#         267
  C:23A6H         LINE#         268
  C:23A6H         LINE#         269
  C:23A8H         LINE#         270
  C:23A8H         LINE#         271
  C:23A8H         LINE#         274
  C:23ADH         LINE#         275
  C:23ADH         LINE#         276
  C:23B7H         LINE#         277
  C:23B7H         LINE#         278
  C:23BFH         LINE#         279
  C:23C1H         LINE#         280
  C:23C1H         LINE#         281
  C:23C8H         LINE#         282
BL51 BANKED LINKER/LOCATER V6.22                                                      10/13/2015  15:22:36  PAGE 19


  C:23CAH         LINE#         284
  C:23CAH         LINE#         285
  C:23D2H         LINE#         286
  C:23D2H         LINE#         291
  C:23D5H         LINE#         292
  C:23DBH         LINE#         293
  C:23DBH         LINE#         294
  C:23DDH         LINE#         296
  C:23E3H         LINE#         298
  C:23E8H         LINE#         300
  C:23EEH         LINE#         301
  C:23EEH         LINE#         302
  C:23F1H         LINE#         303
  C:23F4H         LINE#         304
  C:23F4H         LINE#         305
  C:23F6H         LINE#         306
  C:23F6H         LINE#         307
  C:23F6H         LINE#         308
  C:23F6H         LINE#         310
  C:23F9H         LINE#         311
  C:23F9H         LINE#         312
  C:2401H         LINE#         313
  C:2401H         LINE#         314
  C:2404H         LINE#         315
  C:2404H         LINE#         316
  C:2404H         LINE#         317
  -------         ENDPROC       INT_BIT
  -------         ENDMOD        IT

  -------         MODULE        ?C_STARTUP
  C:3D60H         SEGMENT       ?C_C51STARTUP
  I:0024H         SEGMENT       ?STACK
  C:0000H         PUBLIC        ?C_STARTUP
  D:00E0H         SYMBOL        ACC
  D:00F0H         SYMBOL        B
  D:0083H         SYMBOL        DPH
  D:0082H         SYMBOL        DPL
  N:0000H         SYMBOL        IBPSTACK
  N:0100H         SYMBOL        IBPSTACKTOP
  N:0100H         SYMBOL        IDATALEN
  C:3D63H         SYMBOL        IDATALOOP
  N:0000H         SYMBOL        PBPSTACK
  N:0000H         SYMBOL        PBPSTACKTOP
  N:0000H         SYMBOL        PDATALEN
  N:0000H         SYMBOL        PDATASTART
  N:0000H         SYMBOL        PPAGE
  N:0000H         SYMBOL        PPAGEENABLE
  D:00A0H         SYMBOL        PPAGE_SFR
  D:0081H         SYMBOL        SP
  C:3D60H         SYMBOL        STARTUP1
  N:0000H         SYMBOL        XBPSTACK
  N:0000H         SYMBOL        XBPSTACKTOP
  N:02E5H         SYMBOL        XDATALEN
  C:3D6EH         SYMBOL        XDATALOOP
  N:001BH         SYMBOL        XDATASTART
  C:0000H         LINE#         94
  C:3D60H         LINE#         101
BL51 BANKED LINKER/LOCATER V6.22                                                      10/13/2015  15:22:36  PAGE 20


  C:3D62H         LINE#         102
  C:3D63H         LINE#         103
  C:3D64H         LINE#         104
  C:3D66H         LINE#         108
  C:3D69H         LINE#         109
  C:3D6BH         LINE#         111
  C:3D6DH         LINE#         115
  C:3D6EH         LINE#         116
  C:3D6FH         LINE#         117
  C:3D70H         LINE#         118
  C:3D72H         LINE#         119
  C:3D74H         LINE#         153
  C:3D77H         LINE#         157
  -------         ENDMOD        ?C_STARTUP

  -------         MODULE        MAIN
  C:0000H         SYMBOL        _ICE_DUMMY_
  D:008DH         PUBLIC        WDTCR
  D:00A8H         PUBLIC        IE
  C:3640H         PUBLIC        main
  C:48BDH         PUBLIC        initAll
  -------         PROC          INITALL
  C:48BDH         LINE#         3
  C:48BDH         LINE#         4
  C:48BDH         LINE#         5
  C:48C0H         LINE#         6
  C:48C3H         LINE#         7
  C:48C6H         LINE#         8
  C:48C9H         LINE#         9
  C:48CCH         LINE#         10
  C:48CFH         LINE#         12
  C:48D5H         LINE#         14
  C:48E0H         LINE#         17
  C:48E9H         LINE#         19
  C:48ECH         LINE#         20
  -------         ENDPROC       INITALL
  -------         PROC          MAIN
  -------         DO            
  I:0013H         SYMBOL        taskIndex
  I:0014H         SYMBOL        taskIndexExt
  I:0015H         SYMBOL        HSampleT_Cnt
  -------         ENDDO         
  C:3640H         LINE#         22
  C:3640H         LINE#         23
  C:3640H         LINE#         29
  C:3643H         LINE#         31
  C:3643H         LINE#         32
  C:3643H         LINE#         33
  C:3646H         LINE#         35
  C:3649H         LINE#         37
  C:3651H         LINE#         38
  C:3651H         LINE#         39
  C:3658H         LINE#         40
  C:3658H         LINE#         41
  C:3661H         LINE#         42
  C:3665H         LINE#         43
  C:3665H         LINE#         44
BL51 BANKED LINKER/LOCATER V6.22                                                      10/13/2015  15:22:36  PAGE 21


  C:3665H         LINE#         46
  C:366BH         LINE#         47
  C:366BH         LINE#         48
  C:366DH         LINE#         50
  C:3670H         LINE#         51
  C:3670H         LINE#         52
  C:3672H         LINE#         54
  C:368CH         LINE#         55
  C:368CH         LINE#         57
  C:368FH         LINE#         58
  C:3691H         LINE#         60
  C:3693H         LINE#         62
  C:36A7H         LINE#         63
  C:36A7H         LINE#         64
  C:36A7H         LINE#         65
  C:36AAH         LINE#         66
  C:36AFH         LINE#         67
  C:36B1H         LINE#         68
  C:36B1H         LINE#         69
  C:36B4H         LINE#         70
  C:36B6H         LINE#         71
  C:36B6H         LINE#         72
  C:36B9H         LINE#         73
  C:36BBH         LINE#         74
  C:36BBH         LINE#         75
  C:36BEH         LINE#         76
  C:36C0H         LINE#         77
  C:36C0H         LINE#         78
  C:36C3H         LINE#         79
  C:36C6H         LINE#         80
  C:36C6H         LINE#         81
  C:36CAH         LINE#         83
  C:36CAH         LINE#         84
  C:36CAH         LINE#         86
  C:36D5H         LINE#         87
  C:36D5H         LINE#         88
  C:36D7H         LINE#         90
  C:36DAH         LINE#         92
  C:36DDH         LINE#         93
  C:36E0H         LINE#         94
  C:36E3H         LINE#         96
  C:36FDH         LINE#         98
  C:3703H         LINE#         99
  C:3703H         LINE#         100
  C:3706H         LINE#         101
  C:3706H         LINE#         103
  C:370CH         LINE#         104
  C:370CH         LINE#         105
  C:370EH         LINE#         106
  C:370EH         LINE#         107
  C:370EH         LINE#         108
  C:370EH         LINE#         109
  -------         ENDPROC       MAIN
  -------         ENDMOD        MAIN

  -------         MODULE        BSP_INIT
  C:0000H         SYMBOL        _ICE_DUMMY_
BL51 BANKED LINKER/LOCATER V6.22                                                      10/13/2015  15:22:36  PAGE 22


  D:0080H         PUBLIC        P0
  D:0088H         PUBLIC        P1
  D:0090H         PUBLIC        P2
  D:0098H         PUBLIC        P3
  D:00A0H         PUBLIC        P4
  D:00B0H         PUBLIC        P5
  D:008DH         PUBLIC        WDTCR
  C:4EB4H         SYMBOL        WDT_init
  D:008EH         PUBLIC        WDTDR
  D:00DEH         PUBLIC        P0DB
  D:0097H         PUBLIC        BUZCR
  C:4EE5H         SYMBOL        BUZ_init
  D:008FH         PUBLIC        BUZDR
  D:00D8H         PUBLIC        LVRCR
  D:00A8H         PUBLIC        IE
  D:0091H         PUBLIC        P0OD
  D:0092H         PUBLIC        P1OD
  D:0093H         PUBLIC        P2OD
  D:0094H         PUBLIC        P4OD
  D:00A1H         PUBLIC        P0IO
  D:00B2H         PUBLIC        T0CR
  D:00B1H         PUBLIC        P1IO
  D:00B4H         PUBLIC        T0DR
  D:00B9H         PUBLIC        P2IO
  D:00C1H         PUBLIC        P3IO
  D:00C9H         PUBLIC        P4IO
  D:00D1H         PUBLIC        P5IO
  C:4EECH         SYMBOL        clock_init
  D:00BDH         PUBLIC        T1ADRH
  D:00ACH         PUBLIC        P0PU
  D:009DH         PUBLIC        ADCCRH
  D:00BFH         PUBLIC        T1BDRH
  D:00ADH         PUBLIC        P1PU
  D:00AEH         PUBLIC        P2PU
  D:00AFH         PUBLIC        P3PU
  D:00F3H         PUBLIC        USI1BD
  D:00BCH         PUBLIC        T1ADRL
  D:00A3H         PUBLIC        P4PU
  D:009CH         PUBLIC        ADCCRL
  D:00BEH         PUBLIC        T1BDRL
  D:0095H         PUBLIC        P5PU
  D:008AH         PUBLIC        SCCR
  C:4DD3H         SYMBOL        _BUZ_OnOff
  D:009BH         PUBLIC        LCDCCR
  D:009AH         PUBLIC        LCDCRH
  D:00D3H         PUBLIC        P0FSRH
  D:0099H         PUBLIC        LCDCRL
  D:00D5H         PUBLIC        P1FSRH
  D:00D7H         PUBLIC        P2FSRH
  D:00D2H         PUBLIC        P0FSRL
  D:00D4H         PUBLIC        P1FSRL
  D:00D6H         PUBLIC        P2FSRL
  D:00DFH         PUBLIC        P15DB
  D:00AAH         PUBLIC        IE2
  D:00ABH         PUBLIC        IE3
  D:0096H         PUBLIC        WTCR
  C:4E7DH         SYMBOL        WT_init
BL51 BANKED LINKER/LOCATER V6.22                                                      10/13/2015  15:22:36  PAGE 23


  D:0089H         PUBLIC        WTDR
  C:4E70H         SYMBOL        Timer0_init
  C:0003H         SYMBOL        Timer1_init
  C:4D17H         SYMBOL        UART_init
  C:4EF9H         SYMBOL        WDT_clear
  C:4E27H         SYMBOL        _ADC_start
  C:491CH         PUBLIC        BSP_Init
  C:4474H         SYMBOL        port_init
  C:4EDEH         SYMBOL        ADC_init
  D:00BBH         PUBLIC        T1CRH
  D:00BAH         PUBLIC        T1CRL
  C:4EC6H         SYMBOL        LCD_init
  D:00E9H         PUBLIC        USI1CR1
  D:00EAH         PUBLIC        USI1CR2
  D:00EBH         PUBLIC        USI1CR3
  D:00EEH         PUBLIC        P3FSR
  D:00EFH         PUBLIC        P4FSR
  D:00FFH         PUBLIC        P5FSR
  D:008BH         PUBLIC        BITCR
  C:00A6H         SYMBOL        BIT_init
  D:00C8H         PUBLIC        OSCCR
  -------         PROC          ADC_INIT
  C:4EDEH         LINE#         4
  C:4EDEH         LINE#         5
  C:4EDEH         LINE#         7
  C:4EE1H         LINE#         8
  C:4EE4H         LINE#         9
  -------         ENDPROC       ADC_INIT
  -------         PROC          _ADC_START
  D:0007H         SYMBOL        ch
  C:4E27H         LINE#         11
  C:4E27H         LINE#         12
  C:4E27H         LINE#         14
  C:4E32H         LINE#         15
  C:4E35H         LINE#         16
  -------         ENDPROC       _ADC_START
  -------         PROC          BIT_INIT
  C:00A6H         LINE#         18
  C:00A6H         LINE#         19
  C:00A6H         LINE#         21
  C:00A9H         LINE#         22
  C:00ACH         LINE#         23
  C:00AFH         LINE#         24
  C:00B2H         LINE#         25
  -------         ENDPROC       BIT_INIT
  -------         PROC          _BUZ_ONOFF
  D:0007H         SYMBOL        On
  C:4DD3H         LINE#         27
  C:4DD3H         LINE#         28
  C:4DD3H         LINE#         30
  C:4DE4H         LINE#         31
  -------         ENDPROC       _BUZ_ONOFF
  -------         PROC          BUZ_INIT
  C:4EE5H         LINE#         33
  C:4EE5H         LINE#         34
  C:4EE5H         LINE#         37
  C:4EE8H         LINE#         38
BL51 BANKED LINKER/LOCATER V6.22                                                      10/13/2015  15:22:36  PAGE 24


  C:4EEBH         LINE#         39
  -------         ENDPROC       BUZ_INIT
  -------         PROC          LCD_INIT
  C:4EC6H         LINE#         41
  C:4EC6H         LINE#         42
  C:4EC6H         LINE#         45
  C:4EC9H         LINE#         46
  C:4ECBH         LINE#         47
  C:4ECDH         LINE#         48
  -------         ENDPROC       LCD_INIT
  -------         PROC          TIMER0_INIT
  C:4E70H         LINE#         50
  C:4E70H         LINE#         51
  C:4E70H         LINE#         54
  C:4E73H         LINE#         55
  C:4E76H         LINE#         56
  C:4E79H         LINE#         57
  C:4E7CH         LINE#         58
  -------         ENDPROC       TIMER0_INIT
  -------         PROC          TIMER1_INIT
  C:0003H         LINE#         60
  C:0003H         LINE#         61
  C:0003H         LINE#         65
  C:0006H         LINE#         66
  C:0009H         LINE#         67
  C:000CH         LINE#         70
  C:000FH         LINE#         71
  C:0011H         LINE#         72
  C:0014H         LINE#         73
  C:0017H         LINE#         74
  C:001AH         LINE#         75
  -------         ENDPROC       TIMER1_INIT
  -------         PROC          UART_INIT
  C:4D17H         LINE#         77
  C:4D17H         LINE#         78
  C:4D17H         LINE#         81
  C:4D1AH         LINE#         82
  C:4D1DH         LINE#         83
  C:4D20H         LINE#         84
  C:4D23H         LINE#         85
  C:4D26H         LINE#         86
  C:4D29H         LINE#         87
  C:4D2CH         LINE#         88
  -------         ENDPROC       UART_INIT
  -------         PROC          WDT_CLEAR
  C:4EF9H         LINE#         90
  C:4EF9H         LINE#         91
  C:4EF9H         LINE#         92
  C:4EFCH         LINE#         93
  -------         ENDPROC       WDT_CLEAR
  -------         PROC          WDT_INIT
  C:4EB4H         LINE#         95
  C:4EB4H         LINE#         96
  C:4EB4H         LINE#         98
  C:4EB7H         LINE#         99
  C:4EBAH         LINE#         101
  -------         ENDPROC       WDT_INIT
BL51 BANKED LINKER/LOCATER V6.22                                                      10/13/2015  15:22:36  PAGE 25


  -------         PROC          WT_INIT
  C:4E7DH         LINE#         104
  C:4E7DH         LINE#         105
  C:4E7DH         LINE#         107
  C:4E80H         LINE#         108
  C:4E83H         LINE#         109
  C:4E86H         LINE#         110
  C:4E89H         LINE#         111
  -------         ENDPROC       WT_INIT
  -------         PROC          CLOCK_INIT
  C:4EECH         LINE#         113
  C:4EECH         LINE#         114
  C:4EECH         LINE#         116
  C:4EEFH         LINE#         117
  C:4EF2H         LINE#         118
  -------         ENDPROC       CLOCK_INIT
  -------         PROC          PORT_INIT
  C:4474H         LINE#         120
  C:4474H         LINE#         121
  C:4474H         LINE#         158
  C:4477H         LINE#         159
  C:447AH         LINE#         160
  C:447DH         LINE#         161
  C:447FH         LINE#         162
  C:4481H         LINE#         164
  C:4484H         LINE#         165
  C:4486H         LINE#         166
  C:4488H         LINE#         167
  C:448AH         LINE#         168
  C:448CH         LINE#         170
  C:448FH         LINE#         171
  C:4492H         LINE#         172
  C:4494H         LINE#         173
  C:4496H         LINE#         175
  C:4499H         LINE#         176
  C:449BH         LINE#         177
  C:449DH         LINE#         179
  C:44A0H         LINE#         180
  C:44A3H         LINE#         181
  C:44A5H         LINE#         182
  C:44A7H         LINE#         184
  C:44AAH         LINE#         185
  C:44ACH         LINE#         186
  C:44AEH         LINE#         189
  C:44B0H         LINE#         190
  C:44B3H         LINE#         191
  C:44B5H         LINE#         192
  C:44B8H         LINE#         193
  C:44BAH         LINE#         194
  C:44BDH         LINE#         195
  C:44BFH         LINE#         196
  C:44C1H         LINE#         197
  C:44C4H         LINE#         198
  -------         ENDPROC       PORT_INIT
  -------         PROC          BSP_INIT
  C:491CH         LINE#         200
  C:491CH         LINE#         201
BL51 BANKED LINKER/LOCATER V6.22                                                      10/13/2015  15:22:36  PAGE 26


  C:491CH         LINE#         202
  C:491FH         LINE#         204
  C:4922H         LINE#         205
  C:4925H         LINE#         206
  C:4928H         LINE#         207
  C:492BH         LINE#         208
  C:492BH         LINE#         209
  C:492BH         LINE#         210
  C:4930H         LINE#         211
  C:4930H         LINE#         212
  C:4933H         LINE#         213
  C:4935H         LINE#         215
  C:4935H         LINE#         216
  C:4935H         LINE#         217
  C:4935H         LINE#         218
  C:4935H         LINE#         220
  C:4938H         LINE#         221
  C:493BH         LINE#         222
  C:493EH         LINE#         223
  C:4941H         LINE#         224
  C:4944H         LINE#         225
  C:4947H         LINE#         226
  -------         ENDPROC       BSP_INIT
  -------         ENDMOD        BSP_INIT

  -------         MODULE        AIP1944
  C:0000H         SYMBOL        _ICE_DUMMY_
  C:4C3AH         PUBLIC        _AIP1944_WriteByte
  B:00A0H.0       PUBLIC        P40
  B:00A0H.1       PUBLIC        P41
  B:00A0H.2       PUBLIC        P42
  C:44C5H         PUBLIC        _Aip1944_WriteDispDatas
  X:01FEH         PUBLIC        Aip1944_BrightnessLevel
  -------         PROC          _AIP1944_WRITEBYTE
  D:0007H         SYMBOL        _byte
  -------         DO            
  D:0006H         SYMBOL        i
  -------         ENDDO         
  C:4C3AH         LINE#         36
  C:4C3AH         LINE#         37
  C:4C3AH         LINE#         40
  C:4C3CH         LINE#         41
  C:4C3CH         LINE#         42
  C:4C40H         LINE#         43
  C:4C40H         LINE#         44
  C:4C42H         LINE#         45
  C:4C44H         LINE#         47
  C:4C44H         LINE#         48
  C:4C46H         LINE#         49
  C:4C46H         LINE#         51
  C:4C48H         LINE#         53
  C:4C4CH         LINE#         55
  C:4C4EH         LINE#         56
  C:4C53H         LINE#         57
  -------         ENDPROC       _AIP1944_WRITEBYTE
  -------         PROC          _AIP1944_WRITEDISPDATAS
  X:0199H         SYMBOL        dats
BL51 BANKED LINKER/LOCATER V6.22                                                      10/13/2015  15:22:36  PAGE 27


  D:0005H         SYMBOL        len
  X:019DH         SYMBOL        addr
  -------         DO            
  D:0004H         SYMBOL        i
  -------         ENDDO         
  C:44C5H         LINE#         59
  C:44D0H         LINE#         60
  C:44D0H         LINE#         63
  C:44D2H         LINE#         64
  C:44D7H         LINE#         65
  C:44D9H         LINE#         66
  C:44DBH         LINE#         67
  C:44E5H         LINE#         68
  C:44ECH         LINE#         69
  C:44ECH         LINE#         70
  C:4503H         LINE#         71
  C:4506H         LINE#         72
  C:4508H         LINE#         74
  C:450AH         LINE#         75
  C:4512H         LINE#         76
  C:4514H         LINE#         77
  -------         ENDPROC       _AIP1944_WRITEDISPDATAS
  -------         ENDMOD        AIP1944

  -------         MODULE        DISPLAY
  C:0000H         SYMBOL        _ICE_DUMMY_
  D:0090H         PUBLIC        P2
  D:0098H         PUBLIC        P3
  C:4D84H         PUBLIC        _Display_SetAll
  C:3711H         PUBLIC        _Display_ShowRT
  C:29DEH         PUBLIC        PM_COM10_E_nums
  C:2A27H         PUBLIC        RT_COM_H1_E_nums
  C:29F2H         PUBLIC        PM_COM1_E1_nums
  C:29FCH         PUBLIC        PM_COM1_E2_nums
  C:297AH         PUBLIC        H_COM10_nums
  C:2A5EH         PUBLIC        RT_COM_M1_E_nums
  C:29B6H         PUBLIC        PM_COM100_nums
  C:2A06H         PUBLIC        RT_COM_H10_nums
  D:00B9H         PUBLIC        P2IO
  C:2A32H         PUBLIC        RT_COM_M10_nums
  C:2952H         PUBLIC        T_COM10_nums
  D:00C1H         PUBLIC        P3IO
  B:0021H.6       PUBLIC        Display_IsLowLight
  X:0152H         PUBLIC        Display_Datas
  C:2F93H         PUBLIC        _Display_ShowNumInRTCArea
  C:2998H         PUBLIC        H_COM1_EXT_nums
  C:42C0H         PUBLIC        _Display_ShowHumidity
  C:29E8H         PUBLIC        PM_COM1_nums
  C:2A11H         PUBLIC        RT_COM_H10_E_nums
  C:2970H         PUBLIC        T_COM1_EXT_nums
  C:29A2H         PUBLIC        PM_COM1000_nums
  C:45ABH         PUBLIC        _Display_CircleRun
  C:3965H         PUBLIC        Display_LedDrive
  C:4702H         PUBLIC        _Display_DustLevel
  C:2E91H         PUBLIC        _Display_DustData
  C:298EH         PUBLIC        H_COM1_nums
  C:2984H         PUBLIC        H_COM10_EXT_nums
BL51 BANKED LINKER/LOCATER V6.22                                                      10/13/2015  15:22:36  PAGE 28


  C:29D4H         PUBLIC        PM_COM10_nums
  C:4857H         PUBLIC        Display_Ctr
  C:2A1CH         PUBLIC        RT_COM_H1_nums
  B:0021H.7       PUBLIC        Display_FlashOn
  C:2A53H         PUBLIC        RT_COM_M1_nums
  C:29ACH         PUBLIC        PM_COM1000_E_nums
  C:2966H         PUBLIC        T_COM1_nums
  C:29C0H         PUBLIC        PM_COM100_E1_nums
  C:29CAH         PUBLIC        PM_COM100_E2_nums
  C:295CH         PUBLIC        T_COM10_EXT_nums
  C:2A3DH         PUBLIC        RT_COM_M10_E1_nums
  C:2A48H         PUBLIC        RT_COM_M10_E2_nums
  C:4A27H         PUBLIC        Display_SetLine
  C:4261H         PUBLIC        _Display_ShowTemperature
  X:0191H         PUBLIC        Display_LedsEn
  C:006EH         PUBLIC        _Display_SpLevel
  -------         PROC          _DISPLAY_SETALL
  D:0007H         SYMBOL        sta
  -------         DO            
  D:0006H         SYMBOL        i
  -------         ENDDO         
  C:4D84H         LINE#         11
  C:4D84H         LINE#         12
  C:4D84H         LINE#         15
  C:4D86H         LINE#         16
  C:4D86H         LINE#         17
  C:4D92H         LINE#         18
  C:4D97H         LINE#         19
  -------         ENDPROC       _DISPLAY_SETALL
  -------         PROC          DISPLAY_SETLINE
  C:4A27H         LINE#         22
  C:4A27H         LINE#         23
  C:4A27H         LINE#         24
  C:4A2DH         LINE#         25
  C:4A2FH         LINE#         26
  C:4A31H         LINE#         28
  C:4A35H         LINE#         29
  C:4A37H         LINE#         30
  C:4A39H         LINE#         32
  C:4A40H         LINE#         33
  C:4A44H         LINE#         34
  C:4A46H         LINE#         35
  -------         ENDPROC       DISPLAY_SETLINE
  -------         PROC          _DISPLAY_CIRCLERUN
  D:0007H         SYMBOL        sp
  -------         DO            
  X:0150H         SYMBOL        cnt
  B:0021H.5       SYMBOL        disIndex
  -------         ENDDO         
  C:45ABH         LINE#         37
  C:45ABH         LINE#         38
  C:45ABH         LINE#         41
  C:45B1H         LINE#         42
  C:45B6H         LINE#         43
  C:45B6H         LINE#         44
  C:45B8H         LINE#         46
  C:45BAH         LINE#         47
BL51 BANKED LINKER/LOCATER V6.22                                                      10/13/2015  15:22:36  PAGE 29


  C:45BAH         LINE#         49
  C:45C1H         LINE#         51
  C:45C4H         LINE#         52
  C:45C4H         LINE#         53
  C:45CBH         LINE#         54
  C:45D2H         LINE#         55
  C:45D9H         LINE#         56
  C:45DAH         LINE#         58
  C:45DAH         LINE#         59
  C:45E6H         LINE#         60
  C:45EDH         LINE#         61
  C:45F4H         LINE#         62
  C:45F4H         LINE#         88
  -------         ENDPROC       _DISPLAY_CIRCLERUN
  -------         PROC          _DISPLAY_DUSTLEVEL
  D:0007H         SYMBOL        level
  C:4702H         LINE#         90
  C:4702H         LINE#         91
  C:4702H         LINE#         92
  C:4715H         LINE#         93
  C:4715H         LINE#         94
  C:4715H         LINE#         95
  C:471CH         LINE#         96
  C:471CH         LINE#         97
  C:4723H         LINE#         98
  C:4723H         LINE#         99
  C:472AH         LINE#         100
  C:472AH         LINE#         101
  C:4731H         LINE#         102
  C:4731H         LINE#         103
  C:4738H         LINE#         104
  C:4738H         LINE#         105
  C:473FH         LINE#         106
  C:473FH         LINE#         107
  C:473FH         LINE#         108
  C:473FH         LINE#         109
  C:473FH         LINE#         110
  -------         ENDPROC       _DISPLAY_DUSTLEVEL
  -------         PROC          _DISPLAY_SPLEVEL
  D:0007H         SYMBOL        level
  C:006EH         LINE#         112
  C:006EH         LINE#         113
  C:006EH         LINE#         114
  C:007EH         LINE#         115
  C:007EH         LINE#         116
  C:007EH         LINE#         117
  C:0085H         LINE#         118
  C:0085H         LINE#         119
  C:008CH         LINE#         120
  C:008CH         LINE#         121
  C:0093H         LINE#         122
  C:0093H         LINE#         123
  C:009AH         LINE#         124
  C:009AH         LINE#         125
  C:00A1H         LINE#         126
  C:00A1H         LINE#         127
  C:00A1H         LINE#         128
BL51 BANKED LINKER/LOCATER V6.22                                                      10/13/2015  15:22:36  PAGE 30


  C:00A1H         LINE#         129
  C:00A1H         LINE#         130
  -------         ENDPROC       _DISPLAY_SPLEVEL
  -------         PROC          _DISPLAY_SHOWTEMPERATURE
  D:0007H         SYMBOL        t
  -------         DO            
  D:0005H         SYMBOL        v10
  D:0004H         SYMBOL        v1
  -------         ENDDO         
  C:4261H         LINE#         225
  C:4261H         LINE#         226
  C:4261H         LINE#         230
  C:4267H         LINE#         231
  C:4267H         LINE#         232
  C:4269H         LINE#         233
  C:4269H         LINE#         235
  C:426FH         LINE#         236
  C:4276H         LINE#         238
  C:4279H         LINE#         239
  C:4279H         LINE#         240
  C:428AH         LINE#         241
  C:429DH         LINE#         242
  C:429DH         LINE#         243
  C:42AEH         LINE#         244
  C:42BFH         LINE#         245
  -------         ENDPROC       _DISPLAY_SHOWTEMPERATURE
  -------         PROC          _DISPLAY_SHOWHUMIDITY
  D:0007H         SYMBOL        h
  -------         DO            
  D:0005H         SYMBOL        v10
  D:0004H         SYMBOL        v1
  -------         ENDDO         
  C:42C0H         LINE#         328
  C:42C0H         LINE#         329
  C:42C0H         LINE#         333
  C:42C6H         LINE#         334
  C:42C6H         LINE#         335
  C:42C8H         LINE#         336
  C:42C8H         LINE#         338
  C:42CEH         LINE#         339
  C:42D5H         LINE#         341
  C:42D8H         LINE#         342
  C:42D8H         LINE#         343
  C:42E9H         LINE#         344
  C:42FCH         LINE#         345
  C:42FCH         LINE#         346
  C:430DH         LINE#         347
  C:431EH         LINE#         348
  -------         ENDPROC       _DISPLAY_SHOWHUMIDITY
  -------         PROC          _DISPLAY_DUSTDATA
  D:0002H         SYMBOL        pm
  -------         DO            
  X:019DH         SYMBOL        v1000
  X:019EH         SYMBOL        v100
  X:019FH         SYMBOL        v10
  D:0003H         SYMBOL        v1
  -------         ENDDO         
BL51 BANKED LINKER/LOCATER V6.22                                                      10/13/2015  15:22:36  PAGE 31


  C:2E91H         LINE#         553
  C:2E95H         LINE#         554
  C:2E95H         LINE#         560
  C:2E9EH         LINE#         561
  C:2E9EH         LINE#         562
  C:2EA2H         LINE#         563
  C:2EA2H         LINE#         565
  C:2EB2H         LINE#         566
  C:2EC7H         LINE#         567
  C:2EDCH         LINE#         568
  C:2EE9H         LINE#         571
  C:2EFEH         LINE#         572
  C:2F10H         LINE#         574
  C:2F1EH         LINE#         575
  C:2F2FH         LINE#         576
  C:2F44H         LINE#         578
  C:2F52H         LINE#         579
  C:2F64H         LINE#         582
  C:2F6EH         LINE#         583
  C:2F7FH         LINE#         584
  C:2F92H         LINE#         585
  -------         ENDPROC       _DISPLAY_DUSTDATA
  -------         PROC          _DISPLAY_SHOWRT
  D:0007H         SYMBOL        h
  D:0005H         SYMBOL        m
  B:0020H.5       SYMBOL        hFlashEn
  B:0020H.6       SYMBOL        mFlashEn
  -------         DO            
  D:0001H         SYMBOL        h10
  D:0006H         SYMBOL        h1
  D:0004H         SYMBOL        m10
  D:0003H         SYMBOL        m1
  -------         ENDDO         
  C:3711H         LINE#         787
  C:3711H         LINE#         788
  C:3711H         LINE#         795
  C:3717H         LINE#         796
  C:371EH         LINE#         797
  C:3724H         LINE#         798
  C:372BH         LINE#         800
  C:3731H         LINE#         801
  C:3731H         LINE#         802
  C:3733H         LINE#         803
  C:3735H         LINE#         804
  C:3735H         LINE#         806
  C:373BH         LINE#         807
  C:373BH         LINE#         808
  C:373DH         LINE#         809
  C:373FH         LINE#         810
  C:373FH         LINE#         811
  C:3745H         LINE#         812
  C:3745H         LINE#         813
  C:3756H         LINE#         814
  C:3767H         LINE#         816
  C:3778H         LINE#         817
  C:3789H         LINE#         818
  C:3789H         LINE#         821
BL51 BANKED LINKER/LOCATER V6.22                                                      10/13/2015  15:22:36  PAGE 32


  C:378FH         LINE#         822
  C:378FH         LINE#         823
  C:37A0H         LINE#         824
  C:37B1H         LINE#         825
  C:37C3H         LINE#         827
  C:37CDH         LINE#         828
  C:37DEH         LINE#         829
  C:37DEH         LINE#         830
  -------         ENDPROC       _DISPLAY_SHOWRT
  -------         PROC          _DISPLAY_SHOWNUMINRTCAREA
  D:0002H         SYMBOL        num
  -------         DO            
  X:019DH         SYMBOL        v1000
  X:019EH         SYMBOL        v100
  X:019FH         SYMBOL        v10
  D:0001H         SYMBOL        v1
  -------         ENDDO         
  C:2F93H         LINE#         833
  C:2F97H         LINE#         834
  C:2F97H         LINE#         840
  C:2FA3H         LINE#         841
  C:2FB8H         LINE#         842
  C:2FCDH         LINE#         843
  C:2FDAH         LINE#         846
  C:2FE3H         LINE#         847
  C:2FE3H         LINE#         848
  C:2FE9H         LINE#         849
  C:2FEBH         LINE#         850
  C:2FEDH         LINE#         851
  C:2FEEH         LINE#         852
  C:2FEEH         LINE#         855
  C:3003H         LINE#         856
  C:3014H         LINE#         858
  C:3029H         LINE#         859
  C:303AH         LINE#         861
  C:304FH         LINE#         862
  C:3060H         LINE#         863
  C:3075H         LINE#         865
  C:307FH         LINE#         866
  C:3090H         LINE#         867
  -------         ENDPROC       _DISPLAY_SHOWNUMINRTCAREA
  -------         PROC          DISPLAY_LEDDRIVE
  B:0020H.4       SYMBOL        comChangeEn
  -------         DO            
  X:0151H         SYMBOL        scanCnt
  -------         ENDDO         
  C:3965H         LINE#         889
  C:3965H         LINE#         890
  C:3965H         LINE#         893
  C:3968H         LINE#         894
  C:3968H         LINE#         895
  C:396EH         LINE#         896
  C:396EH         LINE#         898
  C:3974H         LINE#         899
  C:397AH         LINE#         900
  C:3985H         LINE#         901
  C:3985H         LINE#         902
BL51 BANKED LINKER/LOCATER V6.22                                                      10/13/2015  15:22:36  PAGE 33


  C:3985H         LINE#         903
  C:398CH         LINE#         904
  C:398CH         LINE#         905
  C:398FH         LINE#         906
  C:3991H         LINE#         908
  C:3991H         LINE#         909
  C:3994H         LINE#         910
  C:3994H         LINE#         911
  C:399BH         LINE#         912
  C:399BH         LINE#         913
  C:399EH         LINE#         914
  C:39A0H         LINE#         916
  C:39A0H         LINE#         917
  C:39A3H         LINE#         918
  C:39A3H         LINE#         920
  C:39A9H         LINE#         921
  C:39AAH         LINE#         922
  C:39AAH         LINE#         923
  C:39B1H         LINE#         924
  C:39B1H         LINE#         925
  C:39B4H         LINE#         926
  C:39B6H         LINE#         928
  C:39B6H         LINE#         929
  C:39B9H         LINE#         930
  C:39B9H         LINE#         931
  C:39C0H         LINE#         932
  C:39C0H         LINE#         933
  C:39C3H         LINE#         934
  C:39C5H         LINE#         936
  C:39C5H         LINE#         937
  C:39C8H         LINE#         938
  C:39C8H         LINE#         939
  C:39CEH         LINE#         940
  C:39CFH         LINE#         941
  C:39CFH         LINE#         942
  C:39CFH         LINE#         943
  C:39D6H         LINE#         944
  C:39D6H         LINE#         945
  C:39D9H         LINE#         946
  C:39DBH         LINE#         948
  C:39DBH         LINE#         949
  C:39DEH         LINE#         950
  C:39DEH         LINE#         952
  C:39E5H         LINE#         953
  C:39E5H         LINE#         954
  C:39E8H         LINE#         955
  C:39EAH         LINE#         957
  C:39EAH         LINE#         958
  C:39EDH         LINE#         959
  C:39EDH         LINE#         961
  C:39F4H         LINE#         962
  C:39F4H         LINE#         963
  C:39F7H         LINE#         964
  C:39F9H         LINE#         966
  C:39F9H         LINE#         967
  C:39FCH         LINE#         968
  C:39FCH         LINE#         970
BL51 BANKED LINKER/LOCATER V6.22                                                      10/13/2015  15:22:36  PAGE 34


  C:3A03H         LINE#         971
  C:3A03H         LINE#         972
  C:3A06H         LINE#         973
  C:3A08H         LINE#         975
  C:3A08H         LINE#         976
  C:3A0BH         LINE#         977
  C:3A0BH         LINE#         978
  C:3A11H         LINE#         980
  C:3A16H         LINE#         981
  C:3A16H         LINE#         982
  C:3A16H         LINE#         983
  -------         ENDPROC       DISPLAY_LEDDRIVE
  -------         PROC          DISPLAY_CTR
  C:4857H         LINE#         986
  C:4857H         LINE#         987
  C:4857H         LINE#         988
  C:485CH         LINE#         989
  C:4861H         LINE#         991
  C:487AH         LINE#         993
  -------         ENDPROC       DISPLAY_CTR
  -------         ENDMOD        DISPLAY

  -------         MODULE        BUZZER
  C:0000H         SYMBOL        _ICE_DUMMY_
  D:0097H         PUBLIC        BUZCR
  X:01ECH         SYMBOL        Buzz_times
  C:463BH         PUBLIC        Buzz_Ctr
  C:4ADBH         PUBLIC        _Buzz_Set
  B:0022H.7       SYMBOL        Buzz_En
  X:01EDH         SYMBOL        Buzz_off
  X:01EEH         SYMBOL        Buzz_cnt
  X:01EFH         SYMBOL        Buzz_on
  C:4DE5H         PUBLIC        Buzz_DeviceInit
  -------         PROC          BUZZ_DEVICEINIT
  C:4DE5H         LINE#         11
  C:4DE5H         LINE#         12
  C:4DE5H         LINE#         13
  C:4DE7H         LINE#         15
  C:4DECH         LINE#         16
  C:4DF0H         LINE#         17
  C:4DF4H         LINE#         19
  C:4DF6H         LINE#         20
  -------         ENDPROC       BUZZ_DEVICEINIT
  -------         PROC          _BUZZ_SET
  D:0007H         SYMBOL        times
  D:0005H         SYMBOL        on
  D:0003H         SYMBOL        off
  C:4ADBH         LINE#         22
  C:4ADBH         LINE#         23
  C:4ADBH         LINE#         24
  C:4AE0H         LINE#         25
  C:4AE0H         LINE#         26
  C:4AE3H         LINE#         27
  C:4AE3H         LINE#         29
  C:4AE8H         LINE#         30
  C:4AEDH         LINE#         31
  C:4AF2H         LINE#         33
BL51 BANKED LINKER/LOCATER V6.22                                                      10/13/2015  15:22:36  PAGE 35


  C:4AF5H         LINE#         34
  -------         ENDPROC       _BUZZ_SET
  -------         PROC          BUZZ_CTR
  C:463BH         LINE#         36
  C:463BH         LINE#         37
  C:463BH         LINE#         38
  C:4641H         LINE#         39
  C:4641H         LINE#         40
  C:4647H         LINE#         42
  C:4653H         LINE#         43
  C:4653H         LINE#         44
  C:4656H         LINE#         45
  C:4656H         LINE#         46
  C:4659H         LINE#         47
  C:4659H         LINE#         49
  C:465BH         LINE#         50
  C:465CH         LINE#         51
  C:4666H         LINE#         52
  C:4666H         LINE#         53
  C:4669H         LINE#         54
  C:4669H         LINE#         55
  C:466CH         LINE#         56
  C:466CH         LINE#         57
  C:466EH         LINE#         58
  C:466FH         LINE#         60
  C:466FH         LINE#         61
  C:4675H         LINE#         62
  C:467AH         LINE#         63
  C:467AH         LINE#         64
  C:467BH         LINE#         66
  C:467BH         LINE#         67
  C:467DH         LINE#         68
  C:467DH         LINE#         69
  -------         ENDPROC       BUZZ_CTR
  -------         ENDMOD        BUZZER

  -------         MODULE        IR
  C:0000H         SYMBOL        _ICE_DUMMY_
  B:0023H.0       PUBLIC        IR_Changed
  X:01F8H         PUBLIC        IR_Code
  -------         ENDMOD        IR

  -------         MODULE        HUMIDITY
  C:0000H         SYMBOL        _ICE_DUMMY_
  C:097DH         SYMBOL        H_Table38
  C:0758H         SYMBOL        H_Table29
  C:09BAH         SYMBOL        H_Table39
  C:3CC0H         PUBLIC        Humidity_GetCurrentH
  C:3FA6H         PUBLIC        Humidity_GetCurrentT
  C:412CH         SYMBOL        _Humidity_GetH
  C:01A0H         SYMBOL        H_table45
  C:4DF7H         PUBLIC        Humidity_DeviceInit
  C:0B28H         SYMBOL        H_tables
  D:009FH         PUBLIC        ADCDRH
  D:009CH         PUBLIC        ADCCRL
  C:4D2DH         PUBLIC        _Utils_GetAdValue
  C:00B6H         SYMBOL        T_table
BL51 BANKED LINKER/LOCATER V6.22                                                      10/13/2015  15:22:36  PAGE 36


  I:0016H         PUBLIC        Humidity_AdHBuf
  C:01DDH         SYMBOL        H_Table6
  C:021AH         SYMBOL        H_Table7
  C:0257H         SYMBOL        H_Table8
  C:0294H         SYMBOL        H_Table9
  C:3091H         SYMBOL        _Humidity_Ad2H
  C:4D98H         SYMBOL        _Humidity_Ad2T
  I:0017H         PUBLIC        Humidity_CurrentH
  C:0163H         SYMBOL        H_table5
  I:0018H         PUBLIC        Humidity_CurrentT
  C:02D1H         SYMBOL        H_Table10
  C:0533H         SYMBOL        H_Table20
  C:030EH         SYMBOL        H_Table11
  C:0795H         SYMBOL        H_Table30
  C:0570H         SYMBOL        H_Table21
  C:034BH         SYMBOL        H_Table12
  C:09F7H         SYMBOL        H_Table40
  C:07D2H         SYMBOL        H_Table31
  C:05ADH         SYMBOL        H_Table22
  C:0388H         SYMBOL        H_Table13
  C:0A34H         SYMBOL        H_Table41
  C:080FH         SYMBOL        H_Table32
  C:05EAH         SYMBOL        H_Table23
  C:03C5H         SYMBOL        H_Table14
  C:0A71H         SYMBOL        H_Table42
  C:084CH         SYMBOL        H_Table33
  C:0627H         SYMBOL        H_Table24
  C:0402H         SYMBOL        H_Table15
  C:0AAEH         SYMBOL        H_Table43
  C:0889H         SYMBOL        H_Table34
  C:0664H         SYMBOL        H_Table25
  C:043FH         SYMBOL        H_Table16
  C:0AEBH         SYMBOL        H_Table44
  C:08C6H         SYMBOL        H_Table35
  C:06A1H         SYMBOL        H_Table26
  C:047CH         SYMBOL        H_Table17
  C:0903H         SYMBOL        H_Table36
  C:06DEH         SYMBOL        H_Table27
  C:04B9H         SYMBOL        H_Table18
  C:0940H         SYMBOL        H_Table37
  C:071BH         SYMBOL        H_Table28
  C:04F6H         SYMBOL        H_Table19
  -------         PROC          _UTILS_GETADVALUE
  D:0007H         SYMBOL        ch
  C:4D2DH         LINE#         3082
  C:4D2DH         LINE#         3083
  C:4D2DH         LINE#         3086
  C:4D38H         LINE#         3087
  C:4D3BH         LINE#         3089
  C:4D40H         LINE#         3094
  C:4D42H         LINE#         3095
  -------         ENDPROC       _UTILS_GETADVALUE
  -------         PROC          _HUMIDITY_AD2T
  D:0007H         SYMBOL        adValue
  C:4D98H         LINE#         3099
  C:4D98H         LINE#         3100
  C:4D98H         LINE#         3101
BL51 BANKED LINKER/LOCATER V6.22                                                      10/13/2015  15:22:36  PAGE 37


  C:4D9EH         LINE#         3102
  C:4D9EH         LINE#         3103
  C:4DA2H         LINE#         3104
  C:4DA3H         LINE#         3106
  C:4DA3H         LINE#         3107
  C:4DABH         LINE#         3108
  C:4DABH         LINE#         3109
  -------         ENDPROC       _HUMIDITY_AD2T
  -------         PROC          HUMIDITY_GETCURRENTT
  -------         DO            
  X:01BEH         SYMBOL        adSum
  X:01C0H         SYMBOL        adMax
  X:01C1H         SYMBOL        adMin
  X:01C2H         SYMBOL        sampleCnt
  D:0007H         SYMBOL        adValue
  -------         ENDDO         
  C:3FA6H         LINE#         3111
  C:3FA6H         LINE#         3112
  C:3FA6H         LINE#         3120
  C:3FABH         LINE#         3122
  C:3FB5H         LINE#         3123
  C:3FB5H         LINE#         3124
  C:3FB7H         LINE#         3125
  C:3FB7H         LINE#         3127
  C:3FC1H         LINE#         3128
  C:3FC1H         LINE#         3129
  C:3FC3H         LINE#         3130
  C:3FC3H         LINE#         3132
  C:3FD0H         LINE#         3133
  C:3FD6H         LINE#         3134
  C:3FDCH         LINE#         3135
  C:3FDCH         LINE#         3136
  C:4001H         LINE#         3137
  C:401AH         LINE#         3139
  C:401DH         LINE#         3141
  C:4022H         LINE#         3143
  C:4028H         LINE#         3144
  C:402AH         LINE#         3145
  C:402EH         LINE#         3146
  C:402EH         LINE#         3147
  -------         ENDPROC       HUMIDITY_GETCURRENTT
  -------         PROC          L?0044
  -------         ENDPROC       L?0044
  -------         PROC          _HUMIDITY_GETH
  D:0007H         SYMBOL        adH
  D:0005H         SYMBOL        adT
  -------         DO            
  X:019DH         SYMBOL        table
  D:0006H         SYMBOL        i
  -------         ENDDO         
  C:412CH         LINE#         3149
  C:412CH         LINE#         3150
  C:412CH         LINE#         3154
  C:4130H         LINE#         3155
  C:4130H         LINE#         3156
  C:413EH         LINE#         3157
  C:4140H         LINE#         3158
BL51 BANKED LINKER/LOCATER V6.22                                                      10/13/2015  15:22:36  PAGE 38


  C:4144H         LINE#         3159
  C:4144H         LINE#         3160
  C:4152H         LINE#         3161
  C:4154H         LINE#         3163
  C:4154H         LINE#         3164
  C:4177H         LINE#         3165
  C:4177H         LINE#         3167
  C:4179H         LINE#         3168
  C:4179H         LINE#         3169
  C:4192H         LINE#         3170
  C:4192H         LINE#         3171
  C:4192H         LINE#         3172
  C:4192H         LINE#         3173
  C:4197H         LINE#         3175
  C:419BH         LINE#         3176
  -------         ENDPROC       _HUMIDITY_GETH
  -------         PROC          _HUMIDITY_AD2H
  X:019AH         SYMBOL        adH
  -------         DO            
  X:019BH         SYMBOL        h1
  X:019CH         SYMBOL        h2
  -------         ENDDO         
  C:3091H         LINE#         3178
  C:3096H         LINE#         3179
  C:3096H         LINE#         3183
  C:30A1H         LINE#         3184
  C:30A1H         LINE#         3185
  C:30A5H         LINE#         3186
  C:30A8H         LINE#         3187
  C:30B0H         LINE#         3188
  C:30B0H         LINE#         3189
  C:30B7H         LINE#         3190
  C:30BAH         LINE#         3191
  C:30C4H         LINE#         3192
  C:30C4H         LINE#         3193
  C:30CEH         LINE#         3194
  C:30D8H         LINE#         3197
  C:3117H         LINE#         3198
  C:3119H         LINE#         3199
  C:3128H         LINE#         3200
  C:3128H         LINE#         3201
  C:3132H         LINE#         3202
  C:3141H         LINE#         3205
  C:3182H         LINE#         3206
  C:3183H         LINE#         3208
  C:3183H         LINE#         3209
  C:318EH         LINE#         3210
  C:318EH         LINE#         3211
  -------         ENDPROC       _HUMIDITY_AD2H
  -------         PROC          HUMIDITY_GETCURRENTH
  -------         DO            
  X:01C3H         SYMBOL        adSum
  X:01C5H         SYMBOL        sampleCnt
  X:01C6H         SYMBOL        circleIndex
  X:01C7H         SYMBOL        circleBuf
  B:0023H.1       SYMBOL        circleEnable
  D:0004H         SYMBOL        i
BL51 BANKED LINKER/LOCATER V6.22                                                      10/13/2015  15:22:36  PAGE 39


  D:0006H         SYMBOL        sumExt
  X:0199H         SYMBOL        ad
  -------         ENDDO         
  C:3CC0H         LINE#         3214
  C:3CC0H         LINE#         3215
  C:3CC0H         LINE#         3227
  C:3CD1H         LINE#         3228
  C:3CD7H         LINE#         3229
  C:3CE0H         LINE#         3230
  C:3CE0H         LINE#         3231
  C:3CF6H         LINE#         3233
  C:3CFCH         LINE#         3234
  C:3D02H         LINE#         3235
  C:3D02H         LINE#         3236
  C:3D04H         LINE#         3237
  C:3D06H         LINE#         3238
  C:3D06H         LINE#         3239
  C:3D1BH         LINE#         3241
  C:3D1EH         LINE#         3242
  C:3D1EH         LINE#         3243
  C:3D21H         LINE#         3244
  C:3D22H         LINE#         3245
  C:3D22H         LINE#         3246
  C:3D32H         LINE#         3247
  C:3D37H         LINE#         3248
  C:3D41H         LINE#         3249
  C:3D45H         LINE#         3250
  C:3D47H         LINE#         3252
  C:3D47H         LINE#         3253
  C:3D4CH         LINE#         3254
  C:3D4CH         LINE#         3255
  C:3D54H         LINE#         3257
  C:3D59H         LINE#         3258
  C:3D5FH         LINE#         3259
  C:3D5FH         LINE#         3260
  -------         ENDPROC       HUMIDITY_GETCURRENTH
  -------         PROC          HUMIDITY_DEVICEINIT
  C:4DF7H         LINE#         3262
  C:4DF7H         LINE#         3263
  C:4DF7H         LINE#         3264
  C:4DFFH         LINE#         3265
  -------         ENDPROC       HUMIDITY_DEVICEINIT
  -------         ENDMOD        HUMIDITY

  -------         MODULE        DUST
  C:0000H         SYMBOL        _ICE_DUMMY_
  X:01B5H         PUBLIC        Dust_Data
  C:4515H         SYMBOL        Dust_getRtLevel
  X:01B7H         PUBLIC        Dust_RTData
  B:0022H.3       PUBLIC        Dust_IsReady
  X:01B9H         PUBLIC        Dust_LevelForFan
  X:01BAH         SYMBOL        Dust_levelPre
  X:01BBH         SYMBOL        Dust_readyCountdown
  C:38ABH         PUBLIC        Dust_LevelUpdate
  C:3A17H         PUBLIC        Dust_DataUpdate
  C:4DACH         PUBLIC        Dust_DeviceInit
  B:0022H.4       PUBLIC        Dust_DataValid
BL51 BANKED LINKER/LOCATER V6.22                                                      10/13/2015  15:22:36  PAGE 40


  X:01BDH         PUBLIC        Dust_Level
  -------         PROC          DUST_DEVICEINIT
  C:4DACH         LINE#         21
  C:4DACH         LINE#         22
  C:4DACH         LINE#         23
  C:4DB6H         LINE#         24
  C:4DB8H         LINE#         25
  C:4DBFH         LINE#         26
  -------         ENDPROC       DUST_DEVICEINIT
  -------         PROC          DUST_GETRTLEVEL
  -------         DO            
  D:0007H         SYMBOL        level
  -------         ENDDO         
  C:4515H         LINE#         29
  C:4515H         LINE#         30
  C:4515H         LINE#         33
  C:4525H         LINE#         34
  C:4525H         LINE#         35
  C:4527H         LINE#         36
  C:4529H         LINE#         37
  C:4532H         LINE#         38
  C:4532H         LINE#         39
  C:4534H         LINE#         40
  C:4536H         LINE#         41
  C:453FH         LINE#         42
  C:453FH         LINE#         43
  C:4541H         LINE#         44
  C:4543H         LINE#         45
  C:454CH         LINE#         46
  C:454CH         LINE#         47
  C:454EH         LINE#         48
  C:4550H         LINE#         49
  C:4559H         LINE#         50
  C:4559H         LINE#         51
  C:455BH         LINE#         52
  C:455DH         LINE#         54
  C:455DH         LINE#         55
  C:455FH         LINE#         56
  C:455FH         LINE#         58
  C:455FH         LINE#         59
  -------         ENDPROC       DUST_GETRTLEVEL
  -------         PROC          DUST_DATAUPDATE
  -------         DO            
  X:01A9H         SYMBOL        tabs
  D:0007H         SYMBOL        i
  -------         ENDDO         
  C:3A17H         LINE#         63
  C:3A17H         LINE#         64
  C:3A17H         LINE#         68
  C:3A21H         LINE#         69
  C:3A21H         LINE#         70
  C:3A2FH         LINE#         71
  C:3A36H         LINE#         72
  C:3A36H         LINE#         73
  C:3A3EH         LINE#         74
  C:3A42H         LINE#         75
  C:3A44H         LINE#         76
BL51 BANKED LINKER/LOCATER V6.22                                                      10/13/2015  15:22:36  PAGE 41


  C:3A44H         LINE#         77
  C:3A46H         LINE#         79
  C:3A46H         LINE#         80
  C:3A48H         LINE#         81
  C:3A48H         LINE#         83
  C:3A4BH         LINE#         84
  C:3A4BH         LINE#         85
  C:3A58H         LINE#         86
  C:3A65H         LINE#         87
  C:3A72H         LINE#         88
  C:3A81H         LINE#         90
  C:3A83H         LINE#         92
  C:3A8AH         LINE#         93
  C:3A8BH         LINE#         94
  C:3A8BH         LINE#         95
  C:3AA8H         LINE#         96
  C:3AADH         LINE#         97
  C:3AC3H         LINE#         98
  C:3AC3H         LINE#         99
  -------         ENDPROC       DUST_DATAUPDATE
  -------         PROC          DUST_LEVELUPDATE
  -------         DO            
  X:01B1H         SYMBOL        upperHoldCntForFan
  X:01B2H         SYMBOL        lowerHoldCntForFan
  X:01B3H         SYMBOL        lowerHoldCnt
  D:0007H         SYMBOL        levelCur
  -------         ENDDO         
  C:38ABH         LINE#         101
  C:38ABH         LINE#         102
  C:38ABH         LINE#         110
  C:38AEH         LINE#         111
  C:38AEH         LINE#         112
  C:38B3H         LINE#         113
  C:38B5H         LINE#         115
  C:38B9H         LINE#         118
  C:38B9H         LINE#         121
  C:38BCH         LINE#         123
  C:38C6H         LINE#         124
  C:38C6H         LINE#         125
  C:38CDH         LINE#         127
  C:38D2H         LINE#         128
  C:38D2H         LINE#         129
  C:38D4H         LINE#         130
  C:38D9H         LINE#         131
  C:38D9H         LINE#         132
  C:38E7H         LINE#         133
  C:38F8H         LINE#         134
  C:38F8H         LINE#         135
  C:38FCH         LINE#         137
  C:3905H         LINE#         138
  C:3905H         LINE#         139
  C:3908H         LINE#         140
  C:3908H         LINE#         142
  C:3910H         LINE#         143
  C:3910H         LINE#         144
  C:3912H         LINE#         146
  C:3912H         LINE#         147
BL51 BANKED LINKER/LOCATER V6.22                                                      10/13/2015  15:22:36  PAGE 42


  C:3919H         LINE#         148
  C:3919H         LINE#         151
  C:3927H         LINE#         152
  C:3927H         LINE#         153
  C:392CH         LINE#         155
  C:3932H         LINE#         156
  C:3938H         LINE#         157
  C:3938H         LINE#         158
  C:393AH         LINE#         160
  C:3940H         LINE#         161
  C:3940H         LINE#         162
  C:3941H         LINE#         163
  C:3946H         LINE#         164
  C:3946H         LINE#         165
  C:394BH         LINE#         167
  C:394FH         LINE#         168
  C:3954H         LINE#         169
  C:3954H         LINE#         170
  C:3956H         LINE#         172
  C:395CH         LINE#         173
  C:395CH         LINE#         174
  C:395DH         LINE#         176
  C:395DH         LINE#         177
  C:3962H         LINE#         178
  C:3964H         LINE#         179
  C:3964H         LINE#         180
  -------         ENDPROC       DUST_LEVELUPDATE
  -------         ENDMOD        DUST

  -------         MODULE        MOTOR
  C:0000H         SYMBOL        _ICE_DUMMY_
  X:01E2H         PUBLIC        Motor_CurSpeed
  B:0022H.0       SYMBOL        Motor_runEnable
  B:0022H.1       PUBLIC        Motor_IsRunning
  C:4E96H         PUBLIC        Motor_Stop
  C:1F3EH         PUBLIC        Motor_Ctr
  D:00BFH         PUBLIC        T1BDRH
  C:4A84H         PUBLIC        _Motor_Run
  D:00BEH         PUBLIC        T1BDRL
  B:0022H.2       PUBLIC        Motor_SpeedUpdated
  X:01E4H         SYMBOL        Motor_pwnData
  X:01E6H         PUBLIC        Motor_ExpectSpeed
  -------         PROC          MOTOR_STOP
  C:4E96H         LINE#         11
  C:4E96H         LINE#         12
  C:4E96H         LINE#         13
  C:4E98H         LINE#         14
  C:4E9FH         LINE#         15
  -------         ENDPROC       MOTOR_STOP
  -------         PROC          _MOTOR_RUN
  D:0006H         SYMBOL        rpm
  C:4A84H         LINE#         17
  C:4A84H         LINE#         18
  C:4A84H         LINE#         19
  C:4A86H         LINE#         20
  C:4AA0H         LINE#         21
  -------         ENDPROC       _MOTOR_RUN
BL51 BANKED LINKER/LOCATER V6.22                                                      10/13/2015  15:22:36  PAGE 43


  -------         PROC          MOTOR_CTR
  -------         DO            
  X:01E0H         SYMBOL        Motor_lastSpeed
  X:0199H         SYMBOL        deltaSp
  X:019BH         SYMBOL        deltaA
  X:019DH         SYMBOL        e
  -------         ENDDO         
  C:1F3EH         LINE#         23
  C:1F3EH         LINE#         24
  C:1F3EH         LINE#         31
  C:1F58H         LINE#         33
  C:1F66H         LINE#         34
  C:1F66H         LINE#         35
  C:1F69H         LINE#         36
  C:1F6BH         LINE#         37
  C:1F71H         LINE#         38
  C:1F72H         LINE#         40
  C:1F72H         LINE#         41
  C:1F75H         LINE#         42
  C:1F75H         LINE#         44
  C:1F83H         LINE#         45
  C:1F93H         LINE#         46
  C:1F93H         LINE#         47
  C:1F9AH         LINE#         49
  C:1F9AH         LINE#         50
  C:1F9DH         LINE#         52
  C:1F9DH         LINE#         54
  C:1FA3H         LINE#         55
  C:1FA3H         LINE#         56
  C:1FB8H         LINE#         57
  C:1FB8H         LINE#         58
  C:1FC1H         LINE#         59
  C:1FC3H         LINE#         61
  C:1FC3H         LINE#         62
  C:1FDEH         LINE#         63
  C:1FDEH         LINE#         65
  C:1FEBH         LINE#         66
  C:1FEBH         LINE#         67
  C:2005H         LINE#         69
  C:202FH         LINE#         71
  C:203FH         LINE#         72
  C:203FH         LINE#         73
  C:2053H         LINE#         74
  C:2053H         LINE#         75
  C:2055H         LINE#         77
  C:2055H         LINE#         78
  C:2070H         LINE#         79
  C:209AH         LINE#         80
  C:20B0H         LINE#         81
  C:20B0H         LINE#         82
  C:20C4H         LINE#         83
  C:20C4H         LINE#         84
  C:20C4H         LINE#         86
  C:20C6H         LINE#         87
  C:20C6H         LINE#         88
  C:20C6H         LINE#         90
  C:20D1H         LINE#         91
BL51 BANKED LINKER/LOCATER V6.22                                                      10/13/2015  15:22:36  PAGE 44


  C:20D3H         LINE#         93
  C:20E2H         LINE#         94
  C:20E2H         LINE#         95
  -------         ENDPROC       MOTOR_CTR
  -------         ENDMOD        MOTOR

  -------         MODULE        SYSTEM
  C:0000H         SYMBOL        _ICE_DUMMY_
  D:0088H         PUBLIC        P1
  B:0020H.7       PUBLIC        Sys_IsAutoMode
  B:0021H.0       PUBLIC        Sys_TimerFunEn
  X:00D9H         PUBLIC        Sys_WifiStrength
  X:00DAH         PUBLIC        Time_100msCnt
  X:00DBH         PUBLIC        Sys_PowerOffPoint1
  X:00DDH         PUBLIC        Sys_UVLedSta
  D:00A8H         PUBLIC        IE
  X:00DEH         PUBLIC        Sys_PowerOffPoint2
  X:00E0H         PUBLIC        Sys_CleanMode
  X:00E1H         PUBLIC        Sys_PowerOffPoint3
  X:00E3H         PUBLIC        Time_Flag1s
  X:00E4H         PUBLIC        Sys_PlanformConnSta
  X:00E5H         PUBLIC        Sys_ClockTime
  X:00EBH         PUBLIC        Sys_UsedTimeRecord
  X:00FFH         PUBLIC        Sys_TotalWorkedTime
  B:0021H.1       PUBLIC        Sys_MemoryDataExist
  B:0021H.2       PUBLIC        Sys_EDispEn
  X:0101H         PUBLIC        Sys_PowerOnPoint1
  X:0103H         PUBLIC        Sys_PowerOnPoint2
  X:0105H         PUBLIC        Sys_PowerOnPoint3
  D:0087H         PUBLIC        PCON
  B:0088H.4       PUBLIC        P14
  B:0088H.5       PUBLIC        P15
  B:00A0H.3       PUBLIC        P43
  B:0088H.6       PUBLIC        P16
  X:0107H         PUBLIC        Sys_LeftTime
  X:0109H         PUBLIC        Sys_RemoteTimerCtr
  D:00ABH         PUBLIC        IE3
  B:0021H.3       PUBLIC        Time_Flag1Min
  C:3383H         PUBLIC        Sys_UpdateTimerOnIndex
  B:0021H.4       PUBLIC        Sys_NHVModeEn
  X:010AH         PUBLIC        Sys_LoadsEn
  C:437CH         PUBLIC        Sys_LoadCtr
  X:010BH         PUBLIC        Sys_FixMode
  C:494AH         PUBLIC        Sys_EnterStopMode
  X:010CH         PUBLIC        Sys_AionSta
  X:010DH         PUBLIC        Sys_WorkTime
  X:010FH         PUBLIC        Sys_PowerSta
  X:0110H         PUBLIC        Sys_TimerOnIndex
  X:0111H         PUBLIC        Sys_Pm25Records_10
  X:012BH         PUBLIC        Sys_Pm25Records_30
  X:0145H         PUBLIC        Sys_SpOption
  C:4A66H         PUBLIC        Timer_Points
  X:0146H         PUBLIC        Sys_RouteConnSta
  X:0147H         PUBLIC        Sys_AmountOfWipedDust
  X:0149H         PUBLIC        Sys_LightLowerCountdown
  C:4A78H         PUBLIC        Sys_TimerSegments
  X:014AH         PUBLIC        Time_RTCSec
BL51 BANKED LINKER/LOCATER V6.22                                                      10/13/2015  15:22:36  PAGE 45


  X:014BH         PUBLIC        Sys_EWorkedMin
  X:014FH         PUBLIC        Sys_TimerStartedIndex
  -------         PROC          SYS_UPDATETIMERONINDEX
  -------         DO            
  X:019DH         SYMBOL        temp
  X:019FH         SYMBOL        i
  X:01A0H         SYMBOL        t1
  D:0006H         SYMBOL        t2
  -------         ENDDO         
  C:3383H         LINE#         74
  C:3383H         LINE#         75
  C:3383H         LINE#         82
  C:338DH         LINE#         83
  C:3393H         LINE#         84
  C:33A5H         LINE#         85
  C:33A5H         LINE#         86
  C:33CDH         LINE#         87
  C:33CDH         LINE#         88
  C:3421H         LINE#         89
  C:3432H         LINE#         91
  C:3440H         LINE#         92
  C:3440H         LINE#         93
  C:3453H         LINE#         94
  C:3453H         LINE#         95
  C:3465H         LINE#         96
  C:346BH         LINE#         97
  C:346BH         LINE#         98
  C:346BH         LINE#         99
  C:346BH         LINE#         100
  C:3475H         LINE#         101
  -------         ENDPROC       SYS_UPDATETIMERONINDEX
  -------         PROC          SYS_LOADCTR
  C:437CH         LINE#         104
  C:437CH         LINE#         105
  C:437CH         LINE#         106
  C:4381H         LINE#         107
  C:439BH         LINE#         109
  C:43A2H         LINE#         110
  C:43A2H         LINE#         111
  C:43A4H         LINE#         112
  C:43A6H         LINE#         114
  C:43A6H         LINE#         115
  C:43A8H         LINE#         116
  C:43A8H         LINE#         118
  C:43AFH         LINE#         119
  C:43AFH         LINE#         120
  C:43B1H         LINE#         121
  C:43B3H         LINE#         123
  C:43B3H         LINE#         124
  C:43B5H         LINE#         125
  C:43B5H         LINE#         127
  C:43BCH         LINE#         128
  C:43BCH         LINE#         129
  C:43BEH         LINE#         130
  C:43C0H         LINE#         132
  C:43C0H         LINE#         133
  C:43C2H         LINE#         134
BL51 BANKED LINKER/LOCATER V6.22                                                      10/13/2015  15:22:36  PAGE 46


  C:43C2H         LINE#         136
  C:43C9H         LINE#         137
  C:43C9H         LINE#         138
  C:43CBH         LINE#         139
  C:43CCH         LINE#         141
  C:43CCH         LINE#         142
  C:43CEH         LINE#         143
  C:43CEH         LINE#         144
  -------         ENDPROC       SYS_LOADCTR
  -------         PROC          SYS_ENTERSTOPMODE
  -------         DO            
  X:00D8H         SYMBOL        cnt
  -------         ENDDO         
  C:494AH         LINE#         146
  C:494AH         LINE#         147
  C:494AH         LINE#         151
  C:494FH         LINE#         152
  C:494FH         LINE#         153
  C:4955H         LINE#         154
  C:495BH         LINE#         155
  C:495BH         LINE#         156
  C:495DH         LINE#         158
  C:4960H         LINE#         159
  C:4964H         LINE#         160
  C:4968H         LINE#         162
  C:496BH         LINE#         163
  C:496EH         LINE#         164
  C:4971H         LINE#         165
  C:4971H         LINE#         166
  C:4972H         LINE#         168
  C:4972H         LINE#         169
  C:4977H         LINE#         170
  C:4977H         LINE#         171
  -------         ENDPROC       SYS_ENTERSTOPMODE
  -------         ENDMOD        SYSTEM

  -------         MODULE        KEY
  C:0000H         SYMBOL        _ICE_DUMMY_
  D:0090H         PUBLIC        P2
  D:0098H         PUBLIC        P3
  X:01F2H         PUBLIC        Key_Code
  C:43CFH         SYMBOL        Key_Read
  D:00B9H         PUBLIC        P2IO
  D:00C1H         PUBLIC        P3IO
  B:0023H.2       PUBLIC        Key_Released
  C:37DFH         PUBLIC        Key_ActionDetect
  X:01F3H         PUBLIC        Key_Action
  -------         PROC          KEY_READ
  -------         DO            
  D:0007H         SYMBOL        keyDat
  -------         ENDDO         
  C:43CFH         LINE#         9
  C:43CFH         LINE#         10
  C:43CFH         LINE#         14
  C:43D2H         LINE#         16
  C:43D6H         LINE#         17
  C:43D9H         LINE#         18
BL51 BANKED LINKER/LOCATER V6.22                                                      10/13/2015  15:22:36  PAGE 47


  C:43DCH         LINE#         19
  C:43E2H         LINE#         20
  C:43E6H         LINE#         22
  C:43E8H         LINE#         24
  C:43EDH         LINE#         25
  C:43EDH         LINE#         26
  C:43EEH         LINE#         27
  C:43EEH         LINE#         29
  C:43F3H         LINE#         30
  C:43F3H         LINE#         31
  C:43F7H         LINE#         32
  C:43F7H         LINE#         34
  C:43FCH         LINE#         35
  C:43FCH         LINE#         36
  C:4400H         LINE#         37
  C:4400H         LINE#         39
  C:4405H         LINE#         40
  C:4405H         LINE#         41
  C:4409H         LINE#         42
  C:4409H         LINE#         44
  C:440EH         LINE#         45
  C:440EH         LINE#         46
  C:4412H         LINE#         47
  C:4412H         LINE#         49
  C:4417H         LINE#         50
  C:4417H         LINE#         51
  C:441BH         LINE#         52
  C:441BH         LINE#         54
  C:4421H         LINE#         56
  C:4421H         LINE#         57
  -------         ENDPROC       KEY_READ
  -------         PROC          KEY_ACTIONDETECT
  -------         DO            
  X:0199H         SYMBOL        Key_codeBuf
  X:01F0H         SYMBOL        Key_stateHoldCnt
  X:01F1H         SYMBOL        Key_stateHoldCntExt
  -------         ENDDO         
  C:37DFH         LINE#         59
  C:37DFH         LINE#         60
  C:37DFH         LINE#         66
  C:37E7H         LINE#         67
  C:37EEH         LINE#         68
  C:37EEH         LINE#         69
  C:3803H         LINE#         70
  C:3803H         LINE#         71
  C:3809H         LINE#         72
  C:381FH         LINE#         73
  C:381FH         LINE#         74
  C:3827H         LINE#         75
  C:3828H         LINE#         77
  C:3828H         LINE#         78
  C:382EH         LINE#         79
  C:382EH         LINE#         80
  C:3832H         LINE#         81
  C:3834H         LINE#         83
  C:3836H         LINE#         84
  C:3837H         LINE#         86
BL51 BANKED LINKER/LOCATER V6.22                                                      10/13/2015  15:22:36  PAGE 48


  C:3837H         LINE#         87
  C:383CH         LINE#         88
  C:3842H         LINE#         89
  C:3846H         LINE#         91
  C:384CH         LINE#         92
  C:384CH         LINE#         93
  C:384FH         LINE#         94
  C:3855H         LINE#         95
  C:386BH         LINE#         96
  C:386BH         LINE#         98
  C:3873H         LINE#         99
  C:3873H         LINE#         100
  C:3879H         LINE#         101
  C:387BH         LINE#         102
  C:387FH         LINE#         103
  C:387FH         LINE#         104
  C:3885H         LINE#         105
  C:3887H         LINE#         107
  C:3887H         LINE#         108
  C:388DH         LINE#         109
  C:388DH         LINE#         110
  C:3893H         LINE#         111
  C:3894H         LINE#         113
  C:3894H         LINE#         115
  C:38AAH         LINE#         116
  C:38AAH         LINE#         117
  C:38AAH         LINE#         118
  -------         ENDPROC       KEY_ACTIONDETECT
  -------         ENDMOD        KEY

  -------         MODULE        FIFO
  C:0000H         SYMBOL        _ICE_DUMMY_
  C:4E54H         PUBLIC        _InitQueue
  C:4C54H         PUBLIC        _QueueLen
  C:431FH         PUBLIC        _Dequeue
  C:4D6FH         PUBLIC        _QueueIsEmpty
  C:47B6H         PUBLIC        _QueueIsFull
  C:4200H         PUBLIC        _Enqueue
  -------         PROC          _INITQUEUE
  D:0001H         SYMBOL        queue
  C:4E54H         LINE#         3
  C:4E54H         LINE#         4
  C:4E54H         LINE#         5
  -------         ENDPROC       _INITQUEUE
  -------         PROC          _QUEUEISEMPTY
  D:0001H         SYMBOL        queue
  C:4D6FH         LINE#         8
  C:4D6FH         LINE#         9
  C:4D6FH         LINE#         10
  C:4D83H         LINE#         11
  -------         ENDPROC       _QUEUEISEMPTY
  -------         PROC          _QUEUEISFULL
  X:01A6H         SYMBOL        queue
  C:47B6H         LINE#         13
  C:47C1H         LINE#         14
  C:47C1H         LINE#         15
  C:47EEH         LINE#         16
BL51 BANKED LINKER/LOCATER V6.22                                                      10/13/2015  15:22:36  PAGE 49


  -------         ENDPROC       _QUEUEISFULL
  -------         PROC          _QUEUELEN
  D:0001H         SYMBOL        queue
  C:4C54H         LINE#         18
  C:4C54H         LINE#         19
  C:4C54H         LINE#         20
  C:4C6DH         LINE#         21
  -------         ENDPROC       _QUEUELEN
  -------         PROC          _ENQUEUE
  X:01A2H         SYMBOL        queue
  X:01A5H         SYMBOL        element
  C:4200H         LINE#         23
  C:4210H         LINE#         24
  C:4210H         LINE#         25
  C:4215H         LINE#         26
  C:4215H         LINE#         27
  C:4234H         LINE#         28
  C:425BH         LINE#         29
  C:425BH         LINE#         31
  C:4260H         LINE#         32
  -------         ENDPROC       _ENQUEUE
  -------         PROC          _DEQUEUE
  X:01A2H         SYMBOL        queue
  -------         DO            
  X:01A5H         SYMBOL        result
  -------         ENDDO         
  C:431FH         LINE#         34
  C:432AH         LINE#         35
  C:432AH         LINE#         38
  C:432DH         LINE#         39
  C:4332H         LINE#         40
  C:4332H         LINE#         41
  C:434FH         LINE#         42
  C:4376H         LINE#         43
  C:4376H         LINE#         45
  C:437BH         LINE#         46
  -------         ENDPROC       _DEQUEUE
  -------         ENDMOD        FIFO

  -------         MODULE        PROTOCOL
  C:0000H         SYMBOL        _ICE_DUMMY_
  C:10F4H         SYMBOL        _Protocol_StaResp
  B:0023H.3       SYMBOL        isWaitingHeader
  C:49D1H         SYMBOL        CMD_POWER_CTR_DEAL
  C:3AC4H         SYMBOL        CMD_GET_ENE_DATAS_DEAL
  C:4AA1H         SYMBOL        CMD_AION_CTR_DEAL
  C:467EH         SYMBOL        CMD_RT_SET_DEAL
  C:4ABEH         SYMBOL        CMD_UV_CTR_DEAL
  C:1D93H         SYMBOL        CMD_GET_DEVICE_INFO_DEAL
  C:4C6EH         SYMBOL        CMD_WIFI_STA_CHANGE_DEAL
  C:001EH         SYMBOL        CMD_GET_SYS_STA_DEAL
  C:006AH         SYMBOL        CMD_DUMMY_DEAL
  C:45F5H         SYMBOL        CMD_FAN_CTR_DEAL
  C:20E3H         PUBLIC        Protocol_Task
  C:4ECEH         PUBLIC        Protocol_Init
  C:355DH         PUBLIC        Protocol_ResetWifiMode
  C:4AF6H         SYMBOL        CMD_MEM_SET_DEAL
BL51 BANKED LINKER/LOCATER V6.22                                                      10/13/2015  15:22:36  PAGE 50


  C:258DH         SYMBOL        CMD_GET_PM_DATAS_DEAL
  C:4D59H         SYMBOL        CMD_CLEAN_CTR_DEAL
  C:4D43H         SYMBOL        CMD_FIX_CTR_DEAL
  X:01F7H         SYMBOL        rxIndex
  C:3DFAH         SYMBOL        CMD_REST_DEAL
  C:4560H         PUBLIC        ProtocolTab
  C:3C1DH         PUBLIC        Protocol_EnterATmode
  C:40ADH         SYMBOL        CMD_TIMER_CTR_DEAL
  -------         PROC          _PROTOCOL_STARESP
  X:019DH         SYMBOL        cmd
  -------         DO            
  X:019EH         SYMBOL        sum
  -------         ENDDO         
  C:10F4H         LINE#         41
  C:10F9H         LINE#         42
  C:10F9H         LINE#         45
  C:10FCH         LINE#         47
  C:110CH         LINE#         48
  C:111CH         LINE#         50
  C:1135H         LINE#         51
  C:114BH         LINE#         53
  C:1164H         LINE#         55
  C:117DH         LINE#         56
  C:1197H         LINE#         58
  C:11B0H         LINE#         59
  C:11CAH         LINE#         61
  C:11E3H         LINE#         62
  C:11FDH         LINE#         64
  C:1216H         LINE#         65
  C:1230H         LINE#         67
  C:1248H         LINE#         68
  C:1260H         LINE#         70
  C:126EH         LINE#         71
  C:126EH         LINE#         72
  C:126FH         LINE#         73
  C:1271H         LINE#         75
  C:1271H         LINE#         76
  C:127FH         LINE#         77
  C:127FH         LINE#         79
  C:12A0H         LINE#         80
  C:12C1H         LINE#         82
  C:12DAH         LINE#         83
  C:12F3H         LINE#         85
  C:130CH         LINE#         86
  C:1325H         LINE#         87
  C:133EH         LINE#         88
  C:1357H         LINE#         90
  C:1370H         LINE#         91
  C:1389H         LINE#         92
  C:13A2H         LINE#         93
  C:13BBH         LINE#         95
  C:13D4H         LINE#         96
  C:13EDH         LINE#         97
  C:1406H         LINE#         98
  C:141FH         LINE#         100
  C:1435H         LINE#         101
  C:144BH         LINE#         103
BL51 BANKED LINKER/LOCATER V6.22                                                      10/13/2015  15:22:36  PAGE 51


  C:1461H         LINE#         105
  C:1477H         LINE#         106
  C:148DH         LINE#         108
  C:14A3H         LINE#         110
  C:14B9H         LINE#         112
  C:14CFH         LINE#         113
  C:14E5H         LINE#         116
  C:14F8H         LINE#         117
  C:1508H         LINE#         119
  -------         ENDPROC       _PROTOCOL_STARESP
  -------         PROC          CMD_DUMMY_DEAL
  C:006AH         LINE#         123
  C:006AH         LINE#         124
  C:006AH         LINE#         126
  -------         ENDPROC       CMD_DUMMY_DEAL
  -------         PROC          CMD_GET_SYS_STA_DEAL
  C:001EH         LINE#         128
  C:001EH         LINE#         129
  C:001EH         LINE#         130
  -------         ENDPROC       CMD_GET_SYS_STA_DEAL
  -------         PROC          CMD_POWER_CTR_DEAL
  C:49D1H         LINE#         132
  C:49D1H         LINE#         133
  C:49D1H         LINE#         134
  C:49DAH         LINE#         135
  C:49DDH         LINE#         136
  C:49DDH         LINE#         137
  C:49E1H         LINE#         138
  C:49E3H         LINE#         140
  C:49E3H         LINE#         141
  C:49EEH         LINE#         142
  C:49EEH         LINE#         143
  C:49F7H         LINE#         144
  -------         ENDPROC       CMD_POWER_CTR_DEAL
  -------         PROC          CMD_FAN_CTR_DEAL
  C:45F5H         LINE#         146
  C:45F5H         LINE#         147
  C:45F5H         LINE#         148
  C:45FDH         LINE#         149
  C:45FDH         LINE#         150
  C:4604H         LINE#         151
  C:4604H         LINE#         152
  C:4606H         LINE#         153
  C:4608H         LINE#         155
  C:4608H         LINE#         156
  C:460AH         LINE#         157
  C:460FH         LINE#         158
  C:460FH         LINE#         161
  C:4617H         LINE#         162
  C:4617H         LINE#         163
  C:461BH         LINE#         164
  C:461BH         LINE#         165
  C:461DH         LINE#         167
  C:4623H         LINE#         168
  C:4623H         LINE#         169
  C:4629H         LINE#         170
  C:462DH         LINE#         171
BL51 BANKED LINKER/LOCATER V6.22                                                      10/13/2015  15:22:36  PAGE 52


  C:462DH         LINE#         173
  C:4636H         LINE#         174
  C:4636H         LINE#         176
  -------         ENDPROC       CMD_FAN_CTR_DEAL
  -------         PROC          CMD_FIX_CTR_DEAL
  C:4D43H         LINE#         178
  C:4D43H         LINE#         179
  C:4D43H         LINE#         180
  C:4D4BH         LINE#         181
  C:4D54H         LINE#         182
  -------         ENDPROC       CMD_FIX_CTR_DEAL
  -------         PROC          CMD_CLEAN_CTR_DEAL
  C:4D59H         LINE#         184
  C:4D59H         LINE#         185
  C:4D59H         LINE#         186
  C:4D61H         LINE#         187
  C:4D6AH         LINE#         188
  -------         ENDPROC       CMD_CLEAN_CTR_DEAL
  -------         PROC          CMD_AION_CTR_DEAL
  C:4AA1H         LINE#         190
  C:4AA1H         LINE#         191
  C:4AA1H         LINE#         192
  C:4AA8H         LINE#         193
  C:4AA8H         LINE#         194
  C:4AB0H         LINE#         195
  C:4AB9H         LINE#         196
  C:4AB9H         LINE#         198
  -------         ENDPROC       CMD_AION_CTR_DEAL
  -------         PROC          CMD_UV_CTR_DEAL
  C:4ABEH         LINE#         200
  C:4ABEH         LINE#         201
  C:4ABEH         LINE#         202
  C:4AC5H         LINE#         203
  C:4AC5H         LINE#         204
  C:4ACDH         LINE#         205
  C:4AD6H         LINE#         206
  C:4AD6H         LINE#         208
  -------         ENDPROC       CMD_UV_CTR_DEAL
  -------         PROC          CMD_TIMER_CTR_DEAL
  C:40ADH         LINE#         210
  C:40ADH         LINE#         211
  C:40ADH         LINE#         212
  C:40B5H         LINE#         213
  C:40BDH         LINE#         214
  C:40C5H         LINE#         215
  C:40CDH         LINE#         217
  C:40D5H         LINE#         218
  C:40DDH         LINE#         219
  C:40E5H         LINE#         220
  C:40EDH         LINE#         222
  C:40F5H         LINE#         223
  C:40FDH         LINE#         224
  C:4105H         LINE#         225
  C:410DH         LINE#         227
  C:410FH         LINE#         228
  C:4116H         LINE#         230
  C:4119H         LINE#         232
BL51 BANKED LINKER/LOCATER V6.22                                                      10/13/2015  15:22:36  PAGE 53


  C:4122H         LINE#         233
  -------         ENDPROC       CMD_TIMER_CTR_DEAL
  -------         PROC          CMD_GET_PM_DATAS_DEAL
  -------         DO            
  X:019DH         SYMBOL        sum
  X:019EH         SYMBOL        i
  X:019FH         SYMBOL        ptr
  -------         ENDDO         
  C:258DH         LINE#         235
  C:258DH         LINE#         236
  C:258DH         LINE#         241
  C:2597H         LINE#         242
  C:2597H         LINE#         243
  C:25A2H         LINE#         244
  C:25A4H         LINE#         246
  C:25A4H         LINE#         247
  C:25AFH         LINE#         248
  C:25AFH         LINE#         250
  C:25BFH         LINE#         251
  C:25CFH         LINE#         253
  C:25E4H         LINE#         254
  C:25FAH         LINE#         257
  C:261DH         LINE#         258
  C:2643H         LINE#         260
  C:2650H         LINE#         261
  C:2650H         LINE#         262
  C:2682H         LINE#         263
  C:26B7H         LINE#         264
  C:26BDH         LINE#         266
  C:26D0H         LINE#         267
  C:26E0H         LINE#         269
  C:26E9H         LINE#         271
  -------         ENDPROC       CMD_GET_PM_DATAS_DEAL
  -------         PROC          CMD_GET_ENE_DATAS_DEAL
  -------         DO            
  X:019DH         SYMBOL        sum
  X:019EH         SYMBOL        i
  -------         ENDDO         
  C:3AC4H         LINE#         273
  C:3AC4H         LINE#         274
  C:3AC4H         LINE#         278
  C:3AD4H         LINE#         279
  C:3AE4H         LINE#         281
  C:3AF9H         LINE#         282
  C:3B0FH         LINE#         284
  C:3B1CH         LINE#         285
  C:3B1CH         LINE#         286
  C:3B3CH         LINE#         287
  C:3B42H         LINE#         289
  C:3B55H         LINE#         290
  C:3B65H         LINE#         292
  C:3B6EH         LINE#         294
  -------         ENDPROC       CMD_GET_ENE_DATAS_DEAL
  -------         PROC          CMD_RT_SET_DEAL
  C:467EH         LINE#         296
  C:467EH         LINE#         297
  C:467EH         LINE#         299
BL51 BANKED LINKER/LOCATER V6.22                                                      10/13/2015  15:22:36  PAGE 54


  C:4693H         LINE#         300
  C:469BH         LINE#         301
  C:46A3H         LINE#         302
  C:46ABH         LINE#         303
  C:46B3H         LINE#         305
  C:46BCH         LINE#         307
  -------         ENDPROC       CMD_RT_SET_DEAL
  -------         PROC          CMD_MEM_SET_DEAL
  C:4AF6H         LINE#         309
  C:4AF6H         LINE#         310
  C:4AF6H         LINE#         313
  C:4AF8H         LINE#         314
  C:4B03H         LINE#         316
  C:4B0CH         LINE#         317
  -------         ENDPROC       CMD_MEM_SET_DEAL
  -------         PROC          CMD_REST_DEAL
  -------         DO            
  D:0007H         SYMBOL        i
  -------         ENDDO         
  C:3DFAH         LINE#         319
  C:3DFAH         LINE#         320
  C:3DFAH         LINE#         323
  C:3DFCH         LINE#         324
  C:3E02H         LINE#         326
  C:3E07H         LINE#         327
  C:3E0BH         LINE#         328
  C:3E0FH         LINE#         329
  C:3E13H         LINE#         330
  C:3E17H         LINE#         331
  C:3E1BH         LINE#         333
  C:3E1FH         LINE#         334
  C:3E23H         LINE#         335
  C:3E27H         LINE#         336
  C:3E2BH         LINE#         337
  C:3E2FH         LINE#         338
  C:3E33H         LINE#         340
  C:3E34H         LINE#         341
  C:3E34H         LINE#         342
  C:3E40H         LINE#         343
  C:3E45H         LINE#         345
  C:3E47H         LINE#         346
  C:3E4EH         LINE#         347
  C:3E51H         LINE#         349
  C:3E56H         LINE#         350
  C:3E5AH         LINE#         352
  C:3E5CH         LINE#         354
  C:3E66H         LINE#         355
  C:3E68H         LINE#         357
  C:3E6AH         LINE#         358
  C:3E71H         LINE#         360
  C:3E7CH         LINE#         361
  C:3E85H         LINE#         362
  -------         ENDPROC       CMD_REST_DEAL
  -------         PROC          CMD_GET_DEVICE_INFO_DEAL
  -------         DO            
  X:019DH         SYMBOL        sum
  -------         ENDDO         
BL51 BANKED LINKER/LOCATER V6.22                                                      10/13/2015  15:22:36  PAGE 55


  C:1D93H         LINE#         366
  C:1D93H         LINE#         367
  C:1D93H         LINE#         370
  C:1D98H         LINE#         372
  C:1DA8H         LINE#         373
  C:1DB8H         LINE#         375
  C:1DCEH         LINE#         377
  C:1DE4H         LINE#         380
  C:1DFAH         LINE#         381
  C:1E10H         LINE#         383
  C:1E26H         LINE#         384
  C:1E3CH         LINE#         386
  C:1E52H         LINE#         387
  C:1E68H         LINE#         389
  C:1E7EH         LINE#         390
  C:1E94H         LINE#         392
  C:1EAAH         LINE#         393
  C:1EC0H         LINE#         395
  C:1ED6H         LINE#         396
  C:1EECH         LINE#         398
  C:1F02H         LINE#         399
  C:1F18H         LINE#         401
  C:1F2BH         LINE#         403
  C:1F3BH         LINE#         405
  -------         ENDPROC       CMD_GET_DEVICE_INFO_DEAL
  -------         PROC          CMD_WIFI_STA_CHANGE_DEAL
  C:4C6EH         LINE#         407
  C:4C6EH         LINE#         408
  C:4C6EH         LINE#         410
  C:4C76H         LINE#         412
  C:4C7EH         LINE#         414
  C:4C86H         LINE#         415
  -------         ENDPROC       CMD_WIFI_STA_CHANGE_DEAL
  -------         PROC          PROTOCOL_INIT
  C:4ECEH         LINE#         447
  C:4ECEH         LINE#         448
  C:4ECEH         LINE#         449
  C:4ED0H         LINE#         450
  C:4ED5H         LINE#         451
  -------         ENDPROC       PROTOCOL_INIT
  -------         PROC          PROTOCOL_ENTERATMODE
  C:3C1DH         LINE#         453
  C:3C1DH         LINE#         454
  C:3C1DH         LINE#         456
  C:3C2DH         LINE#         457
  C:3C3DH         LINE#         458
  C:3C4DH         LINE#         459
  C:3C5DH         LINE#         460
  C:3C6DH         LINE#         461
  C:3C7DH         LINE#         462
  C:3C8DH         LINE#         463
  C:3C9DH         LINE#         464
  C:3CADH         LINE#         465
  C:3CBDH         LINE#         467
  -------         ENDPROC       PROTOCOL_ENTERATMODE
  -------         PROC          PROTOCOL_RESETWIFIMODE
  C:355DH         LINE#         470
BL51 BANKED LINKER/LOCATER V6.22                                                      10/13/2015  15:22:36  PAGE 56


  C:355DH         LINE#         471
  C:355DH         LINE#         474
  C:356DH         LINE#         475
  C:357DH         LINE#         476
  C:358DH         LINE#         477
  C:359DH         LINE#         478
  C:35ADH         LINE#         479
  C:35BDH         LINE#         480
  C:35CDH         LINE#         481
  C:35DDH         LINE#         482
  C:35EDH         LINE#         483
  C:35FDH         LINE#         484
  C:360DH         LINE#         485
  C:361DH         LINE#         486
  C:362DH         LINE#         487
  C:363DH         LINE#         489
  -------         ENDPROC       PROTOCOL_RESETWIFIMODE
  -------         PROC          PROTOCOL_TASK
  -------         DO            
  X:0199H         SYMBOL        dat
  X:019AH         SYMBOL        cmdDeal
  X:01F4H         SYMBOL        checksum
  X:01F5H         SYMBOL        len
  X:01F6H         SYMBOL        cmd
  -------         ENDDO         
  C:20E3H         LINE#         492
  C:20E3H         LINE#         493
  C:20E3H         LINE#         502
  C:20F1H         LINE#         504
  C:210FH         LINE#         505
  C:210FH         LINE#         507
  C:2121H         LINE#         508
  C:2148H         LINE#         511
  C:214BH         LINE#         512
  C:214BH         LINE#         513
  C:2152H         LINE#         514
  C:2152H         LINE#         515
  C:2158H         LINE#         516
  C:215DH         LINE#         517
  C:215DH         LINE#         518
  C:215FH         LINE#         519
  C:2160H         LINE#         520
  C:2164H         LINE#         521
  C:2164H         LINE#         522
  C:2166H         LINE#         524
  C:2166H         LINE#         525
  C:2166H         LINE#         526
  C:2166H         LINE#         527
  C:2169H         LINE#         529
  C:2169H         LINE#         530
  C:217DH         LINE#         531
  C:2183H         LINE#         533
  C:2189H         LINE#         535
  C:218EH         LINE#         536
  C:218EH         LINE#         537
  C:2196H         LINE#         538
  C:2199H         LINE#         539
BL51 BANKED LINKER/LOCATER V6.22                                                      10/13/2015  15:22:36  PAGE 57


  C:21A1H         LINE#         540
  C:21A1H         LINE#         541
  C:21B1H         LINE#         542
  C:21B1H         LINE#         543
  C:21C5H         LINE#         544
  C:21D3H         LINE#         545
  C:21D5H         LINE#         546
  C:21DDH         LINE#         547
  C:21DDH         LINE#         548
  C:21E6H         LINE#         549
  C:21E9H         LINE#         550
  C:21EBH         LINE#         551
  C:21EFH         LINE#         552
  C:21EFH         LINE#         553
  C:21F8H         LINE#         554
  C:2210H         LINE#         555
  C:2212H         LINE#         557
  C:2212H         LINE#         559
  C:2212H         LINE#         560
  C:2214H         LINE#         562
  C:2214H         LINE#         564
  C:2223H         LINE#         565
  C:2223H         LINE#         567
  C:2225H         LINE#         568
  C:222BH         LINE#         570
  C:222BH         LINE#         571
  C:222BH         LINE#         572
  C:2247H         LINE#         573
  C:2247H         LINE#         575
  C:226DH         LINE#         578
  C:226DH         LINE#         580
  C:2279H         LINE#         581
  C:2279H         LINE#         583
  C:227BH         LINE#         584
  C:2280H         LINE#         585
  C:2280H         LINE#         586
  C:2280H         LINE#         587
  C:2283H         LINE#         588
  -------         ENDPROC       PROTOCOL_TASK
  -------         ENDMOD        PROTOCOL

  -------         MODULE        UART
  C:0000H         SYMBOL        _ICE_DUMMY_
  C:0026H         PUBLIC        Uart_SendStartup
  C:47EFH         PUBLIC        Uart_MemoryInit
  X:006AH         PUBLIC        Rx_Timeout
  X:006BH         PUBLIC        Tx_Timeout
  X:006CH         PUBLIC        Rx_Queue
  X:006FH         PUBLIC        Tx_Queue
  D:00F5H         PUBLIC        USI1DR
  B:0022H.5       PUBLIC        Rx_QueueDataExist
  X:0072H         PUBLIC        Rx_Buf
  X:00A5H         PUBLIC        Tx_Buf
  C:4EBDH         PUBLIC        Uart_RxDatsDeal
  B:0022H.6       PUBLIC        Tx_Busy
  D:00EAH         PUBLIC        USI1CR2
  -------         PROC          UART_MEMORYINIT
BL51 BANKED LINKER/LOCATER V6.22                                                      10/13/2015  15:22:36  PAGE 58


  -------         DO            
  X:0000H         SYMBOL        Rx_queue
  X:0035H         SYMBOL        Tx_queue
  -------         ENDDO         
  C:47EFH         LINE#         15
  C:47EFH         LINE#         16
  C:47EFH         LINE#         20
  C:4800H         LINE#         21
  C:4803H         LINE#         23
  C:4814H         LINE#         24
  C:4817H         LINE#         26
  C:481CH         LINE#         27
  C:481EH         LINE#         29
  C:4820H         LINE#         30
  C:4822H         LINE#         31
  -------         ENDPROC       UART_MEMORYINIT
  -------         PROC          UART_SENDSTARTUP
  -------         DO            
  D:0007H         SYMBOL        len
  -------         ENDDO         
  C:0026H         LINE#         33
  C:0026H         LINE#         34
  C:0026H         LINE#         37
  C:0029H         LINE#         38
  C:0029H         LINE#         39
  C:0037H         LINE#         41
  C:003DH         LINE#         42
  C:003EH         LINE#         44
  C:003EH         LINE#         45
  C:0042H         LINE#         46
  C:0042H         LINE#         47
  C:0052H         LINE#         48
  C:0054H         LINE#         50
  C:0054H         LINE#         51
  C:0064H         LINE#         52
  C:0066H         LINE#         53
  C:0066H         LINE#         55
  C:0069H         LINE#         56
  C:0069H         LINE#         57
  -------         ENDPROC       UART_SENDSTARTUP
  -------         PROC          UART_RXDATSDEAL
  C:4EBDH         LINE#         59
  C:4EBDH         LINE#         60
  C:4EBDH         LINE#         61
  C:4EC0H         LINE#         62
  C:4EC0H         LINE#         63
  C:4EC3H         LINE#         64
  C:4EC5H         LINE#         65
  C:4EC5H         LINE#         66
  -------         ENDPROC       UART_RXDATSDEAL
  -------         ENDMOD        UART

  -------         MODULE        FSM
  C:0000H         SYMBOL        _ICE_DUMMY_
  C:00A2H         PUBLIC        Task_DoNothing
  X:01FAH         PUBLIC        currentState
  C:4B11H         SYMBOL        doNothing
BL51 BANKED LINKER/LOCATER V6.22                                                      10/13/2015  15:22:36  PAGE 59


  C:4422H         PUBLIC        _State_TransitionTo
  -------         PROC          TASK_DONOTHING
  C:00A2H         LINE#         3
  -------         ENDPROC       TASK_DONOTHING
  -------         PROC          _STATE_TRANSITIONTO
  X:019EH         SYMBOL        state
  B:0020H.4       SYMBOL        desStateEnterEventEnable
  B:0020H.5       SYMBOL        currentStateExitEventEnable
  C:4422H         LINE#         20
  C:442AH         LINE#         23
  C:442AH         LINE#         25
  C:442DH         LINE#         26
  C:442DH         LINE#         27
  C:4447H         LINE#         28
  C:4447H         LINE#         31
  C:4456H         LINE#         34
  C:4459H         LINE#         35
  C:4459H         LINE#         36
  C:4473H         LINE#         37
  C:4473H         LINE#         38
  -------         ENDPROC       _STATE_TRANSITIONTO
  -------         ENDMOD        FSM

  -------         MODULE        STATE_TEST
  C:0000H         SYMBOL        _ICE_DUMMY_
  C:4F18H         SYMBOL        _enterEventDeal
  C:4F12H         SYMBOL        _keyActionDeal
  C:4B2CH         PUBLIC        State_Test
  C:4F19H         SYMBOL        _exitEventDeal
  C:4F14H         SYMBOL        _timeTick
  C:4F16H         SYMBOL        _irDataDeal
  C:4F13H         SYMBOL        _taskExe
  C:4F15H         SYMBOL        _motorCtr
  C:4F17H         SYMBOL        _rxDataDeal
  C:318FH         SYMBOL        _displayControl
  -------         PROC          _KEYACTIONDEAL
  C:4F12H         LINE#         4
  C:4F12H         LINE#         5
  C:4F12H         LINE#         7
  -------         ENDPROC       _KEYACTIONDEAL
  -------         PROC          _DISPLAYCONTROL
  C:318FH         LINE#         9
  C:318FH         LINE#         10
  C:318FH         LINE#         11
  C:3192H         LINE#         12
  C:3199H         LINE#         13
  C:31A0H         LINE#         15
  C:31AEH         LINE#         16
  C:31AEH         LINE#         17
  C:31BCH         LINE#         18
  C:31BCH         LINE#         20
  C:31CAH         LINE#         21
  C:31D8H         LINE#         30
  C:31E4H         LINE#         31
  C:31EBH         LINE#         32
  C:31F9H         LINE#         33
  C:3200H         LINE#         34
BL51 BANKED LINKER/LOCATER V6.22                                                      10/13/2015  15:22:36  PAGE 60


  C:320EH         LINE#         35
  C:3218H         LINE#         36
  C:321FH         LINE#         37
  C:3226H         LINE#         38
  C:3229H         LINE#         39
  C:322CH         LINE#         40
  C:322FH         LINE#         41
  C:3232H         LINE#         44
  C:3239H         LINE#         45
  C:3240H         LINE#         46
  C:324FH         LINE#         48
  C:3259H         LINE#         50
  C:325EH         LINE#         52
  C:3263H         LINE#         54
  C:3278H         LINE#         56
  C:327BH         LINE#         57
  C:327BH         LINE#         58
  C:3282H         LINE#         59
  C:3282H         LINE#         61
  C:3288H         LINE#         62
  -------         ENDPROC       _DISPLAYCONTROL
  -------         PROC          _TASKEXE
  C:4F13H         LINE#         64
  C:4F13H         LINE#         65
  C:4F13H         LINE#         67
  -------         ENDPROC       _TASKEXE
  -------         PROC          _TIMETICK
  C:4F14H         LINE#         70
  C:4F14H         LINE#         71
  C:4F14H         LINE#         73
  -------         ENDPROC       _TIMETICK
  -------         PROC          _MOTORCTR
  C:4F15H         LINE#         76
  C:4F15H         LINE#         77
  C:4F15H         LINE#         79
  -------         ENDPROC       _MOTORCTR
  -------         PROC          _IRDATADEAL
  C:4F16H         LINE#         82
  C:4F16H         LINE#         83
  C:4F16H         LINE#         89
  -------         ENDPROC       _IRDATADEAL
  -------         PROC          _RXDATADEAL
  C:4F17H         LINE#         92
  C:4F17H         LINE#         93
  C:4F17H         LINE#         95
  -------         ENDPROC       _RXDATADEAL
  -------         PROC          _ENTEREVENTDEAL
  C:4F18H         LINE#         97
  C:4F18H         LINE#         98
  C:4F18H         LINE#         100
  -------         ENDPROC       _ENTEREVENTDEAL
  -------         PROC          _EXITEVENTDEAL
  C:4F19H         LINE#         102
  C:4F19H         LINE#         103
  C:4F19H         LINE#         105
  -------         ENDPROC       _EXITEVENTDEAL
  -------         ENDMOD        STATE_TEST
BL51 BANKED LINKER/LOCATER V6.22                                                      10/13/2015  15:22:36  PAGE 61



  -------         MODULE        STATE_STARTUP
  C:0000H         SYMBOL        _ICE_DUMMY_
  C:4E62H         SYMBOL        _enterEventDeal
  C:4F1AH         SYMBOL        _keyActionDeal
  C:4F1EH         SYMBOL        _exitEventDeal
  C:4C87H         SYMBOL        _timeTick
  C:4F1CH         SYMBOL        _irDataDeal
  C:4F1BH         SYMBOL        _taskExe
  C:4EFDH         SYMBOL        _motorCtr
  C:4F1DH         SYMBOL        _rxDataDeal
  C:4EA0H         SYMBOL        _displayControl
  C:4B47H         PUBLIC        State_Startup
  -------         PROC          _KEYACTIONDEAL
  C:4F1AH         LINE#         4
  C:4F1AH         LINE#         5
  C:4F1AH         LINE#         7
  -------         ENDPROC       _KEYACTIONDEAL
  -------         PROC          _DISPLAYCONTROL
  C:4EA0H         LINE#         9
  C:4EA0H         LINE#         10
  C:4EA0H         LINE#         12
  C:4EA6H         LINE#         13
  -------         ENDPROC       _DISPLAYCONTROL
  -------         PROC          _TASKEXE
  C:4F1BH         LINE#         16
  C:4F1BH         LINE#         17
  C:4F1BH         LINE#         19
  -------         ENDPROC       _TASKEXE
  -------         PROC          _TIMETICK
  C:4C87H         LINE#         22
  C:4C87H         LINE#         23
  C:4C87H         LINE#         24
  C:4C8DH         LINE#         25
  C:4C93H         LINE#         26
  C:4C93H         LINE#         27
  C:4C9EH         LINE#         28
  C:4C9EH         LINE#         29
  -------         ENDPROC       _TIMETICK
  -------         PROC          _MOTORCTR
  C:4EFDH         LINE#         32
  C:4EFDH         LINE#         33
  C:4EFDH         LINE#         34
  -------         ENDPROC       _MOTORCTR
  -------         PROC          _IRDATADEAL
  C:4F1CH         LINE#         38
  C:4F1CH         LINE#         39
  C:4F1CH         LINE#         41
  -------         ENDPROC       _IRDATADEAL
  -------         PROC          _RXDATADEAL
  C:4F1DH         LINE#         44
  C:4F1DH         LINE#         45
  C:4F1DH         LINE#         47
  -------         ENDPROC       _RXDATADEAL
  -------         PROC          _ENTEREVENTDEAL
  C:4E62H         LINE#         49
  C:4E62H         LINE#         50
BL51 BANKED LINKER/LOCATER V6.22                                                      10/13/2015  15:22:36  PAGE 62


  C:4E62H         LINE#         51
  C:4E67H         LINE#         53
  C:4E6DH         LINE#         54
  C:4E6FH         LINE#         55
  -------         ENDPROC       _ENTEREVENTDEAL
  -------         PROC          _EXITEVENTDEAL
  C:4F1EH         LINE#         57
  C:4F1EH         LINE#         58
  C:4F1EH         LINE#         60
  -------         ENDPROC       _EXITEVENTDEAL
  -------         ENDMOD        STATE_STARTUP

  -------         MODULE        STATE_STANDBY
  C:0000H         SYMBOL        _ICE_DUMMY_
  C:48EDH         SYMBOL        _enterEventDeal
  C:3476H         SYMBOL        _keyActionDeal
  C:4F21H         SYMBOL        _exitEventDeal
  C:2B78H         SYMBOL        _timeTick
  C:2A69H         SYMBOL        _irDataDeal
  C:4F1FH         SYMBOL        _taskExe
  X:01FCH         SYMBOL        NHVMode_countdown
  C:4B62H         PUBLIC        State_Standby
  C:4F00H         SYMBOL        _motorCtr
  C:4F20H         SYMBOL        _rxDataDeal
  C:2C86H         SYMBOL        _displayControl
  X:01FDH         SYMBOL        wifiResetCmdDelay
  B:0023H.4       SYMBOL        remoteTimerChanged
  -------         PROC          _KEYACTIONDEAL
  C:3476H         LINE#         8
  C:3476H         LINE#         9
  C:3476H         LINE#         11
  C:347CH         LINE#         12
  C:347CH         LINE#         13
  C:347FH         LINE#         14
  C:3482H         LINE#         16
  C:3482H         LINE#         17
  C:3488H         LINE#         19
  C:348EH         LINE#         20
  C:348EH         LINE#         22
  C:348EH         LINE#         25
  C:3496H         LINE#         26
  C:3496H         LINE#         28
  C:349DH         LINE#         29
  C:349DH         LINE#         30
  C:34A6H         LINE#         31
  C:34AAH         LINE#         32
  C:34ACH         LINE#         34
  C:34B3H         LINE#         35
  C:34B3H         LINE#         36
  C:34BCH         LINE#         37
  C:34C0H         LINE#         38
  C:34C2H         LINE#         40
  C:34CDH         LINE#         41
  C:34CDH         LINE#         42
  C:34D6H         LINE#         43
  C:34DAH         LINE#         44
  C:34DAH         LINE#         45
BL51 BANKED LINKER/LOCATER V6.22                                                      10/13/2015  15:22:36  PAGE 63


  C:34DCH         LINE#         46
  C:34E4H         LINE#         47
  C:34E4H         LINE#         49
  C:34EBH         LINE#         50
  C:34EBH         LINE#         51
  C:34F4H         LINE#         52
  C:34F8H         LINE#         53
  C:34FAH         LINE#         55
  C:3501H         LINE#         56
  C:3501H         LINE#         57
  C:350AH         LINE#         58
  C:350EH         LINE#         59
  C:3510H         LINE#         61
  C:3517H         LINE#         62
  C:3517H         LINE#         63
  C:3520H         LINE#         64
  C:352BH         LINE#         65
  C:352BH         LINE#         66
  C:3533H         LINE#         67
  C:3533H         LINE#         69
  C:3536H         LINE#         70
  C:353BH         LINE#         72
  C:353BH         LINE#         73
  C:353BH         LINE#         74
  C:353DH         LINE#         75
  C:3544H         LINE#         76
  C:3544H         LINE#         78
  C:354BH         LINE#         79
  C:354BH         LINE#         80
  C:354DH         LINE#         81
  C:3553H         LINE#         83
  C:355CH         LINE#         84
  C:355CH         LINE#         85
  C:355CH         LINE#         86
  -------         ENDPROC       _KEYACTIONDEAL
  -------         PROC          _DISPLAYCONTROL
  C:2C86H         LINE#         88
  C:2C86H         LINE#         89
  C:2C86H         LINE#         90
  C:2C8CH         LINE#         91
  C:2C8CH         LINE#         92
  C:2C94H         LINE#         94
  C:2C94H         LINE#         96
  C:2C9BH         LINE#         98
  C:2CA2H         LINE#         99
  C:2CA9H         LINE#         100
  C:2CB0H         LINE#         101
  C:2CB7H         LINE#         104
  C:2CC2H         LINE#         107
  C:2CD1H         LINE#         109
  C:2CD4H         LINE#         110
  C:2CD4H         LINE#         111
  C:2CDBH         LINE#         114
  C:2CDEH         LINE#         115
  C:2CDEH         LINE#         116
  C:2CECH         LINE#         117
  C:2CECH         LINE#         118
BL51 BANKED LINKER/LOCATER V6.22                                                      10/13/2015  15:22:36  PAGE 64


  C:2CECH         LINE#         120
  C:2CF4H         LINE#         121
  C:2CF4H         LINE#         122
  C:2D00H         LINE#         123
  C:2D07H         LINE#         124
  C:2D16H         LINE#         125
  C:2D16H         LINE#         126
  C:2D16H         LINE#         127
  C:2D1DH         LINE#         128
  C:2D24H         LINE#         129
  C:2D25H         LINE#         130
  C:2D25H         LINE#         131
  C:2D2CH         LINE#         132
  C:2D2FH         LINE#         133
  C:2D30H         LINE#         134
  C:2D30H         LINE#         135
  C:2D34H         LINE#         136
  C:2D34H         LINE#         137
  C:2D36H         LINE#         138
  C:2D36H         LINE#         139
  C:2D36H         LINE#         140
  C:2D3DH         LINE#         141
  C:2D44H         LINE#         142
  C:2D47H         LINE#         143
  C:2D4AH         LINE#         144
  C:2D4DH         LINE#         145
  C:2D4DH         LINE#         146
  C:2D4FH         LINE#         147
  C:2D4FH         LINE#         148
  C:2D4FH         LINE#         150
  C:2D4FH         LINE#         152
  C:2D52H         LINE#         153
  C:2D52H         LINE#         154
  C:2D5AH         LINE#         155
  C:2D5AH         LINE#         156
  C:2D66H         LINE#         157
  C:2D69H         LINE#         158
  C:2D69H         LINE#         159
  C:2D70H         LINE#         160
  C:2D71H         LINE#         161
  C:2D79H         LINE#         162
  C:2D79H         LINE#         163
  C:2D80H         LINE#         164
  C:2D81H         LINE#         165
  C:2D85H         LINE#         166
  C:2D85H         LINE#         167
  C:2D8CH         LINE#         168
  C:2D8CH         LINE#         169
  C:2D8CH         LINE#         170
  C:2D8CH         LINE#         171
  C:2D8CH         LINE#         172
  -------         ENDPROC       _DISPLAYCONTROL
  -------         PROC          _TASKEXE
  C:4F1FH         LINE#         174
  C:4F1FH         LINE#         175
  C:4F1FH         LINE#         177
  -------         ENDPROC       _TASKEXE
BL51 BANKED LINKER/LOCATER V6.22                                                      10/13/2015  15:22:36  PAGE 65


  -------         PROC          _TIMETICK
  C:2B78H         LINE#         180
  C:2B78H         LINE#         181
  C:2B78H         LINE#         182
  C:2B7EH         LINE#         183
  C:2B7EH         LINE#         184
  C:2B80H         LINE#         185
  C:2B83H         LINE#         186
  C:2B83H         LINE#         187
  C:2B86H         LINE#         188
  C:2B86H         LINE#         189
  C:2B86H         LINE#         191
  C:2B8CH         LINE#         192
  C:2B8CH         LINE#         193
  C:2B92H         LINE#         194
  C:2B92H         LINE#         195
  C:2B94H         LINE#         196
  C:2B94H         LINE#         198
  C:2B9AH         LINE#         199
  C:2B9AH         LINE#         200
  C:2B9CH         LINE#         201
  C:2B9FH         LINE#         202
  C:2B9FH         LINE#         203
  C:2BA1H         LINE#         204
  C:2BA1H         LINE#         205
  C:2BA1H         LINE#         206
  C:2BA1H         LINE#         209
  C:2BAAH         LINE#         210
  C:2BAAH         LINE#         211
  C:2BACH         LINE#         214
  C:2BB3H         LINE#         215
  C:2BB3H         LINE#         216
  C:2BBFH         LINE#         217
  C:2BBFH         LINE#         218
  C:2C00H         LINE#         220
  C:2C00H         LINE#         221
  C:2C00H         LINE#         222
  C:2C00H         LINE#         223
  C:2C00H         LINE#         224
  C:2C00H         LINE#         225
  C:2C02H         LINE#         227
  C:2C02H         LINE#         229
  C:2C08H         LINE#         230
  C:2C08H         LINE#         231
  C:2C10H         LINE#         232
  C:2C10H         LINE#         233
  C:2C6CH         LINE#         235
  C:2C6CH         LINE#         237
  C:2C71H         LINE#         239
  C:2C7AH         LINE#         240
  C:2C85H         LINE#         241
  C:2C85H         LINE#         242
  C:2C85H         LINE#         243
  C:2C85H         LINE#         244
  C:2C85H         LINE#         245
  C:2C85H         LINE#         246
  -------         ENDPROC       _TIMETICK
BL51 BANKED LINKER/LOCATER V6.22                                                      10/13/2015  15:22:36  PAGE 66


  -------         PROC          _MOTORCTR
  C:4F00H         LINE#         249
  C:4F00H         LINE#         250
  C:4F00H         LINE#         251
  -------         ENDPROC       _MOTORCTR
  -------         PROC          _IRDATADEAL
  C:2A69H         LINE#         255
  C:2A69H         LINE#         256
  C:2A69H         LINE#         257
  C:2A6FH         LINE#         258
  C:2A6FH         LINE#         259
  C:2A73H         LINE#         261
  C:2A73H         LINE#         262
  C:2A79H         LINE#         264
  C:2A84H         LINE#         265
  C:2A84H         LINE#         266
  C:2A8DH         LINE#         267
  C:2A98H         LINE#         268
  C:2A98H         LINE#         269
  C:2AA6H         LINE#         270
  C:2AA6H         LINE#         271
  C:2AADH         LINE#         272
  C:2AADH         LINE#         273
  C:2AB0H         LINE#         274
  C:2AB2H         LINE#         276
  C:2AB2H         LINE#         277
  C:2AB9H         LINE#         278
  C:2AB9H         LINE#         280
  C:2AC1H         LINE#         281
  C:2AC1H         LINE#         282
  C:2AC4H         LINE#         283
  C:2AD2H         LINE#         284
  C:2AD2H         LINE#         285
  C:2ADCH         LINE#         286
  C:2ADCH         LINE#         287
  C:2AE2H         LINE#         288
  C:2AE2H         LINE#         289
  C:2AE8H         LINE#         290
  C:2AEBH         LINE#         292
  C:2AEBH         LINE#         293
  C:2AF2H         LINE#         294
  C:2AF4H         LINE#         295
  C:2AF4H         LINE#         297
  C:2AF4H         LINE#         298
  C:2AF4H         LINE#         299
  C:2AF6H         LINE#         300
  C:2B04H         LINE#         301
  C:2B04H         LINE#         302
  C:2B0BH         LINE#         303
  C:2B0BH         LINE#         304
  C:2B13H         LINE#         305
  C:2B13H         LINE#         306
  C:2B19H         LINE#         307
  C:2B1BH         LINE#         309
  C:2B1BH         LINE#         310
  C:2B24H         LINE#         311
  C:2B26H         LINE#         312
BL51 BANKED LINKER/LOCATER V6.22                                                      10/13/2015  15:22:36  PAGE 67


  C:2B26H         LINE#         313
  C:2B26H         LINE#         314
  C:2B26H         LINE#         315
  C:2B28H         LINE#         316
  C:2B36H         LINE#         317
  C:2B36H         LINE#         318
  C:2B3DH         LINE#         319
  C:2B3DH         LINE#         320
  C:2B45H         LINE#         321
  C:2B45H         LINE#         322
  C:2B4BH         LINE#         323
  C:2B4DH         LINE#         325
  C:2B4DH         LINE#         326
  C:2B56H         LINE#         327
  C:2B58H         LINE#         328
  C:2B58H         LINE#         329
  C:2B58H         LINE#         330
  C:2B58H         LINE#         331
  C:2B5AH         LINE#         332
  C:2B66H         LINE#         333
  C:2B66H         LINE#         334
  C:2B68H         LINE#         335
  C:2B6EH         LINE#         337
  C:2B77H         LINE#         338
  C:2B77H         LINE#         339
  -------         ENDPROC       _IRDATADEAL
  -------         PROC          _RXDATADEAL
  C:4F20H         LINE#         342
  C:4F20H         LINE#         343
  C:4F20H         LINE#         345
  -------         ENDPROC       _RXDATADEAL
  -------         PROC          _ENTEREVENTDEAL
  C:48EDH         LINE#         347
  C:48EDH         LINE#         348
  C:48EDH         LINE#         349
  C:48F2H         LINE#         351
  C:48F6H         LINE#         353
  C:48F8H         LINE#         354
  C:48FEH         LINE#         355
  C:4904H         LINE#         357
  C:4906H         LINE#         359
  C:4908H         LINE#         361
  C:490EH         LINE#         364
  C:4915H         LINE#         365
  C:4915H         LINE#         366
  C:4918H         LINE#         367
  C:4918H         LINE#         368
  C:491BH         LINE#         369
  C:491BH         LINE#         370
  C:491BH         LINE#         371
  -------         ENDPROC       _ENTEREVENTDEAL
  -------         PROC          _EXITEVENTDEAL
  C:4F21H         LINE#         373
  C:4F21H         LINE#         374
  C:4F21H         LINE#         376
  -------         ENDPROC       _EXITEVENTDEAL
  -------         ENDMOD        STATE_STANDBY
BL51 BANKED LINKER/LOCATER V6.22                                                      10/13/2015  15:22:36  PAGE 68



  -------         MODULE        STATE_CLOCKSETTING
  C:0000H         SYMBOL        _ICE_DUMMY_
  C:4EAAH         SYMBOL        _enterEventDeal
  X:01FFH         SYMBOL        clockSettingItem
  C:402FH         SYMBOL        _keyActionDeal
  C:4F25H         SYMBOL        _exitEventDeal
  C:4C9FH         SYMBOL        _timeTick
  C:4F23H         SYMBOL        _irDataDeal
  C:4B7DH         PUBLIC        State_ClockSetting
  C:4F22H         SYMBOL        _taskExe
  C:4F03H         SYMBOL        _motorCtr
  C:4F24H         SYMBOL        _rxDataDeal
  C:49A5H         SYMBOL        _displayControl
  C:4E07H         SYMBOL        hourDec
  C:4E17H         SYMBOL        minDec
  C:4E36H         SYMBOL        hourInc
  C:4E45H         SYMBOL        minInc
  -------         PROC          HOURINC
  C:4E36H         LINE#         7
  C:4E36H         LINE#         8
  C:4E36H         LINE#         9
  C:4E3CH         LINE#         10
  C:4E42H         LINE#         11
  C:4E42H         LINE#         12
  C:4E44H         LINE#         13
  C:4E44H         LINE#         14
  -------         ENDPROC       HOURINC
  -------         PROC          HOURDEC
  C:4E07H         LINE#         16
  C:4E07H         LINE#         17
  C:4E07H         LINE#         18
  C:4E0DH         LINE#         19
  C:4E0DH         LINE#         20
  C:4E0FH         LINE#         21
  C:4E10H         LINE#         23
  C:4E10H         LINE#         24
  C:4E16H         LINE#         25
  C:4E16H         LINE#         26
  -------         ENDPROC       HOURDEC
  -------         PROC          MININC
  C:4E45H         LINE#         28
  C:4E45H         LINE#         29
  C:4E45H         LINE#         30
  C:4E4BH         LINE#         31
  C:4E51H         LINE#         32
  C:4E51H         LINE#         33
  C:4E53H         LINE#         34
  C:4E53H         LINE#         35
  -------         ENDPROC       MININC
  -------         PROC          MINDEC
  C:4E17H         LINE#         37
  C:4E17H         LINE#         38
  C:4E17H         LINE#         39
  C:4E1DH         LINE#         40
  C:4E1DH         LINE#         41
  C:4E1FH         LINE#         42
BL51 BANKED LINKER/LOCATER V6.22                                                      10/13/2015  15:22:36  PAGE 69


  C:4E20H         LINE#         44
  C:4E20H         LINE#         45
  C:4E26H         LINE#         46
  C:4E26H         LINE#         47
  -------         ENDPROC       MINDEC
  -------         PROC          _KEYACTIONDEAL
  C:402FH         LINE#         51
  C:402FH         LINE#         52
  C:402FH         LINE#         53
  C:4034H         LINE#         55
  C:4042H         LINE#         56
  C:4042H         LINE#         57
  C:404AH         LINE#         58
  C:404AH         LINE#         59
  C:4051H         LINE#         60
  C:4052H         LINE#         62
  C:4052H         LINE#         64
  C:4052H         LINE#         65
  C:4058H         LINE#         66
  C:405EH         LINE#         67
  C:405EH         LINE#         68
  C:4060H         LINE#         69
  C:4060H         LINE#         70
  C:4060H         LINE#         71
  C:4062H         LINE#         72
  C:4066H         LINE#         73
  C:4066H         LINE#         74
  C:406DH         LINE#         75
  C:406DH         LINE#         76
  C:4070H         LINE#         78
  C:4070H         LINE#         79
  C:4072H         LINE#         80
  C:4077H         LINE#         81
  C:4077H         LINE#         82
  C:407AH         LINE#         84
  C:407AH         LINE#         85
  C:407AH         LINE#         86
  C:407CH         LINE#         87
  C:4084H         LINE#         88
  C:4084H         LINE#         89
  C:408BH         LINE#         90
  C:408BH         LINE#         91
  C:408EH         LINE#         93
  C:408EH         LINE#         94
  C:4090H         LINE#         95
  C:4094H         LINE#         96
  C:4094H         LINE#         97
  C:4097H         LINE#         99
  C:409CH         LINE#         100
  C:409CH         LINE#         101
  C:409CH         LINE#         103
  C:409CH         LINE#         105
  C:409CH         LINE#         107
  C:40A3H         LINE#         108
  C:40A3H         LINE#         109
  C:40ACH         LINE#         110
  C:40ACH         LINE#         111
BL51 BANKED LINKER/LOCATER V6.22                                                      10/13/2015  15:22:36  PAGE 70


  C:40ACH         LINE#         112
  -------         ENDPROC       _KEYACTIONDEAL
  -------         PROC          _DISPLAYCONTROL
  C:49A5H         LINE#         114
  C:49A5H         LINE#         115
  C:49A5H         LINE#         116
  C:49A8H         LINE#         117
  C:49A8H         LINE#         118
  C:49AFH         LINE#         119
  C:49AFH         LINE#         122
  -------         ENDPROC       _DISPLAYCONTROL
  -------         PROC          _TASKEXE
  C:4F22H         LINE#         126
  C:4F22H         LINE#         127
  C:4F22H         LINE#         129
  -------         ENDPROC       _TASKEXE
  -------         PROC          _TIMETICK
  C:4C9FH         LINE#         132
  C:4C9FH         LINE#         133
  C:4C9FH         LINE#         134
  C:4CA5H         LINE#         135
  C:4CABH         LINE#         136
  C:4CABH         LINE#         137
  C:4CB6H         LINE#         138
  C:4CB6H         LINE#         139
  -------         ENDPROC       _TIMETICK
  -------         PROC          _MOTORCTR
  C:4F03H         LINE#         142
  C:4F03H         LINE#         143
  C:4F03H         LINE#         144
  -------         ENDPROC       _MOTORCTR
  -------         PROC          _IRDATADEAL
  C:4F23H         LINE#         148
  C:4F23H         LINE#         149
  C:4F23H         LINE#         151
  -------         ENDPROC       _IRDATADEAL
  -------         PROC          _RXDATADEAL
  C:4F24H         LINE#         154
  C:4F24H         LINE#         155
  C:4F24H         LINE#         157
  -------         ENDPROC       _RXDATADEAL
  -------         PROC          _ENTEREVENTDEAL
  C:4EAAH         LINE#         159
  C:4EAAH         LINE#         160
  C:4EAAH         LINE#         161
  C:4EAFH         LINE#         162
  C:4EB3H         LINE#         163
  -------         ENDPROC       _ENTEREVENTDEAL
  -------         PROC          _EXITEVENTDEAL
  C:4F25H         LINE#         165
  C:4F25H         LINE#         166
  C:4F25H         LINE#         168
  -------         ENDPROC       _EXITEVENTDEAL
  -------         ENDMOD        STATE_CLOCKSETTING

  -------         MODULE        STATE_ECHECK
  C:0000H         SYMBOL        _ICE_DUMMY_
BL51 BANKED LINKER/LOCATER V6.22                                                      10/13/2015  15:22:36  PAGE 71


  C:4ED6H         SYMBOL        _enterEventDeal
  C:4740H         SYMBOL        _keyActionDeal
  C:4B98H         PUBLIC        State_ECheck
  C:4F29H         SYMBOL        _exitEventDeal
  C:4CB7H         SYMBOL        _timeTick
  C:4F27H         SYMBOL        _irDataDeal
  C:4F26H         SYMBOL        _taskExe
  C:4F06H         SYMBOL        _motorCtr
  C:4F28H         SYMBOL        _rxDataDeal
  C:49FCH         SYMBOL        _displayControl
  B:0023H.5       SYMBOL        disEn
  -------         PROC          _KEYACTIONDEAL
  C:4740H         LINE#         5
  C:4740H         LINE#         6
  C:4740H         LINE#         7
  C:4745H         LINE#         9
  C:474CH         LINE#         10
  C:474CH         LINE#         11
  C:4754H         LINE#         12
  C:4754H         LINE#         13
  C:475DH         LINE#         15
  C:475FH         LINE#         16
  C:4761H         LINE#         17
  C:4761H         LINE#         18
  C:4762H         LINE#         19
  C:4769H         LINE#         20
  C:4769H         LINE#         21
  C:4770H         LINE#         22
  C:4770H         LINE#         23
  C:4779H         LINE#         24
  C:477BH         LINE#         25
  C:477BH         LINE#         26
  C:477BH         LINE#         27
  -------         ENDPROC       _KEYACTIONDEAL
  -------         PROC          _DISPLAYCONTROL
  C:49FCH         LINE#         29
  C:49FCH         LINE#         30
  C:49FCH         LINE#         31
  C:49FFH         LINE#         32
  C:49FFH         LINE#         33
  C:4A0DH         LINE#         34
  C:4A0DH         LINE#         36
  -------         ENDPROC       _DISPLAYCONTROL
  -------         PROC          _TASKEXE
  C:4F26H         LINE#         39
  C:4F26H         LINE#         40
  C:4F26H         LINE#         42
  -------         ENDPROC       _TASKEXE
  -------         PROC          _TIMETICK
  C:4CB7H         LINE#         45
  C:4CB7H         LINE#         46
  C:4CB7H         LINE#         48
  C:4CBDH         LINE#         49
  C:4CC3H         LINE#         50
  C:4CC3H         LINE#         51
  C:4CCEH         LINE#         52
  C:4CCEH         LINE#         53
BL51 BANKED LINKER/LOCATER V6.22                                                      10/13/2015  15:22:36  PAGE 72


  -------         ENDPROC       _TIMETICK
  -------         PROC          _MOTORCTR
  C:4F06H         LINE#         56
  C:4F06H         LINE#         57
  C:4F06H         LINE#         58
  -------         ENDPROC       _MOTORCTR
  -------         PROC          _IRDATADEAL
  C:4F27H         LINE#         62
  C:4F27H         LINE#         63
  C:4F27H         LINE#         65
  -------         ENDPROC       _IRDATADEAL
  -------         PROC          _RXDATADEAL
  C:4F28H         LINE#         68
  C:4F28H         LINE#         69
  C:4F28H         LINE#         71
  -------         ENDPROC       _RXDATADEAL
  -------         PROC          _ENTEREVENTDEAL
  C:4ED6H         LINE#         73
  C:4ED6H         LINE#         74
  C:4ED6H         LINE#         75
  C:4EDBH         LINE#         76
  C:4EDDH         LINE#         77
  -------         ENDPROC       _ENTEREVENTDEAL
  -------         PROC          _EXITEVENTDEAL
  C:4F29H         LINE#         79
  C:4F29H         LINE#         80
  C:4F29H         LINE#         82
  -------         ENDPROC       _EXITEVENTDEAL
  -------         ENDMOD        STATE_ECHECK

  -------         MODULE        STATE_TIMERSETTING
  C:0000H         SYMBOL        _ICE_DUMMY_
  C:4E8AH         SYMBOL        _enterEventDeal
  C:1BE0H         SYMBOL        _keyActionDeal
  X:0200H         SYMBOL        timerSettingItem
  C:4F2DH         SYMBOL        _exitEventDeal
  C:4CCFH         SYMBOL        _timeTick
  C:4F2BH         SYMBOL        _irDataDeal
  C:4F2AH         SYMBOL        _taskExe
  C:4F09H         SYMBOL        _motorCtr
  C:4F2CH         SYMBOL        _rxDataDeal
  C:26ECH         SYMBOL        _displayControl
  C:4BB3H         PUBLIC        State_TimerSetting
  -------         PROC          _KEYACTIONDEAL
  -------         DO            
  X:019DH         SYMBOL        tsPtr
  B:0020H.4       SYMBOL        isM
  -------         ENDDO         
  C:1BE0H         LINE#         19
  C:1BE0H         LINE#         20
  C:1BE0H         LINE#         24
  C:1BE5H         LINE#         26
  C:1BEBH         LINE#         27
  C:1BEBH         LINE#         29
  C:1BEBH         LINE#         31
  C:1BF6H         LINE#         32
  C:1BF6H         LINE#         33
BL51 BANKED LINKER/LOCATER V6.22                                                      10/13/2015  15:22:36  PAGE 73


  C:1C1FH         LINE#         34
  C:1C23H         LINE#         36
  C:1C2AH         LINE#         37
  C:1C2AH         LINE#         38
  C:1C30H         LINE#         39
  C:1C36H         LINE#         40
  C:1C36H         LINE#         41
  C:1C38H         LINE#         42
  C:1C38H         LINE#         44
  C:1C38H         LINE#         45
  C:1C3BH         LINE#         46
  C:1C46H         LINE#         47
  C:1C46H         LINE#         48
  C:1C59H         LINE#         50
  C:1C5CH         LINE#         51
  C:1C5CH         LINE#         52
  C:1C75H         LINE#         53
  C:1C8BH         LINE#         54
  C:1C8BH         LINE#         55
  C:1C96H         LINE#         56
  C:1C96H         LINE#         57
  C:1C98H         LINE#         59
  C:1C98H         LINE#         60
  C:1CB2H         LINE#         61
  C:1CC8H         LINE#         62
  C:1CC8H         LINE#         63
  C:1CCEH         LINE#         64
  C:1CCEH         LINE#         65
  C:1CCEH         LINE#         67
  C:1CCEH         LINE#         68
  C:1CD1H         LINE#         69
  C:1CD9H         LINE#         70
  C:1CD9H         LINE#         71
  C:1CECH         LINE#         73
  C:1CEFH         LINE#         74
  C:1CEFH         LINE#         75
  C:1D02H         LINE#         76
  C:1D02H         LINE#         77
  C:1D0FH         LINE#         78
  C:1D11H         LINE#         80
  C:1D11H         LINE#         81
  C:1D27H         LINE#         82
  C:1D27H         LINE#         83
  C:1D29H         LINE#         85
  C:1D29H         LINE#         86
  C:1D3CH         LINE#         87
  C:1D3CH         LINE#         88
  C:1D45H         LINE#         89
  C:1D47H         LINE#         91
  C:1D47H         LINE#         92
  C:1D51H         LINE#         93
  C:1D51H         LINE#         94
  C:1D51H         LINE#         96
  C:1D51H         LINE#         97
  C:1D53H         LINE#         98
  C:1D5BH         LINE#         99
  C:1D5BH         LINE#         100
BL51 BANKED LINKER/LOCATER V6.22                                                      10/13/2015  15:22:36  PAGE 74


  C:1D64H         LINE#         101
  C:1D64H         LINE#         102
  C:1D7CH         LINE#         103
  C:1D7CH         LINE#         104
  C:1D7FH         LINE#         105
  C:1D81H         LINE#         107
  C:1D81H         LINE#         108
  C:1D89H         LINE#         109
  C:1D89H         LINE#         111
  C:1D92H         LINE#         112
  C:1D92H         LINE#         113
  C:1D92H         LINE#         114
  C:1D92H         LINE#         115
  -------         ENDPROC       _KEYACTIONDEAL
  -------         PROC          _DISPLAYCONTROL
  -------         DO            
  D:0001H         SYMBOL        tsPtr
  B:0020H.4       SYMBOL        isM
  -------         ENDDO         
  C:26ECH         LINE#         117
  C:26ECH         LINE#         118
  C:26ECH         LINE#         122
  C:26EFH         LINE#         123
  C:26EFH         LINE#         124
  C:26FBH         LINE#         125
  C:2702H         LINE#         126
  C:2708H         LINE#         127
  C:2708H         LINE#         128
  C:270FH         LINE#         129
  C:2716H         LINE#         130
  C:2719H         LINE#         132
  C:271CH         LINE#         133
  C:271FH         LINE#         134
  C:2722H         LINE#         135
  C:2723H         LINE#         138
  C:2723H         LINE#         140
  C:272BH         LINE#         141
  C:272BH         LINE#         142
  C:272EH         LINE#         143
  C:272EH         LINE#         144
  C:273AH         LINE#         145
  C:2741H         LINE#         146
  C:2741H         LINE#         148
  C:2748H         LINE#         149
  C:2748H         LINE#         151
  C:2748H         LINE#         152
  C:2767H         LINE#         153
  C:276BH         LINE#         155
  C:27A2H         LINE#         156
  C:27A2H         LINE#         157
  C:27A2H         LINE#         158
  C:27A2H         LINE#         159
  C:27AEH         LINE#         160
  C:27B2H         LINE#         161
  C:27B4H         LINE#         162
  C:27B4H         LINE#         163
  C:27B4H         LINE#         164
BL51 BANKED LINKER/LOCATER V6.22                                                      10/13/2015  15:22:36  PAGE 75


  C:27BBH         LINE#         165
  C:27BEH         LINE#         166
  C:27C0H         LINE#         167
  C:27C0H         LINE#         168
  C:27C0H         LINE#         169
  C:27CCH         LINE#         170
  C:27D3H         LINE#         171
  C:27D5H         LINE#         172
  C:27D5H         LINE#         173
  C:27D5H         LINE#         174
  C:27DCH         LINE#         175
  C:27DFH         LINE#         176
  C:27E1H         LINE#         177
  C:27E1H         LINE#         178
  C:27E1H         LINE#         179
  C:27EDH         LINE#         180
  C:27F4H         LINE#         181
  C:27F6H         LINE#         182
  C:27F6H         LINE#         183
  C:27F6H         LINE#         184
  C:27FDH         LINE#         185
  C:2800H         LINE#         186
  C:2800H         LINE#         187
  C:2800H         LINE#         189
  C:280DH         LINE#         190
  C:280DH         LINE#         191
  C:2821H         LINE#         192
  C:2823H         LINE#         194
  C:2823H         LINE#         195
  C:2833H         LINE#         196
  C:2833H         LINE#         197
  C:2833H         LINE#         198
  -------         ENDPROC       _DISPLAYCONTROL
  -------         PROC          _TASKEXE
  C:4F2AH         LINE#         200
  C:4F2AH         LINE#         201
  C:4F2AH         LINE#         203
  -------         ENDPROC       _TASKEXE
  -------         PROC          _TIMETICK
  C:4CCFH         LINE#         206
  C:4CCFH         LINE#         207
  C:4CCFH         LINE#         208
  C:4CD5H         LINE#         209
  C:4CDBH         LINE#         210
  C:4CDBH         LINE#         211
  C:4CE6H         LINE#         212
  C:4CE6H         LINE#         213
  -------         ENDPROC       _TIMETICK
  -------         PROC          _MOTORCTR
  C:4F09H         LINE#         216
  C:4F09H         LINE#         217
  C:4F09H         LINE#         218
  -------         ENDPROC       _MOTORCTR
  -------         PROC          _IRDATADEAL
  C:4F2BH         LINE#         222
  C:4F2BH         LINE#         223
  C:4F2BH         LINE#         225
BL51 BANKED LINKER/LOCATER V6.22                                                      10/13/2015  15:22:36  PAGE 76


  -------         ENDPROC       _IRDATADEAL
  -------         PROC          _RXDATADEAL
  C:4F2CH         LINE#         228
  C:4F2CH         LINE#         229
  C:4F2CH         LINE#         231
  -------         ENDPROC       _RXDATADEAL
  -------         PROC          _ENTEREVENTDEAL
  C:4E8AH         LINE#         233
  C:4E8AH         LINE#         234
  C:4E8AH         LINE#         235
  C:4E90H         LINE#         236
  C:4E95H         LINE#         237
  -------         ENDPROC       _ENTEREVENTDEAL
  -------         PROC          _EXITEVENTDEAL
  C:4F2DH         LINE#         239
  C:4F2DH         LINE#         240
  C:4F2DH         LINE#         242
  -------         ENDPROC       _EXITEVENTDEAL
  -------         ENDMOD        STATE_TIMERSETTING

  -------         MODULE        STATE_TIMERFNSETTING
  C:0000H         SYMBOL        _ICE_DUMMY_
  C:4EF3H         SYMBOL        _enterEventDeal
  C:4BCEH         PUBLIC        State_TimerFnSetting
  C:4A47H         SYMBOL        _keyActionDeal
  C:4F31H         SYMBOL        _exitEventDeal
  C:4CE7H         SYMBOL        _timeTick
  C:4F2FH         SYMBOL        _irDataDeal
  C:4F2EH         SYMBOL        _taskExe
  C:4F0CH         SYMBOL        _motorCtr
  C:4F30H         SYMBOL        _rxDataDeal
  C:4823H         SYMBOL        _displayControl
  -------         PROC          _KEYACTIONDEAL
  C:4A47H         LINE#         4
  C:4A47H         LINE#         5
  C:4A47H         LINE#         6
  C:4A4CH         LINE#         8
  C:4A53H         LINE#         9
  C:4A53H         LINE#         10
  C:4A5AH         LINE#         11
  C:4A5AH         LINE#         12
  C:4A5CH         LINE#         13
  C:4A65H         LINE#         14
  C:4A65H         LINE#         15
  C:4A65H         LINE#         16
  -------         ENDPROC       _KEYACTIONDEAL
  -------         PROC          _DISPLAYCONTROL
  C:4823H         LINE#         18
  C:4823H         LINE#         19
  C:4823H         LINE#         20
  C:482FH         LINE#         21
  C:4836H         LINE#         22
  C:483CH         LINE#         23
  C:483CH         LINE#         24
  C:4843H         LINE#         25
  C:484AH         LINE#         26
  C:484DH         LINE#         28
BL51 BANKED LINKER/LOCATER V6.22                                                      10/13/2015  15:22:36  PAGE 77


  C:4850H         LINE#         29
  C:4853H         LINE#         30
  C:4856H         LINE#         31
  C:4856H         LINE#         32
  -------         ENDPROC       _DISPLAYCONTROL
  -------         PROC          _TASKEXE
  C:4F2EH         LINE#         34
  C:4F2EH         LINE#         35
  C:4F2EH         LINE#         37
  -------         ENDPROC       _TASKEXE
  -------         PROC          _TIMETICK
  C:4CE7H         LINE#         40
  C:4CE7H         LINE#         41
  C:4CE7H         LINE#         42
  C:4CEDH         LINE#         43
  C:4CF3H         LINE#         44
  C:4CF3H         LINE#         45
  C:4CFEH         LINE#         46
  C:4CFEH         LINE#         47
  -------         ENDPROC       _TIMETICK
  -------         PROC          _MOTORCTR
  C:4F0CH         LINE#         50
  C:4F0CH         LINE#         51
  C:4F0CH         LINE#         52
  -------         ENDPROC       _MOTORCTR
  -------         PROC          _IRDATADEAL
  C:4F2FH         LINE#         56
  C:4F2FH         LINE#         57
  C:4F2FH         LINE#         59
  -------         ENDPROC       _IRDATADEAL
  -------         PROC          _RXDATADEAL
  C:4F30H         LINE#         62
  C:4F30H         LINE#         63
  C:4F30H         LINE#         65
  -------         ENDPROC       _RXDATADEAL
  -------         PROC          _ENTEREVENTDEAL
  C:4EF3H         LINE#         67
  C:4EF3H         LINE#         68
  C:4EF3H         LINE#         69
  C:4EF8H         LINE#         70
  -------         ENDPROC       _ENTEREVENTDEAL
  -------         PROC          _EXITEVENTDEAL
  C:4F31H         LINE#         72
  C:4F31H         LINE#         73
  C:4F31H         LINE#         75
  -------         ENDPROC       _EXITEVENTDEAL
  -------         ENDMOD        STATE_TIMERFNSETTING

  -------         MODULE        STATE_TIMERLOOKUP
  C:0000H         SYMBOL        _ICE_DUMMY_
  C:4BE9H         SYMBOL        _enterEventDeal
  C:477CH         SYMBOL        _keyActionDeal
  C:4F35H         SYMBOL        _exitEventDeal
  C:4CFFH         SYMBOL        _timeTick
  C:4F33H         SYMBOL        _irDataDeal
  X:0201H         SYMBOL        timerLookupItem
  C:4F32H         SYMBOL        _taskExe
BL51 BANKED LINKER/LOCATER V6.22                                                      10/13/2015  15:22:36  PAGE 78


  C:4F0FH         SYMBOL        _motorCtr
  C:4F34H         SYMBOL        _rxDataDeal
  C:2834H         SYMBOL        _displayControl
  C:488AH         SYMBOL        getNextActiveTimerIndex
  C:4C04H         PUBLIC        State_TimerLookup
  -------         PROC          GETNEXTACTIVETIMERINDEX
  C:488AH         LINE#         7
  C:488AH         LINE#         8
  C:488AH         LINE#         10
  C:488AH         LINE#         11
  C:4890H         LINE#         12
  C:4897H         LINE#         13
  C:4897H         LINE#         14
  C:4897H         LINE#         15
  C:4897H         LINE#         16
  C:48BCH         LINE#         17
  -------         ENDPROC       GETNEXTACTIVETIMERINDEX
  -------         PROC          _KEYACTIONDEAL
  C:477CH         LINE#         19
  C:477CH         LINE#         20
  C:477CH         LINE#         21
  C:4781H         LINE#         23
  C:4784H         LINE#         24
  C:4784H         LINE#         26
  C:4784H         LINE#         28
  C:478CH         LINE#         29
  C:478CH         LINE#         30
  C:4793H         LINE#         31
  C:4793H         LINE#         32
  C:479AH         LINE#         33
  C:479AH         LINE#         35
  C:479AH         LINE#         37
  C:479AH         LINE#         38
  C:479DH         LINE#         39
  C:47A6H         LINE#         40
  C:47A6H         LINE#         41
  C:47A9H         LINE#         42
  C:47ACH         LINE#         43
  C:47ACH         LINE#         45
  C:47B5H         LINE#         46
  C:47B5H         LINE#         47
  C:47B5H         LINE#         48
  C:47B5H         LINE#         49
  -------         ENDPROC       _KEYACTIONDEAL
  -------         PROC          _DISPLAYCONTROL
  -------         DO            
  D:0006H         SYMBOL        t1
  D:0005H         SYMBOL        t2
  -------         ENDDO         
  C:2834H         LINE#         51
  C:2834H         LINE#         52
  C:2834H         LINE#         55
  C:2837H         LINE#         56
  C:2837H         LINE#         57
  C:2843H         LINE#         58
  C:284AH         LINE#         59
  C:2850H         LINE#         60
BL51 BANKED LINKER/LOCATER V6.22                                                      10/13/2015  15:22:36  PAGE 79


  C:2850H         LINE#         61
  C:2857H         LINE#         62
  C:285EH         LINE#         63
  C:2861H         LINE#         65
  C:2864H         LINE#         66
  C:2867H         LINE#         67
  C:2867H         LINE#         68
  C:286AH         LINE#         71
  C:286AH         LINE#         73
  C:2871H         LINE#         74
  C:2871H         LINE#         75
  C:2878H         LINE#         76
  C:2878H         LINE#         78
  C:2878H         LINE#         79
  C:289BH         LINE#         80
  C:28BBH         LINE#         82
  C:28C4H         LINE#         84
  C:28CBH         LINE#         86
  C:28E2H         LINE#         87
  C:28E2H         LINE#         88
  C:28E2H         LINE#         89
  C:28EEH         LINE#         90
  C:28F1H         LINE#         91
  C:28F1H         LINE#         92
  C:28F5H         LINE#         93
  C:28F5H         LINE#         94
  C:28F7H         LINE#         95
  C:28F7H         LINE#         96
  C:28FEH         LINE#         97
  C:2901H         LINE#         98
  C:2901H         LINE#         99
  C:2905H         LINE#         100
  C:2905H         LINE#         101
  C:2906H         LINE#         102
  C:2906H         LINE#         103
  C:2912H         LINE#         104
  C:2915H         LINE#         105
  C:2915H         LINE#         106
  C:291CH         LINE#         107
  C:291CH         LINE#         108
  C:291DH         LINE#         109
  C:291DH         LINE#         110
  C:2924H         LINE#         111
  C:2927H         LINE#         112
  C:2927H         LINE#         113
  C:292BH         LINE#         114
  C:292BH         LINE#         115
  C:292CH         LINE#         116
  C:292CH         LINE#         117
  C:2938H         LINE#         118
  C:293BH         LINE#         119
  C:293BH         LINE#         120
  C:2942H         LINE#         121
  C:2942H         LINE#         122
  C:2943H         LINE#         123
  C:2943H         LINE#         124
  C:294AH         LINE#         125
BL51 BANKED LINKER/LOCATER V6.22                                                      10/13/2015  15:22:36  PAGE 80


  C:294DH         LINE#         126
  C:294DH         LINE#         127
  C:2951H         LINE#         128
  C:2951H         LINE#         129
  C:2951H         LINE#         130
  C:2951H         LINE#         132
  C:2951H         LINE#         133
  C:2951H         LINE#         134
  C:2951H         LINE#         135
  -------         ENDPROC       _DISPLAYCONTROL
  -------         PROC          _TASKEXE
  C:4F32H         LINE#         137
  C:4F32H         LINE#         138
  C:4F32H         LINE#         140
  -------         ENDPROC       _TASKEXE
  -------         PROC          _TIMETICK
  C:4CFFH         LINE#         143
  C:4CFFH         LINE#         144
  C:4CFFH         LINE#         145
  C:4D05H         LINE#         146
  C:4D0BH         LINE#         147
  C:4D0BH         LINE#         148
  C:4D16H         LINE#         149
  C:4D16H         LINE#         150
  -------         ENDPROC       _TIMETICK
  -------         PROC          _MOTORCTR
  C:4F0FH         LINE#         153
  C:4F0FH         LINE#         154
  C:4F0FH         LINE#         155
  -------         ENDPROC       _MOTORCTR
  -------         PROC          _IRDATADEAL
  C:4F33H         LINE#         159
  C:4F33H         LINE#         160
  C:4F33H         LINE#         162
  -------         ENDPROC       _IRDATADEAL
  -------         PROC          _RXDATADEAL
  C:4F34H         LINE#         165
  C:4F34H         LINE#         166
  C:4F34H         LINE#         168
  -------         ENDPROC       _RXDATADEAL
  -------         PROC          _ENTEREVENTDEAL
  C:4BE9H         LINE#         170
  C:4BE9H         LINE#         171
  C:4BE9H         LINE#         172
  C:4BEEH         LINE#         174
  C:4BF4H         LINE#         175
  C:4BF7H         LINE#         176
  C:4C00H         LINE#         177
  C:4C00H         LINE#         178
  C:4C03H         LINE#         179
  C:4C03H         LINE#         180
  -------         ENDPROC       _ENTEREVENTDEAL
  -------         PROC          _EXITEVENTDEAL
  C:4F35H         LINE#         182
  C:4F35H         LINE#         183
  C:4F35H         LINE#         185
  -------         ENDPROC       _EXITEVENTDEAL
BL51 BANKED LINKER/LOCATER V6.22                                                      10/13/2015  15:22:36  PAGE 81


  -------         ENDMOD        STATE_TIMERLOOKUP

  -------         MODULE        STATE_WORK
  C:0000H         SYMBOL        _ICE_DUMMY_
  C:3F19H         SYMBOL        _enterEventDeal
  X:01CFH         SYMBOL        countOfSec
  X:01D0H         SYMBOL        dustRecord10Index
  C:3289H         SYMBOL        _keyActionDeal
  X:01D1H         SYMBOL        dustRecord30Index
  C:4C1FH         PUBLIC        State_Work
  C:4F37H         SYMBOL        _exitEventDeal
  X:01D2H         SYMBOL        TotalWorkedMin
  C:0B9DH         SYMBOL        _timeTick
  B:0023H.6       SYMBOL        IsAutoOffSta
  X:01D3H         SYMBOL        dustWipeOffCur
  C:241FH         SYMBOL        _irDataDeal
  C:46C1H         SYMBOL        _taskExe
  C:419CH         SYMBOL        _motorCtr
  C:4F36H         SYMBOL        _rxDataDeal
  C:1913H         SYMBOL        _displayControl
  X:01D5H         SYMBOL        runStatus
  X:01DBH         SYMBOL        AutoOffCnt
  X:01DDH         SYMBOL        memoryOffCounedown
  X:01DEH         SYMBOL        dustWipeOffBase
  -------         PROC          _KEYACTIONDEAL
  C:3289H         LINE#         29
  C:3289H         LINE#         30
  C:3289H         LINE#         32
  C:328FH         LINE#         33
  C:328FH         LINE#         34
  C:3291H         LINE#         35
  C:3297H         LINE#         37
  C:329DH         LINE#         38
  C:32A0H         LINE#         40
  C:32A0H         LINE#         42
  C:32A6H         LINE#         44
  C:32ACH         LINE#         45
  C:32ACH         LINE#         47
  C:32ACH         LINE#         49
  C:32B4H         LINE#         50
  C:32B4H         LINE#         52
  C:32BFH         LINE#         53
  C:32BFH         LINE#         54
  C:32CAH         LINE#         55
  C:32CAH         LINE#         56
  C:32CAH         LINE#         57
  C:32CDH         LINE#         59
  C:32D8H         LINE#         60
  C:32D8H         LINE#         62
  C:32E0H         LINE#         63
  C:32E0H         LINE#         64
  C:32E6H         LINE#         65
  C:32E8H         LINE#         67
  C:32EBH         LINE#         68
  C:32EBH         LINE#         69
  C:32F0H         LINE#         70
  C:32F2H         LINE#         71
BL51 BANKED LINKER/LOCATER V6.22                                                      10/13/2015  15:22:36  PAGE 82


  C:32F4H         LINE#         73
  C:32F4H         LINE#         74
  C:32FAH         LINE#         75
  C:3300H         LINE#         76
  C:3300H         LINE#         77
  C:3302H         LINE#         78
  C:330CH         LINE#         79
  C:330CH         LINE#         80
  C:330EH         LINE#         81
  C:330EH         LINE#         82
  C:330EH         LINE#         83
  C:330EH         LINE#         86
  C:3316H         LINE#         87
  C:3316H         LINE#         88
  C:331AH         LINE#         89
  C:331AH         LINE#         90
  C:331CH         LINE#         92
  C:3322H         LINE#         93
  C:3322H         LINE#         94
  C:3328H         LINE#         95
  C:332CH         LINE#         96
  C:332CH         LINE#         98
  C:332CH         LINE#         99
  C:332EH         LINE#         101
  C:3335H         LINE#         102
  C:3335H         LINE#         103
  C:3346H         LINE#         105
  C:3346H         LINE#         106
  C:3348H         LINE#         108
  C:3350H         LINE#         109
  C:3350H         LINE#         110
  C:3361H         LINE#         112
  C:3361H         LINE#         113
  C:3361H         LINE#         114
  C:3363H         LINE#         115
  C:336AH         LINE#         116
  C:336AH         LINE#         117
  C:3371H         LINE#         118
  C:3371H         LINE#         119
  C:3377H         LINE#         120
  C:3379H         LINE#         122
  C:3382H         LINE#         123
  C:3382H         LINE#         124
  C:3382H         LINE#         125
  -------         ENDPROC       _KEYACTIONDEAL
  -------         PROC          _DISPLAYCONTROL
  C:1913H         LINE#         127
  C:1913H         LINE#         128
  C:1913H         LINE#         130
  C:1919H         LINE#         131
  C:1919H         LINE#         132
  C:191FH         LINE#         133
  C:191FH         LINE#         134
  C:192DH         LINE#         135
  C:1934H         LINE#         136
  C:1942H         LINE#         137
  C:1950H         LINE#         139
BL51 BANKED LINKER/LOCATER V6.22                                                      10/13/2015  15:22:36  PAGE 83


  C:1955H         LINE#         140
  C:195CH         LINE#         141
  C:195DH         LINE#         143
  C:195DH         LINE#         146
  C:1960H         LINE#         149
  C:1967H         LINE#         150
  C:1967H         LINE#         151
  C:1975H         LINE#         152
  C:1975H         LINE#         155
  C:197BH         LINE#         156
  C:197BH         LINE#         157
  C:1989H         LINE#         158
  C:1989H         LINE#         161
  C:199EH         LINE#         162
  C:19A9H         LINE#         163
  C:19ACH         LINE#         164
  C:19ACH         LINE#         165
  C:19B1H         LINE#         166
  C:19B3H         LINE#         168
  C:19B3H         LINE#         169
  C:19C0H         LINE#         170
  C:19C0H         LINE#         174
  C:19C7H         LINE#         175
  C:19CEH         LINE#         177
  C:19DCH         LINE#         178
  C:19E3H         LINE#         181
  C:19F2H         LINE#         182
  C:19F5H         LINE#         183
  C:19F5H         LINE#         184
  C:19FCH         LINE#         185
  C:19FCH         LINE#         188
  C:1A0AH         LINE#         190
  C:1A10H         LINE#         191
  C:1A10H         LINE#         192
  C:1A1BH         LINE#         194
  C:1A1EH         LINE#         195
  C:1A1EH         LINE#         197
  C:1A21H         LINE#         198
  C:1A21H         LINE#         199
  C:1A28H         LINE#         201
  C:1A2FH         LINE#         202
  C:1A36H         LINE#         204
  C:1A3BH         LINE#         205
  C:1A42H         LINE#         206
  C:1A49H         LINE#         207
  C:1A50H         LINE#         208
  C:1A52H         LINE#         209
  C:1A5BH         LINE#         210
  C:1A5BH         LINE#         211
  C:1A60H         LINE#         212
  C:1A62H         LINE#         213
  C:1A64H         LINE#         214
  C:1A6DH         LINE#         215
  C:1A6DH         LINE#         216
  C:1A72H         LINE#         217
  C:1A74H         LINE#         218
  C:1A76H         LINE#         219
BL51 BANKED LINKER/LOCATER V6.22                                                      10/13/2015  15:22:36  PAGE 84


  C:1A7FH         LINE#         220
  C:1A7FH         LINE#         221
  C:1A84H         LINE#         222
  C:1A86H         LINE#         223
  C:1A88H         LINE#         225
  C:1A88H         LINE#         226
  C:1A8DH         LINE#         227
  C:1A8FH         LINE#         228
  C:1A8FH         LINE#         229
  C:1A91H         LINE#         231
  C:1A91H         LINE#         232
  C:1A96H         LINE#         233
  C:1A98H         LINE#         234
  C:1A98H         LINE#         235
  C:1A9AH         LINE#         237
  C:1A9AH         LINE#         238
  C:1AA2H         LINE#         239
  C:1AAFH         LINE#         240
  C:1AAFH         LINE#         242
  C:1AB2H         LINE#         243
  C:1AB2H         LINE#         245
  C:1AB9H         LINE#         246
  C:1AB9H         LINE#         247
  C:1AC7H         LINE#         248
  C:1AC7H         LINE#         251
  C:1ACEH         LINE#         252
  C:1ACEH         LINE#         253
  C:1AD5H         LINE#         254
  C:1AD5H         LINE#         255
  C:1AD5H         LINE#         258
  C:1AD8H         LINE#         259
  C:1AD8H         LINE#         260
  C:1AE6H         LINE#         261
  C:1AE6H         LINE#         264
  C:1AEEH         LINE#         265
  C:1AEEH         LINE#         266
  C:1AFAH         LINE#         267
  C:1B01H         LINE#         268
  C:1B10H         LINE#         269
  C:1B10H         LINE#         270
  C:1B10H         LINE#         271
  C:1B17H         LINE#         272
  C:1B17H         LINE#         273
  C:1B19H         LINE#         274
  C:1B19H         LINE#         275
  C:1B20H         LINE#         276
  C:1B20H         LINE#         277
  C:1B22H         LINE#         278
  C:1B22H         LINE#         279
  C:1B26H         LINE#         280
  C:1B26H         LINE#         281
  C:1B28H         LINE#         282
  C:1B28H         LINE#         283
  C:1B28H         LINE#         284
  C:1B2FH         LINE#         285
  C:1B36H         LINE#         286
  C:1B39H         LINE#         287
BL51 BANKED LINKER/LOCATER V6.22                                                      10/13/2015  15:22:36  PAGE 85


  C:1B3CH         LINE#         288
  C:1B3FH         LINE#         289
  C:1B3FH         LINE#         290
  C:1B42H         LINE#         291
  C:1B42H         LINE#         292
  C:1B42H         LINE#         294
  C:1B42H         LINE#         295
  C:1B4AH         LINE#         296
  C:1B4AH         LINE#         297
  C:1B51H         LINE#         298
  C:1B54H         LINE#         299
  C:1B54H         LINE#         300
  C:1B6DH         LINE#         301
  C:1B6DH         LINE#         302
  C:1B74H         LINE#         303
  C:1B74H         LINE#         304
  C:1B76H         LINE#         305
  C:1B7EH         LINE#         306
  C:1B7EH         LINE#         307
  C:1B98H         LINE#         308
  C:1B98H         LINE#         309
  C:1B9FH         LINE#         310
  C:1B9FH         LINE#         311
  C:1BA1H         LINE#         312
  C:1BA5H         LINE#         313
  C:1BA5H         LINE#         314
  C:1BBFH         LINE#         315
  C:1BBFH         LINE#         316
  C:1BC6H         LINE#         317
  C:1BC6H         LINE#         318
  C:1BC6H         LINE#         319
  C:1BC6H         LINE#         320
  C:1BC6H         LINE#         323
  C:1BCFH         LINE#         324
  C:1BCFH         LINE#         325
  C:1BD2H         LINE#         326
  C:1BD6H         LINE#         327
  C:1BDAH         LINE#         328
  C:1BDBH         LINE#         330
  C:1BDBH         LINE#         331
  C:1BDFH         LINE#         332
  C:1BDFH         LINE#         333
  -------         ENDPROC       _DISPLAYCONTROL
  -------         PROC          _TASKEXE
  C:46C1H         LINE#         335
  C:46C1H         LINE#         336
  C:46C1H         LINE#         337
  C:46C8H         LINE#         340
  C:46CBH         LINE#         341
  C:46CBH         LINE#         343
  C:46CBH         LINE#         345
  C:46D5H         LINE#         346
  C:46D5H         LINE#         347
  C:46D9H         LINE#         348
  C:46DBH         LINE#         350
  C:46DBH         LINE#         351
  C:46DFH         LINE#         352
BL51 BANKED LINKER/LOCATER V6.22                                                      10/13/2015  15:22:36  PAGE 86


  C:46DFH         LINE#         354
  C:46E9H         LINE#         355
  C:46E9H         LINE#         356
  C:46EDH         LINE#         357
  C:46EFH         LINE#         359
  C:46EFH         LINE#         360
  C:46F3H         LINE#         361
  C:46F3H         LINE#         363
  C:46FAH         LINE#         364
  C:46FAH         LINE#         365
  C:46FDH         LINE#         366
  C:46FEH         LINE#         368
  C:46FEH         LINE#         369
  C:4701H         LINE#         370
  C:4701H         LINE#         371
  -------         ENDPROC       _TASKEXE
  -------         PROC          _TIMETICK
  -------         DO            
  X:019DH         SYMBOL        index
  D:0006H         SYMBOL        t
  -------         ENDDO         
  C:0B9DH         LINE#         374
  C:0B9DH         LINE#         375
  C:0B9DH         LINE#         379
  C:0BA3H         LINE#         380
  C:0BA3H         LINE#         381
  C:0BA5H         LINE#         382
  C:0BA8H         LINE#         383
  C:0BA8H         LINE#         384
  C:0BB3H         LINE#         385
  C:0BBCH         LINE#         386
  C:0BBCH         LINE#         387
  C:0BBCH         LINE#         389
  C:0BC5H         LINE#         390
  C:0BC5H         LINE#         392
  C:0BC8H         LINE#         393
  C:0BC8H         LINE#         394
  C:0BCFH         LINE#         395
  C:0BCFH         LINE#         396
  C:0BDDH         LINE#         397
  C:0BECH         LINE#         398
  C:0BECH         LINE#         399
  C:0BEEH         LINE#         400
  C:0BEEH         LINE#         401
  C:0BF0H         LINE#         403
  C:0BF0H         LINE#         404
  C:0BF0H         LINE#         405
  C:0BF0H         LINE#         406
  C:0BF0H         LINE#         407
  C:0BF2H         LINE#         409
  C:0BF2H         LINE#         410
  C:0BF4H         LINE#         411
  C:0BFBH         LINE#         412
  C:0BFBH         LINE#         415
  C:0C01H         LINE#         416
  C:0C01H         LINE#         417
  C:0C03H         LINE#         418
BL51 BANKED LINKER/LOCATER V6.22                                                      10/13/2015  15:22:36  PAGE 87


  C:0C06H         LINE#         419
  C:0C06H         LINE#         420
  C:0C08H         LINE#         421
  C:0C0EH         LINE#         422
  C:0C0EH         LINE#         423
  C:0C0EH         LINE#         426
  C:0C14H         LINE#         428
  C:0C28H         LINE#         430
  C:0C34H         LINE#         431
  C:0C34H         LINE#         432
  C:0C36H         LINE#         434
  C:0C3CH         LINE#         435
  C:0C41H         LINE#         436
  C:0C41H         LINE#         437
  C:0C43H         LINE#         439
  C:0C49H         LINE#         440
  C:0C49H         LINE#         442
  C:0C4FH         LINE#         443
  C:0C55H         LINE#         444
  C:0C55H         LINE#         445
  C:0C57H         LINE#         447
  C:0C65H         LINE#         448
  C:0C65H         LINE#         450
  C:0C73H         LINE#         451
  C:0C73H         LINE#         452
  C:0C78H         LINE#         453
  C:0C78H         LINE#         454
  C:0C87H         LINE#         455
  C:0C87H         LINE#         456
  C:0C87H         LINE#         457
  C:0C89H         LINE#         459
  C:0C89H         LINE#         460
  C:0C98H         LINE#         461
  C:0CA5H         LINE#         462
  C:0CA5H         LINE#         463
  C:0CBBH         LINE#         464
  C:0CBBH         LINE#         465
  C:0CC3H         LINE#         466
  C:0CCAH         LINE#         467
  C:0CCAH         LINE#         468
  C:0CCAH         LINE#         469
  C:0CCAH         LINE#         471
  C:0CD0H         LINE#         472
  C:0CD0H         LINE#         474
  C:0CD9H         LINE#         475
  C:0CD9H         LINE#         476
  C:0CE9H         LINE#         477
  C:0CE9H         LINE#         478
  C:0D13H         LINE#         479
  C:0D1BH         LINE#         480
  C:0D2AH         LINE#         481
  C:0D2CH         LINE#         483
  C:0D2CH         LINE#         484
  C:0D3DH         LINE#         485
  C:0D3DH         LINE#         486
  C:0D60H         LINE#         487
  C:0D68H         LINE#         488
BL51 BANKED LINKER/LOCATER V6.22                                                      10/13/2015  15:22:36  PAGE 88


  C:0D68H         LINE#         490
  C:0D6EH         LINE#         491
  C:0D74H         LINE#         492
  C:0D74H         LINE#         493
  C:0D77H         LINE#         494
  C:0D77H         LINE#         498
  C:0D80H         LINE#         499
  C:0D80H         LINE#         500
  C:0D90H         LINE#         501
  C:0D90H         LINE#         502
  C:0DBAH         LINE#         503
  C:0DC2H         LINE#         504
  C:0DD1H         LINE#         505
  C:0DD3H         LINE#         507
  C:0DD3H         LINE#         508
  C:0DE4H         LINE#         509
  C:0DE4H         LINE#         510
  C:0E07H         LINE#         511
  C:0E0FH         LINE#         512
  C:0E0FH         LINE#         514
  C:0E16H         LINE#         515
  C:0E16H         LINE#         516
  C:0E1CH         LINE#         517
  C:0E1CH         LINE#         519
  C:0E25H         LINE#         520
  C:0E25H         LINE#         521
  C:0E28H         LINE#         522
  C:0E28H         LINE#         526
  C:0E2FH         LINE#         527
  C:0E2FH         LINE#         528
  C:0E3BH         LINE#         529
  C:0E3BH         LINE#         530
  C:0E7CH         LINE#         532
  C:0E7CH         LINE#         533
  C:0E7CH         LINE#         534
  C:0E7CH         LINE#         535
  C:0E7CH         LINE#         536
  C:0E7CH         LINE#         537
  C:0E7FH         LINE#         539
  C:0E7FH         LINE#         540
  C:0E8AH         LINE#         541
  C:0E8AH         LINE#         542
  C:0E90H         LINE#         543
  C:0EB4H         LINE#         544
  C:0EB4H         LINE#         545
  C:0EBAH         LINE#         546
  C:0EBAH         LINE#         548
  C:0EC1H         LINE#         549
  C:0EC1H         LINE#         551
  C:0ECCH         LINE#         552
  C:0ECCH         LINE#         553
  C:0ED7H         LINE#         554
  C:0EE0H         LINE#         555
  C:0EE0H         LINE#         556
  C:0EE2H         LINE#         558
  C:0EE2H         LINE#         559
  C:0F3DH         LINE#         561
BL51 BANKED LINKER/LOCATER V6.22                                                      10/13/2015  15:22:36  PAGE 89


  C:0F3DH         LINE#         562
  C:0F46H         LINE#         563
  C:0F51H         LINE#         564
  C:0F51H         LINE#         565
  C:0F51H         LINE#         566
  C:0F51H         LINE#         567
  C:0F51H         LINE#         569
  C:0F57H         LINE#         570
  C:0F57H         LINE#         571
  C:0F76H         LINE#         573
  C:0F91H         LINE#         574
  C:0F91H         LINE#         575
  C:0F98H         LINE#         577
  C:0FC2H         LINE#         578
  C:0FC2H         LINE#         579
  C:0FC4H         LINE#         580
  C:0FC4H         LINE#         581
  C:0FC6H         LINE#         583
  C:0FC6H         LINE#         584
  C:0FF9H         LINE#         585
  C:0FF9H         LINE#         586
  C:0FF9H         LINE#         589
  C:1017H         LINE#         590
  C:1017H         LINE#         591
  C:1017H         LINE#         592
  C:101DH         LINE#         593
  C:1026H         LINE#         594
  C:1026H         LINE#         595
  C:1028H         LINE#         597
  C:1036H         LINE#         598
  C:1044H         LINE#         599
  C:1044H         LINE#         601
  C:1045H         LINE#         602
  C:1045H         LINE#         603
  C:104BH         LINE#         604
  C:1054H         LINE#         605
  C:1054H         LINE#         606
  C:1056H         LINE#         608
  C:1064H         LINE#         609
  C:1072H         LINE#         610
  C:1072H         LINE#         611
  C:1073H         LINE#         612
  C:1073H         LINE#         613
  C:1079H         LINE#         614
  C:107FH         LINE#         615
  C:107FH         LINE#         616
  C:1081H         LINE#         618
  C:108FH         LINE#         619
  C:109DH         LINE#         620
  C:109DH         LINE#         621
  C:109EH         LINE#         622
  C:109EH         LINE#         623
  C:10A4H         LINE#         624
  C:10AAH         LINE#         625
  C:10AAH         LINE#         626
  C:10ACH         LINE#         628
  C:10BAH         LINE#         629
BL51 BANKED LINKER/LOCATER V6.22                                                      10/13/2015  15:22:36  PAGE 90


  C:10C8H         LINE#         630
  C:10C8H         LINE#         631
  C:10C9H         LINE#         632
  C:10C9H         LINE#         633
  C:10CFH         LINE#         634
  C:10D5H         LINE#         635
  C:10D5H         LINE#         636
  C:10D7H         LINE#         638
  C:10E5H         LINE#         639
  C:10F3H         LINE#         640
  C:10F3H         LINE#         641
  C:10F3H         LINE#         642
  C:10F3H         LINE#         643
  C:10F3H         LINE#         644
  -------         ENDPROC       _TIMETICK
  -------         PROC          _MOTORCTR
  C:419CH         LINE#         647
  C:419CH         LINE#         648
  C:419CH         LINE#         650
  C:419FH         LINE#         651
  C:419FH         LINE#         652
  C:41A2H         LINE#         653
  C:41A2H         LINE#         655
  C:41A2H         LINE#         656
  C:41A5H         LINE#         657
  C:41A5H         LINE#         658
  C:41A8H         LINE#         659
  C:41A8H         LINE#         660
  C:41B1H         LINE#         661
  C:41B1H         LINE#         662
  C:41B1H         LINE#         663
  C:41B3H         LINE#         664
  C:41BCH         LINE#         665
  C:41BCH         LINE#         666
  C:41BCH         LINE#         667
  C:41BEH         LINE#         668
  C:41C7H         LINE#         669
  C:41C7H         LINE#         670
  C:41C7H         LINE#         671
  C:41C9H         LINE#         678
  C:41C9H         LINE#         679
  C:41C9H         LINE#         680
  C:41C9H         LINE#         681
  C:41CBH         LINE#         683
  C:41CBH         LINE#         684
  C:41E0H         LINE#         685
  C:41E0H         LINE#         686
  C:41E0H         LINE#         687
  C:41E4H         LINE#         688
  C:41E6H         LINE#         689
  C:41E6H         LINE#         690
  C:41EAH         LINE#         691
  C:41ECH         LINE#         692
  C:41ECH         LINE#         693
  C:41F0H         LINE#         694
  C:41F2H         LINE#         695
  C:41F2H         LINE#         696
BL51 BANKED LINKER/LOCATER V6.22                                                      10/13/2015  15:22:36  PAGE 91


  C:41F6H         LINE#         697
  C:41F8H         LINE#         698
  C:41F8H         LINE#         699
  C:41FFH         LINE#         700
  C:41FFH         LINE#         701
  C:41FFH         LINE#         702
  C:41FFH         LINE#         703
  C:41FFH         LINE#         704
  C:41FFH         LINE#         705
  C:41FFH         LINE#         706
  -------         ENDPROC       _MOTORCTR
  -------         PROC          _IRDATADEAL
  C:241FH         LINE#         709
  C:241FH         LINE#         710
  C:241FH         LINE#         712
  C:2425H         LINE#         713
  C:2425H         LINE#         714
  C:2427H         LINE#         715
  C:242DH         LINE#         717
  C:2434H         LINE#         719
  C:2434H         LINE#         720
  C:243AH         LINE#         723
  C:2445H         LINE#         724
  C:2445H         LINE#         725
  C:244EH         LINE#         726
  C:2459H         LINE#         727
  C:2459H         LINE#         729
  C:2467H         LINE#         730
  C:2467H         LINE#         731
  C:246DH         LINE#         732
  C:246FH         LINE#         734
  C:2471H         LINE#         735
  C:247BH         LINE#         736
  C:247BH         LINE#         737
  C:247DH         LINE#         738
  C:247DH         LINE#         739
  C:247DH         LINE#         740
  C:2480H         LINE#         741
  C:248CH         LINE#         742
  C:248CH         LINE#         743
  C:2493H         LINE#         744
  C:2495H         LINE#         746
  C:249AH         LINE#         748
  C:249CH         LINE#         750
  C:24A1H         LINE#         751
  C:24A5H         LINE#         753
  C:24A5H         LINE#         755
  C:24A8H         LINE#         756
  C:24B4H         LINE#         757
  C:24B4H         LINE#         758
  C:24BBH         LINE#         759
  C:24BDH         LINE#         761
  C:24C3H         LINE#         763
  C:24C5H         LINE#         765
  C:24C9H         LINE#         766
  C:24C9H         LINE#         768
  C:24C9H         LINE#         769
BL51 BANKED LINKER/LOCATER V6.22                                                      10/13/2015  15:22:36  PAGE 92


  C:24CBH         LINE#         770
  C:24D7H         LINE#         771
  C:24D7H         LINE#         772
  C:24DEH         LINE#         773
  C:24E0H         LINE#         775
  C:24E6H         LINE#         777
  C:24E8H         LINE#         779
  C:24EDH         LINE#         780
  C:24EDH         LINE#         782
  C:24EDH         LINE#         783
  C:24EFH         LINE#         784
  C:24FBH         LINE#         785
  C:24FBH         LINE#         786
  C:2502H         LINE#         787
  C:2504H         LINE#         789
  C:250AH         LINE#         791
  C:250CH         LINE#         793
  C:2511H         LINE#         794
  C:2511H         LINE#         796
  C:2511H         LINE#         797
  C:2513H         LINE#         798
  C:251FH         LINE#         799
  C:251FH         LINE#         800
  C:2526H         LINE#         801
  C:2528H         LINE#         803
  C:252EH         LINE#         805
  C:2530H         LINE#         807
  C:2536H         LINE#         808
  C:253AH         LINE#         810
  C:253FH         LINE#         811
  C:2541H         LINE#         812
  C:254DH         LINE#         813
  C:254DH         LINE#         814
  C:255EH         LINE#         815
  C:2564H         LINE#         816
  C:2566H         LINE#         817
  C:2572H         LINE#         818
  C:2572H         LINE#         819
  C:2583H         LINE#         820
  C:258CH         LINE#         821
  C:258CH         LINE#         822
  -------         ENDPROC       _IRDATADEAL
  -------         PROC          _RXDATADEAL
  C:4F36H         LINE#         825
  C:4F36H         LINE#         826
  C:4F36H         LINE#         828
  -------         ENDPROC       _RXDATADEAL
  -------         PROC          _ENTEREVENTDEAL
  C:3F19H         LINE#         830
  C:3F19H         LINE#         831
  C:3F19H         LINE#         832
  C:3F1FH         LINE#         834
  C:3F21H         LINE#         835
  C:3F23H         LINE#         836
  C:3F28H         LINE#         838
  C:3F2EH         LINE#         840
  C:3F32H         LINE#         841
BL51 BANKED LINKER/LOCATER V6.22                                                      10/13/2015  15:22:36  PAGE 93


  C:3F34H         LINE#         843
  C:3F3AH         LINE#         845
  C:3F40H         LINE#         846
  C:3F43H         LINE#         849
  C:3F46H         LINE#         850
  C:3F46H         LINE#         851
  C:3F4CH         LINE#         852
  C:3F52H         LINE#         853
  C:3F56H         LINE#         854
  C:3F56H         LINE#         856
  C:3F5BH         LINE#         858
  C:3F61H         LINE#         860
  C:3F65H         LINE#         861
  C:3F67H         LINE#         863
  C:3F74H         LINE#         864
  C:3F74H         LINE#         865
  C:3F79H         LINE#         867
  C:3F80H         LINE#         868
  C:3F86H         LINE#         869
  C:3F8CH         LINE#         870
  C:3F92H         LINE#         871
  C:3F98H         LINE#         872
  C:3F98H         LINE#         874
  C:3F9FH         LINE#         875
  C:3FA5H         LINE#         876
  -------         ENDPROC       _ENTEREVENTDEAL
  -------         PROC          _EXITEVENTDEAL
  C:4F37H         LINE#         878
  C:4F37H         LINE#         879
  C:4F37H         LINE#         881
  -------         ENDPROC       _EXITEVENTDEAL
  -------         ENDMOD        STATE_WORK

  -------         MODULE        ?C?FPMUL
  C:150BH         PUBLIC        ?C?FPMUL
  -------         ENDMOD        ?C?FPMUL

  -------         MODULE        ?C?FCAST
  C:161BH         PUBLIC        ?C?FCASTC
  C:1616H         PUBLIC        ?C?FCASTI
  C:1611H         PUBLIC        ?C?FCASTL
  -------         ENDMOD        ?C?FCAST

  -------         MODULE        ?C?CASTF
  C:164FH         PUBLIC        ?C?CASTF
  -------         ENDMOD        ?C?CASTF

  -------         MODULE        ?C?CLDPTR
  C:16D0H         PUBLIC        ?C?CLDPTR
  -------         ENDMOD        ?C?CLDPTR

  -------         MODULE        ?C?CLDOPTR
  C:16E9H         PUBLIC        ?C?CLDOPTR
  -------         ENDMOD        ?C?CLDOPTR

  -------         MODULE        ?C?CSTPTR
  C:1716H         PUBLIC        ?C?CSTPTR
BL51 BANKED LINKER/LOCATER V6.22                                                      10/13/2015  15:22:36  PAGE 94


  -------         ENDMOD        ?C?CSTPTR

  -------         MODULE        ?C?CSTOPTR
  C:1728H         PUBLIC        ?C?CSTOPTR
  -------         ENDMOD        ?C?CSTOPTR

  -------         MODULE        ?C?UIDIV
  C:174AH         PUBLIC        ?C?UIDIV
  -------         ENDMOD        ?C?UIDIV

  -------         MODULE        ?C?ILDOPTR
  C:179FH         PUBLIC        ?C?ILDOPTR
  -------         ENDMOD        ?C?ILDOPTR

  -------         MODULE        ?C?ULDIV
  C:1813H         PUBLIC        ?C?ULDIV
  -------         ENDMOD        ?C?ULDIV

  -------         MODULE        ?C?LNEG
  C:18A5H         PUBLIC        ?C?LNEG
  -------         ENDMOD        ?C?LNEG

  -------         MODULE        ?C?ULCMP
  C:18B3H         PUBLIC        ?C?ULCMP
  -------         ENDMOD        ?C?ULCMP

  -------         MODULE        ?C?LSTXDATA
  C:18C4H         PUBLIC        ?C?LSTXDATA
  -------         ENDMOD        ?C?LSTXDATA

  -------         MODULE        ?C?LSTKXDATA
  C:18D0H         PUBLIC        ?C?LSTKXDATA
  -------         ENDMOD        ?C?LSTKXDATA

  -------         MODULE        ?C?OFFXADD
  C:1901H         PUBLIC        ?C?OFFXADD
  -------         ENDMOD        ?C?OFFXADD

  -------         MODULE        ?C?ICALL
  C:190DH         PUBLIC        ?C?ICALL
  C:1911H         PUBLIC        ?C?ICALL2
  -------         ENDMOD        ?C?ICALL

Program Size: data=29.7 xdata=514 code=20280
LINK/LOCATE RUN COMPLETE.  0 WARNING(S),  0 ERROR(S)
